
Quadcopter2.elf:     file format elf32-littlearm

Sections:
Idx Name          Size      VMA       LMA       File off  Algn
  0 .isr_vector   00000298  08000000  08000000  00001000  2**0
                  CONTENTS, ALLOC, LOAD, READONLY, DATA
  1 .text         0000ae04  080002a0  080002a0  000012a0  2**4
                  CONTENTS, ALLOC, LOAD, READONLY, CODE
  2 .rodata       00002fa0  0800b0a8  0800b0a8  0000c0a8  2**3
                  CONTENTS, ALLOC, LOAD, READONLY, DATA
  3 .ARM          00000008  0800e048  0800e048  0000f048  2**2
                  CONTENTS, ALLOC, LOAD, READONLY, DATA
  4 .init_array   00000004  0800e050  0800e050  0000f050  2**2
                  CONTENTS, ALLOC, LOAD, READONLY, DATA
  5 .fini_array   00000004  0800e054  0800e054  0000f054  2**2
                  CONTENTS, ALLOC, LOAD, READONLY, DATA
  6 .data         0000006c  24000000  0800e058  00010000  2**2
                  CONTENTS, ALLOC, LOAD, DATA
  7 .bss          00000334  2400006c  0800e0c4  0001006c  2**2
                  ALLOC
  8 ._user_heap_stack 00000600  240003a0  0800e0c4  000103a0  2**0
                  ALLOC
  9 .ARM.attributes 0000002e  00000000  00000000  0001006c  2**0
                  CONTENTS, READONLY
 10 .comment      00000043  00000000  00000000  0001009a  2**0
                  CONTENTS, READONLY
 11 .debug_frame  00000f50  00000000  00000000  000100e0  2**2
                  CONTENTS, READONLY, DEBUGGING, OCTETS

Disassembly of section .text:

080002a0 <__do_global_dtors_aux>:
 80002a0:	b510      	push	{r4, lr}
 80002a2:	4c05      	ldr	r4, [pc, #20]	@ (80002b8 <__do_global_dtors_aux+0x18>)
 80002a4:	7823      	ldrb	r3, [r4, #0]
 80002a6:	b933      	cbnz	r3, 80002b6 <__do_global_dtors_aux+0x16>
 80002a8:	4b04      	ldr	r3, [pc, #16]	@ (80002bc <__do_global_dtors_aux+0x1c>)
 80002aa:	b113      	cbz	r3, 80002b2 <__do_global_dtors_aux+0x12>
 80002ac:	4804      	ldr	r0, [pc, #16]	@ (80002c0 <__do_global_dtors_aux+0x20>)
 80002ae:	f3af 8000 	nop.w
 80002b2:	2301      	movs	r3, #1
 80002b4:	7023      	strb	r3, [r4, #0]
 80002b6:	bd10      	pop	{r4, pc}
 80002b8:	2400006c 	.word	0x2400006c
 80002bc:	00000000 	.word	0x00000000
 80002c0:	0800b08c 	.word	0x0800b08c

080002c4 <frame_dummy>:
 80002c4:	b508      	push	{r3, lr}
 80002c6:	4b03      	ldr	r3, [pc, #12]	@ (80002d4 <frame_dummy+0x10>)
 80002c8:	b11b      	cbz	r3, 80002d2 <frame_dummy+0xe>
 80002ca:	4903      	ldr	r1, [pc, #12]	@ (80002d8 <frame_dummy+0x14>)
 80002cc:	4803      	ldr	r0, [pc, #12]	@ (80002dc <frame_dummy+0x18>)
 80002ce:	f3af 8000 	nop.w
 80002d2:	bd08      	pop	{r3, pc}
 80002d4:	00000000 	.word	0x00000000
 80002d8:	24000070 	.word	0x24000070
 80002dc:	0800b08c 	.word	0x0800b08c

080002e0 <memchr>:
 80002e0:	f001 01ff 	and.w	r1, r1, #255	@ 0xff
 80002e4:	2a10      	cmp	r2, #16
 80002e6:	db2b      	blt.n	8000340 <memchr+0x60>
 80002e8:	f010 0f07 	tst.w	r0, #7
 80002ec:	d008      	beq.n	8000300 <memchr+0x20>
 80002ee:	f810 3b01 	ldrb.w	r3, [r0], #1
 80002f2:	3a01      	subs	r2, #1
 80002f4:	428b      	cmp	r3, r1
 80002f6:	d02d      	beq.n	8000354 <memchr+0x74>
 80002f8:	f010 0f07 	tst.w	r0, #7
 80002fc:	b342      	cbz	r2, 8000350 <memchr+0x70>
 80002fe:	d1f6      	bne.n	80002ee <memchr+0xe>
 8000300:	b4f0      	push	{r4, r5, r6, r7}
 8000302:	ea41 2101 	orr.w	r1, r1, r1, lsl #8
 8000306:	ea41 4101 	orr.w	r1, r1, r1, lsl #16
 800030a:	f022 0407 	bic.w	r4, r2, #7
 800030e:	f07f 0700 	mvns.w	r7, #0
 8000312:	2300      	movs	r3, #0
 8000314:	e8f0 5602 	ldrd	r5, r6, [r0], #8
 8000318:	3c08      	subs	r4, #8
 800031a:	ea85 0501 	eor.w	r5, r5, r1
 800031e:	ea86 0601 	eor.w	r6, r6, r1
 8000322:	fa85 f547 	uadd8	r5, r5, r7
 8000326:	faa3 f587 	sel	r5, r3, r7
 800032a:	fa86 f647 	uadd8	r6, r6, r7
 800032e:	faa5 f687 	sel	r6, r5, r7
 8000332:	b98e      	cbnz	r6, 8000358 <memchr+0x78>
 8000334:	d1ee      	bne.n	8000314 <memchr+0x34>
 8000336:	bcf0      	pop	{r4, r5, r6, r7}
 8000338:	f001 01ff 	and.w	r1, r1, #255	@ 0xff
 800033c:	f002 0207 	and.w	r2, r2, #7
 8000340:	b132      	cbz	r2, 8000350 <memchr+0x70>
 8000342:	f810 3b01 	ldrb.w	r3, [r0], #1
 8000346:	3a01      	subs	r2, #1
 8000348:	ea83 0301 	eor.w	r3, r3, r1
 800034c:	b113      	cbz	r3, 8000354 <memchr+0x74>
 800034e:	d1f8      	bne.n	8000342 <memchr+0x62>
 8000350:	2000      	movs	r0, #0
 8000352:	4770      	bx	lr
 8000354:	3801      	subs	r0, #1
 8000356:	4770      	bx	lr
 8000358:	2d00      	cmp	r5, #0
 800035a:	bf06      	itte	eq
 800035c:	4635      	moveq	r5, r6
 800035e:	3803      	subeq	r0, #3
 8000360:	3807      	subne	r0, #7
 8000362:	f015 0f01 	tst.w	r5, #1
 8000366:	d107      	bne.n	8000378 <memchr+0x98>
 8000368:	3001      	adds	r0, #1
 800036a:	f415 7f80 	tst.w	r5, #256	@ 0x100
 800036e:	bf02      	ittt	eq
 8000370:	3001      	addeq	r0, #1
 8000372:	f415 3fc0 	tsteq.w	r5, #98304	@ 0x18000
 8000376:	3001      	addeq	r0, #1
 8000378:	bcf0      	pop	{r4, r5, r6, r7}
 800037a:	3801      	subs	r0, #1
 800037c:	4770      	bx	lr
 800037e:	bf00      	nop

08000380 <__aeabi_uldivmod>:
 8000380:	b953      	cbnz	r3, 8000398 <__aeabi_uldivmod+0x18>
 8000382:	b94a      	cbnz	r2, 8000398 <__aeabi_uldivmod+0x18>
 8000384:	2900      	cmp	r1, #0
 8000386:	bf08      	it	eq
 8000388:	2800      	cmpeq	r0, #0
 800038a:	bf1c      	itt	ne
 800038c:	f04f 31ff 	movne.w	r1, #4294967295	@ 0xffffffff
 8000390:	f04f 30ff 	movne.w	r0, #4294967295	@ 0xffffffff
 8000394:	f000 b96a 	b.w	800066c <__aeabi_idiv0>
 8000398:	f1ad 0c08 	sub.w	ip, sp, #8
 800039c:	e96d ce04 	strd	ip, lr, [sp, #-16]!
 80003a0:	f000 f806 	bl	80003b0 <__udivmoddi4>
 80003a4:	f8dd e004 	ldr.w	lr, [sp, #4]
 80003a8:	e9dd 2302 	ldrd	r2, r3, [sp, #8]
 80003ac:	b004      	add	sp, #16
 80003ae:	4770      	bx	lr

080003b0 <__udivmoddi4>:
 80003b0:	e92d 47f0 	stmdb	sp!, {r4, r5, r6, r7, r8, r9, sl, lr}
 80003b4:	9d08      	ldr	r5, [sp, #32]
 80003b6:	460c      	mov	r4, r1
 80003b8:	2b00      	cmp	r3, #0
 80003ba:	d14e      	bne.n	800045a <__udivmoddi4+0xaa>
 80003bc:	4694      	mov	ip, r2
 80003be:	458c      	cmp	ip, r1
 80003c0:	4686      	mov	lr, r0
 80003c2:	fab2 f282 	clz	r2, r2
 80003c6:	d962      	bls.n	800048e <__udivmoddi4+0xde>
 80003c8:	b14a      	cbz	r2, 80003de <__udivmoddi4+0x2e>
 80003ca:	f1c2 0320 	rsb	r3, r2, #32
 80003ce:	4091      	lsls	r1, r2
 80003d0:	fa20 f303 	lsr.w	r3, r0, r3
 80003d4:	fa0c fc02 	lsl.w	ip, ip, r2
 80003d8:	4319      	orrs	r1, r3
 80003da:	fa00 fe02 	lsl.w	lr, r0, r2
 80003de:	ea4f 471c 	mov.w	r7, ip, lsr #16
 80003e2:	fa1f f68c 	uxth.w	r6, ip
 80003e6:	fbb1 f4f7 	udiv	r4, r1, r7
 80003ea:	ea4f 431e 	mov.w	r3, lr, lsr #16
 80003ee:	fb07 1114 	mls	r1, r7, r4, r1
 80003f2:	ea43 4301 	orr.w	r3, r3, r1, lsl #16
 80003f6:	fb04 f106 	mul.w	r1, r4, r6
 80003fa:	4299      	cmp	r1, r3
 80003fc:	d90a      	bls.n	8000414 <__udivmoddi4+0x64>
 80003fe:	eb1c 0303 	adds.w	r3, ip, r3
 8000402:	f104 30ff 	add.w	r0, r4, #4294967295	@ 0xffffffff
 8000406:	f080 8112 	bcs.w	800062e <__udivmoddi4+0x27e>
 800040a:	4299      	cmp	r1, r3
 800040c:	f240 810f 	bls.w	800062e <__udivmoddi4+0x27e>
 8000410:	3c02      	subs	r4, #2
 8000412:	4463      	add	r3, ip
 8000414:	1a59      	subs	r1, r3, r1
 8000416:	fa1f f38e 	uxth.w	r3, lr
 800041a:	fbb1 f0f7 	udiv	r0, r1, r7
 800041e:	fb07 1110 	mls	r1, r7, r0, r1
 8000422:	ea43 4301 	orr.w	r3, r3, r1, lsl #16
 8000426:	fb00 f606 	mul.w	r6, r0, r6
 800042a:	429e      	cmp	r6, r3
 800042c:	d90a      	bls.n	8000444 <__udivmoddi4+0x94>
 800042e:	eb1c 0303 	adds.w	r3, ip, r3
 8000432:	f100 31ff 	add.w	r1, r0, #4294967295	@ 0xffffffff
 8000436:	f080 80fc 	bcs.w	8000632 <__udivmoddi4+0x282>
 800043a:	429e      	cmp	r6, r3
 800043c:	f240 80f9 	bls.w	8000632 <__udivmoddi4+0x282>
 8000440:	4463      	add	r3, ip
 8000442:	3802      	subs	r0, #2
 8000444:	1b9b      	subs	r3, r3, r6
 8000446:	ea40 4004 	orr.w	r0, r0, r4, lsl #16
 800044a:	2100      	movs	r1, #0
 800044c:	b11d      	cbz	r5, 8000456 <__udivmoddi4+0xa6>
 800044e:	40d3      	lsrs	r3, r2
 8000450:	2200      	movs	r2, #0
 8000452:	e9c5 3200 	strd	r3, r2, [r5]
 8000456:	e8bd 87f0 	ldmia.w	sp!, {r4, r5, r6, r7, r8, r9, sl, pc}
 800045a:	428b      	cmp	r3, r1
 800045c:	d905      	bls.n	800046a <__udivmoddi4+0xba>
 800045e:	b10d      	cbz	r5, 8000464 <__udivmoddi4+0xb4>
 8000460:	e9c5 0100 	strd	r0, r1, [r5]
 8000464:	2100      	movs	r1, #0
 8000466:	4608      	mov	r0, r1
 8000468:	e7f5      	b.n	8000456 <__udivmoddi4+0xa6>
 800046a:	fab3 f183 	clz	r1, r3
 800046e:	2900      	cmp	r1, #0
 8000470:	d146      	bne.n	8000500 <__udivmoddi4+0x150>
 8000472:	42a3      	cmp	r3, r4
 8000474:	d302      	bcc.n	800047c <__udivmoddi4+0xcc>
 8000476:	4290      	cmp	r0, r2
 8000478:	f0c0 80f0 	bcc.w	800065c <__udivmoddi4+0x2ac>
 800047c:	1a86      	subs	r6, r0, r2
 800047e:	eb64 0303 	sbc.w	r3, r4, r3
 8000482:	2001      	movs	r0, #1
 8000484:	2d00      	cmp	r5, #0
 8000486:	d0e6      	beq.n	8000456 <__udivmoddi4+0xa6>
 8000488:	e9c5 6300 	strd	r6, r3, [r5]
 800048c:	e7e3      	b.n	8000456 <__udivmoddi4+0xa6>
 800048e:	2a00      	cmp	r2, #0
 8000490:	f040 8090 	bne.w	80005b4 <__udivmoddi4+0x204>
 8000494:	eba1 040c 	sub.w	r4, r1, ip
 8000498:	ea4f 481c 	mov.w	r8, ip, lsr #16
 800049c:	fa1f f78c 	uxth.w	r7, ip
 80004a0:	2101      	movs	r1, #1
 80004a2:	fbb4 f6f8 	udiv	r6, r4, r8
 80004a6:	ea4f 431e 	mov.w	r3, lr, lsr #16
 80004aa:	fb08 4416 	mls	r4, r8, r6, r4
 80004ae:	ea43 4304 	orr.w	r3, r3, r4, lsl #16
 80004b2:	fb07 f006 	mul.w	r0, r7, r6
 80004b6:	4298      	cmp	r0, r3
 80004b8:	d908      	bls.n	80004cc <__udivmoddi4+0x11c>
 80004ba:	eb1c 0303 	adds.w	r3, ip, r3
 80004be:	f106 34ff 	add.w	r4, r6, #4294967295	@ 0xffffffff
 80004c2:	d202      	bcs.n	80004ca <__udivmoddi4+0x11a>
 80004c4:	4298      	cmp	r0, r3
 80004c6:	f200 80cd 	bhi.w	8000664 <__udivmoddi4+0x2b4>
 80004ca:	4626      	mov	r6, r4
 80004cc:	1a1c      	subs	r4, r3, r0
 80004ce:	fa1f f38e 	uxth.w	r3, lr
 80004d2:	fbb4 f0f8 	udiv	r0, r4, r8
 80004d6:	fb08 4410 	mls	r4, r8, r0, r4
 80004da:	ea43 4304 	orr.w	r3, r3, r4, lsl #16
 80004de:	fb00 f707 	mul.w	r7, r0, r7
 80004e2:	429f      	cmp	r7, r3
 80004e4:	d908      	bls.n	80004f8 <__udivmoddi4+0x148>
 80004e6:	eb1c 0303 	adds.w	r3, ip, r3
 80004ea:	f100 34ff 	add.w	r4, r0, #4294967295	@ 0xffffffff
 80004ee:	d202      	bcs.n	80004f6 <__udivmoddi4+0x146>
 80004f0:	429f      	cmp	r7, r3
 80004f2:	f200 80b0 	bhi.w	8000656 <__udivmoddi4+0x2a6>
 80004f6:	4620      	mov	r0, r4
 80004f8:	1bdb      	subs	r3, r3, r7
 80004fa:	ea40 4006 	orr.w	r0, r0, r6, lsl #16
 80004fe:	e7a5      	b.n	800044c <__udivmoddi4+0x9c>
 8000500:	f1c1 0620 	rsb	r6, r1, #32
 8000504:	408b      	lsls	r3, r1
 8000506:	fa22 f706 	lsr.w	r7, r2, r6
 800050a:	431f      	orrs	r7, r3
 800050c:	fa20 fc06 	lsr.w	ip, r0, r6
 8000510:	fa04 f301 	lsl.w	r3, r4, r1
 8000514:	ea43 030c 	orr.w	r3, r3, ip
 8000518:	40f4      	lsrs	r4, r6
 800051a:	fa00 f801 	lsl.w	r8, r0, r1
 800051e:	0c38      	lsrs	r0, r7, #16
 8000520:	ea4f 4913 	mov.w	r9, r3, lsr #16
 8000524:	fbb4 fef0 	udiv	lr, r4, r0
 8000528:	fa1f fc87 	uxth.w	ip, r7
 800052c:	fb00 441e 	mls	r4, r0, lr, r4
 8000530:	ea49 4404 	orr.w	r4, r9, r4, lsl #16
 8000534:	fb0e f90c 	mul.w	r9, lr, ip
 8000538:	45a1      	cmp	r9, r4
 800053a:	fa02 f201 	lsl.w	r2, r2, r1
 800053e:	d90a      	bls.n	8000556 <__udivmoddi4+0x1a6>
 8000540:	193c      	adds	r4, r7, r4
 8000542:	f10e 3aff 	add.w	sl, lr, #4294967295	@ 0xffffffff
 8000546:	f080 8084 	bcs.w	8000652 <__udivmoddi4+0x2a2>
 800054a:	45a1      	cmp	r9, r4
 800054c:	f240 8081 	bls.w	8000652 <__udivmoddi4+0x2a2>
 8000550:	f1ae 0e02 	sub.w	lr, lr, #2
 8000554:	443c      	add	r4, r7
 8000556:	eba4 0409 	sub.w	r4, r4, r9
 800055a:	fa1f f983 	uxth.w	r9, r3
 800055e:	fbb4 f3f0 	udiv	r3, r4, r0
 8000562:	fb00 4413 	mls	r4, r0, r3, r4
 8000566:	ea49 4404 	orr.w	r4, r9, r4, lsl #16
 800056a:	fb03 fc0c 	mul.w	ip, r3, ip
 800056e:	45a4      	cmp	ip, r4
 8000570:	d907      	bls.n	8000582 <__udivmoddi4+0x1d2>
 8000572:	193c      	adds	r4, r7, r4
 8000574:	f103 30ff 	add.w	r0, r3, #4294967295	@ 0xffffffff
 8000578:	d267      	bcs.n	800064a <__udivmoddi4+0x29a>
 800057a:	45a4      	cmp	ip, r4
 800057c:	d965      	bls.n	800064a <__udivmoddi4+0x29a>
 800057e:	3b02      	subs	r3, #2
 8000580:	443c      	add	r4, r7
 8000582:	ea43 400e 	orr.w	r0, r3, lr, lsl #16
 8000586:	fba0 9302 	umull	r9, r3, r0, r2
 800058a:	eba4 040c 	sub.w	r4, r4, ip
 800058e:	429c      	cmp	r4, r3
 8000590:	46ce      	mov	lr, r9
 8000592:	469c      	mov	ip, r3
 8000594:	d351      	bcc.n	800063a <__udivmoddi4+0x28a>
 8000596:	d04e      	beq.n	8000636 <__udivmoddi4+0x286>
 8000598:	b155      	cbz	r5, 80005b0 <__udivmoddi4+0x200>
 800059a:	ebb8 030e 	subs.w	r3, r8, lr
 800059e:	eb64 040c 	sbc.w	r4, r4, ip
 80005a2:	fa04 f606 	lsl.w	r6, r4, r6
 80005a6:	40cb      	lsrs	r3, r1
 80005a8:	431e      	orrs	r6, r3
 80005aa:	40cc      	lsrs	r4, r1
 80005ac:	e9c5 6400 	strd	r6, r4, [r5]
 80005b0:	2100      	movs	r1, #0
 80005b2:	e750      	b.n	8000456 <__udivmoddi4+0xa6>
 80005b4:	f1c2 0320 	rsb	r3, r2, #32
 80005b8:	fa20 f103 	lsr.w	r1, r0, r3
 80005bc:	fa0c fc02 	lsl.w	ip, ip, r2
 80005c0:	fa24 f303 	lsr.w	r3, r4, r3
 80005c4:	4094      	lsls	r4, r2
 80005c6:	430c      	orrs	r4, r1
 80005c8:	ea4f 481c 	mov.w	r8, ip, lsr #16
 80005cc:	fa00 fe02 	lsl.w	lr, r0, r2
 80005d0:	fa1f f78c 	uxth.w	r7, ip
 80005d4:	fbb3 f0f8 	udiv	r0, r3, r8
 80005d8:	fb08 3110 	mls	r1, r8, r0, r3
 80005dc:	0c23      	lsrs	r3, r4, #16
 80005de:	ea43 4301 	orr.w	r3, r3, r1, lsl #16
 80005e2:	fb00 f107 	mul.w	r1, r0, r7
 80005e6:	4299      	cmp	r1, r3
 80005e8:	d908      	bls.n	80005fc <__udivmoddi4+0x24c>
 80005ea:	eb1c 0303 	adds.w	r3, ip, r3
 80005ee:	f100 36ff 	add.w	r6, r0, #4294967295	@ 0xffffffff
 80005f2:	d22c      	bcs.n	800064e <__udivmoddi4+0x29e>
 80005f4:	4299      	cmp	r1, r3
 80005f6:	d92a      	bls.n	800064e <__udivmoddi4+0x29e>
 80005f8:	3802      	subs	r0, #2
 80005fa:	4463      	add	r3, ip
 80005fc:	1a5b      	subs	r3, r3, r1
 80005fe:	b2a4      	uxth	r4, r4
 8000600:	fbb3 f1f8 	udiv	r1, r3, r8
 8000604:	fb08 3311 	mls	r3, r8, r1, r3
 8000608:	ea44 4403 	orr.w	r4, r4, r3, lsl #16
 800060c:	fb01 f307 	mul.w	r3, r1, r7
 8000610:	42a3      	cmp	r3, r4
 8000612:	d908      	bls.n	8000626 <__udivmoddi4+0x276>
 8000614:	eb1c 0404 	adds.w	r4, ip, r4
 8000618:	f101 36ff 	add.w	r6, r1, #4294967295	@ 0xffffffff
 800061c:	d213      	bcs.n	8000646 <__udivmoddi4+0x296>
 800061e:	42a3      	cmp	r3, r4
 8000620:	d911      	bls.n	8000646 <__udivmoddi4+0x296>
 8000622:	3902      	subs	r1, #2
 8000624:	4464      	add	r4, ip
 8000626:	1ae4      	subs	r4, r4, r3
 8000628:	ea41 4100 	orr.w	r1, r1, r0, lsl #16
 800062c:	e739      	b.n	80004a2 <__udivmoddi4+0xf2>
 800062e:	4604      	mov	r4, r0
 8000630:	e6f0      	b.n	8000414 <__udivmoddi4+0x64>
 8000632:	4608      	mov	r0, r1
 8000634:	e706      	b.n	8000444 <__udivmoddi4+0x94>
 8000636:	45c8      	cmp	r8, r9
 8000638:	d2ae      	bcs.n	8000598 <__udivmoddi4+0x1e8>
 800063a:	ebb9 0e02 	subs.w	lr, r9, r2
 800063e:	eb63 0c07 	sbc.w	ip, r3, r7
 8000642:	3801      	subs	r0, #1
 8000644:	e7a8      	b.n	8000598 <__udivmoddi4+0x1e8>
 8000646:	4631      	mov	r1, r6
 8000648:	e7ed      	b.n	8000626 <__udivmoddi4+0x276>
 800064a:	4603      	mov	r3, r0
 800064c:	e799      	b.n	8000582 <__udivmoddi4+0x1d2>
 800064e:	4630      	mov	r0, r6
 8000650:	e7d4      	b.n	80005fc <__udivmoddi4+0x24c>
 8000652:	46d6      	mov	lr, sl
 8000654:	e77f      	b.n	8000556 <__udivmoddi4+0x1a6>
 8000656:	4463      	add	r3, ip
 8000658:	3802      	subs	r0, #2
 800065a:	e74d      	b.n	80004f8 <__udivmoddi4+0x148>
 800065c:	4606      	mov	r6, r0
 800065e:	4623      	mov	r3, r4
 8000660:	4608      	mov	r0, r1
 8000662:	e70f      	b.n	8000484 <__udivmoddi4+0xd4>
 8000664:	3e02      	subs	r6, #2
 8000666:	4463      	add	r3, ip
 8000668:	e730      	b.n	80004cc <__udivmoddi4+0x11c>
 800066a:	bf00      	nop

0800066c <__aeabi_idiv0>:
 800066c:	4770      	bx	lr
 800066e:	bf00      	nop

08000670 <_ZN5Eigen8internal11plain_arrayIdLi4ELi0ELi16EEC1Ev>:
 8000670:	b508      	push	{r3, lr}
 8000672:	0703      	lsls	r3, r0, #28
 8000674:	d005      	beq.n	8000682 <_ZN5Eigen8internal11plain_arrayIdLi4ELi0ELi16EEC1Ev+0x12>
 8000676:	4b03      	ldr	r3, [pc, #12]	@ (8000684 <_ZN5Eigen8internal11plain_arrayIdLi4ELi0ELi16EEC1Ev+0x14>)
 8000678:	216d      	movs	r1, #109	@ 0x6d
 800067a:	4a03      	ldr	r2, [pc, #12]	@ (8000688 <_ZN5Eigen8internal11plain_arrayIdLi4ELi0ELi16EEC1Ev+0x18>)
 800067c:	4803      	ldr	r0, [pc, #12]	@ (800068c <_ZN5Eigen8internal11plain_arrayIdLi4ELi0ELi16EEC1Ev+0x1c>)
 800067e:	f009 fb87 	bl	8009d90 <__assert_func>
 8000682:	bd08      	pop	{r3, pc}
 8000684:	0800b0a8 	.word	0x0800b0a8
 8000688:	0800b197 	.word	0x0800b197
 800068c:	0800b224 	.word	0x0800b224

08000690 <_ZN5Eigen8internal31generic_dense_assignment_kernelINS0_9evaluatorINS_6MatrixIdLi3ELi1ELi0ELi3ELi1EEEEENS2_INS_13CwiseBinaryOpINS0_17scalar_product_opIddEEKS4_KNS_14CwiseNullaryOpINS0_18scalar_constant_opIdEES9_EEEEEENS0_9assign_opIddEELi0EE11assignCoeffEi>:
 8000690:	b510      	push	{r4, lr}
 8000692:	e9d0 3400 	ldrd	r3, r4, [r0]
 8000696:	6862      	ldr	r2, [r4, #4]
 8000698:	681b      	ldr	r3, [r3, #0]
 800069a:	eb02 02c1 	add.w	r2, r2, r1, lsl #3
 800069e:	eb03 03c1 	add.w	r3, r3, r1, lsl #3
 80006a2:	ed92 7b00 	vldr	d7, [r2]
 80006a6:	ed94 6b02 	vldr	d6, [r4, #8]
 80006aa:	ee27 7b06 	vmul.f64	d7, d7, d6
 80006ae:	ed83 7b00 	vstr	d7, [r3]
 80006b2:	bd10      	pop	{r4, pc}

080006b4 <_ZN5Eigen8internal31generic_dense_assignment_kernelINS0_9evaluatorINS_6MatrixIdLi4ELi1ELi0ELi4ELi1EEEEENS2_INS_14CwiseNullaryOpINS0_18scalar_constant_opIdEES4_EEEENS0_13div_assign_opIddEELi0EE11assignCoeffEi>:
 80006b4:	6803      	ldr	r3, [r0, #0]
 80006b6:	681b      	ldr	r3, [r3, #0]
 80006b8:	eb03 01c1 	add.w	r1, r3, r1, lsl #3
 80006bc:	6843      	ldr	r3, [r0, #4]
 80006be:	ed91 5b00 	vldr	d5, [r1]
 80006c2:	ed93 6b00 	vldr	d6, [r3]
 80006c6:	ee85 7b06 	vdiv.f64	d7, d5, d6
 80006ca:	ed81 7b00 	vstr	d7, [r1]
 80006ce:	4770      	bx	lr

080006d0 <_ZN5Eigen10MatrixBaseINS_6MatrixIdLi4ELi1ELi0ELi4ELi1EEEE9normalizeEv>:
 80006d0:	ed90 7b02 	vldr	d7, [r0, #8]
 80006d4:	ed90 0b06 	vldr	d0, [r0, #24]
 80006d8:	ed90 6b00 	vldr	d6, [r0]
 80006dc:	ee27 7b07 	vmul.f64	d7, d7, d7
 80006e0:	ee20 0b00 	vmul.f64	d0, d0, d0
 80006e4:	eea6 7b06 	vfma.f64	d7, d6, d6
 80006e8:	ed90 6b04 	vldr	d6, [r0, #16]
 80006ec:	b510      	push	{r4, lr}
 80006ee:	eea6 0b06 	vfma.f64	d0, d6, d6
 80006f2:	b08a      	sub	sp, #40	@ 0x28
 80006f4:	4604      	mov	r4, r0
 80006f6:	ee30 0b07 	vadd.f64	d0, d0, d7
 80006fa:	eeb5 0bc0 	vcmpe.f64	d0, #0.0
 80006fe:	eef1 fa10 	vmrs	APSR_nzcv, fpscr
 8000702:	dd1b      	ble.n	800073c <_ZN5Eigen10MatrixBaseINS_6MatrixIdLi4ELi1ELi0ELi4ELi1EEEE9normalizeEv+0x6c>
 8000704:	f008 fc04 	bl	8008f10 <sqrt>
 8000708:	ab01      	add	r3, sp, #4
 800070a:	2100      	movs	r1, #0
 800070c:	a806      	add	r0, sp, #24
 800070e:	9306      	str	r3, [sp, #24]
 8000710:	ab02      	add	r3, sp, #8
 8000712:	9401      	str	r4, [sp, #4]
 8000714:	9307      	str	r3, [sp, #28]
 8000716:	f8cd d020 	str.w	sp, [sp, #32]
 800071a:	9409      	str	r4, [sp, #36]	@ 0x24
 800071c:	ed8d 0b02 	vstr	d0, [sp, #8]
 8000720:	f7ff ffc8 	bl	80006b4 <_ZN5Eigen8internal31generic_dense_assignment_kernelINS0_9evaluatorINS_6MatrixIdLi4ELi1ELi0ELi4ELi1EEEEENS2_INS_14CwiseNullaryOpINS0_18scalar_constant_opIdEES4_EEEENS0_13div_assign_opIddEELi0EE11assignCoeffEi>
 8000724:	2101      	movs	r1, #1
 8000726:	a806      	add	r0, sp, #24
 8000728:	f7ff ffc4 	bl	80006b4 <_ZN5Eigen8internal31generic_dense_assignment_kernelINS0_9evaluatorINS_6MatrixIdLi4ELi1ELi0ELi4ELi1EEEEENS2_INS_14CwiseNullaryOpINS0_18scalar_constant_opIdEES4_EEEENS0_13div_assign_opIddEELi0EE11assignCoeffEi>
 800072c:	2102      	movs	r1, #2
 800072e:	a806      	add	r0, sp, #24
 8000730:	f7ff ffc0 	bl	80006b4 <_ZN5Eigen8internal31generic_dense_assignment_kernelINS0_9evaluatorINS_6MatrixIdLi4ELi1ELi0ELi4ELi1EEEEENS2_INS_14CwiseNullaryOpINS0_18scalar_constant_opIdEES4_EEEENS0_13div_assign_opIddEELi0EE11assignCoeffEi>
 8000734:	2103      	movs	r1, #3
 8000736:	a806      	add	r0, sp, #24
 8000738:	f7ff ffbc 	bl	80006b4 <_ZN5Eigen8internal31generic_dense_assignment_kernelINS0_9evaluatorINS_6MatrixIdLi4ELi1ELi0ELi4ELi1EEEEENS2_INS_14CwiseNullaryOpINS0_18scalar_constant_opIdEES4_EEEENS0_13div_assign_opIddEELi0EE11assignCoeffEi>
 800073c:	b00a      	add	sp, #40	@ 0x28
 800073e:	bd10      	pop	{r4, pc}

08000740 <_ZN5Eigen8internal31generic_dense_assignment_kernelINS0_9evaluatorINS_6MatrixIdLi4ELi1ELi0ELi4ELi1EEEEENS2_INS_13CwiseBinaryOpINS0_13scalar_sum_opIddEEKNS6_INS0_17scalar_product_opIddEEKNS_14CwiseNullaryOpINS0_18scalar_constant_opIdEEKS4_EESE_EESI_EEEENS0_9assign_opIddEELi0EE11assignCoeffEi>:
 8000740:	6803      	ldr	r3, [r0, #0]
 8000742:	681a      	ldr	r2, [r3, #0]
 8000744:	6843      	ldr	r3, [r0, #4]
 8000746:	eb02 02c1 	add.w	r2, r2, r1, lsl #3
 800074a:	6a18      	ldr	r0, [r3, #32]
 800074c:	b510      	push	{r4, lr}
 800074e:	6c1c      	ldr	r4, [r3, #64]	@ 0x40
 8000750:	eb00 00c1 	add.w	r0, r0, r1, lsl #3
 8000754:	eb04 04c1 	add.w	r4, r4, r1, lsl #3
 8000758:	ed93 6b0c 	vldr	d6, [r3, #48]	@ 0x30
 800075c:	ed94 7b00 	vldr	d7, [r4]
 8000760:	ed93 5b04 	vldr	d5, [r3, #16]
 8000764:	ee27 7b06 	vmul.f64	d7, d7, d6
 8000768:	ed90 6b00 	vldr	d6, [r0]
 800076c:	eea5 7b06 	vfma.f64	d7, d5, d6
 8000770:	ed82 7b00 	vstr	d7, [r2]
 8000774:	bd10      	pop	{r4, pc}
	...

08000778 <_ZNK5Eigen14QuaternionBaseINS_10QuaternionIdLi0EEEE5slerpIS2_EES2_RKdRKNS0_IT_EE>:
 8000778:	ed93 6b02 	vldr	d6, [r3, #8]
 800077c:	ed91 7b02 	vldr	d7, [r1, #8]
 8000780:	ed91 5b00 	vldr	d5, [r1]
 8000784:	b5f0      	push	{r4, r5, r6, r7, lr}
 8000786:	ee27 7b06 	vmul.f64	d7, d7, d6
 800078a:	4606      	mov	r6, r0
 800078c:	460d      	mov	r5, r1
 800078e:	4617      	mov	r7, r2
 8000790:	461c      	mov	r4, r3
 8000792:	ed93 6b00 	vldr	d6, [r3]
 8000796:	ed2d 8b0a 	vpush	{d8-d12}
 800079a:	ed91 8b06 	vldr	d8, [r1, #24]
 800079e:	eea5 7b06 	vfma.f64	d7, d5, d6
 80007a2:	b099      	sub	sp, #100	@ 0x64
 80007a4:	eeb7 ab00 	vmov.f64	d10, #112	@ 0x3f800000  1.0
 80007a8:	ed93 6b06 	vldr	d6, [r3, #24]
 80007ac:	ed91 5b04 	vldr	d5, [r1, #16]
 80007b0:	ee28 8b06 	vmul.f64	d8, d8, d6
 80007b4:	ed93 6b04 	vldr	d6, [r3, #16]
 80007b8:	eea5 8b06 	vfma.f64	d8, d5, d6
 80007bc:	ee38 8b07 	vadd.f64	d8, d8, d7
 80007c0:	ed9f 7b29 	vldr	d7, [pc, #164]	@ 8000868 <_ZNK5Eigen14QuaternionBaseINS_10QuaternionIdLi0EEEE5slerpIS2_EES2_RKdRKNS0_IT_EE+0xf0>
 80007c4:	eeb0 0bc8 	vabs.f64	d0, d8
 80007c8:	eeb4 0bc7 	vcmpe.f64	d0, d7
 80007cc:	eef1 fa10 	vmrs	APSR_nzcv, fpscr
 80007d0:	db30      	blt.n	8000834 <_ZNK5Eigen14QuaternionBaseINS_10QuaternionIdLi0EEEE5slerpIS2_EES2_RKdRKNS0_IT_EE+0xbc>
 80007d2:	ed92 9b00 	vldr	d9, [r2]
 80007d6:	ee3a ab49 	vsub.f64	d10, d10, d9
 80007da:	eeb5 8bc0 	vcmpe.f64	d8, #0.0
 80007de:	4630      	mov	r0, r6
 80007e0:	eef1 fa10 	vmrs	APSR_nzcv, fpscr
 80007e4:	bf48      	it	mi
 80007e6:	eeb1 9b49 	vnegmi.f64	d9, d9
 80007ea:	f7ff ff41 	bl	8000670 <_ZN5Eigen8internal11plain_arrayIdLi4ELi0ELi16EEC1Ev>
 80007ee:	ab01      	add	r3, sp, #4
 80007f0:	a802      	add	r0, sp, #8
 80007f2:	2100      	movs	r1, #0
 80007f4:	950e      	str	r5, [sp, #56]	@ 0x38
 80007f6:	9302      	str	r3, [sp, #8]
 80007f8:	ab06      	add	r3, sp, #24
 80007fa:	9416      	str	r4, [sp, #88]	@ 0x58
 80007fc:	9303      	str	r3, [sp, #12]
 80007fe:	9601      	str	r6, [sp, #4]
 8000800:	f8cd d010 	str.w	sp, [sp, #16]
 8000804:	9605      	str	r6, [sp, #20]
 8000806:	ed8d ab0a 	vstr	d10, [sp, #40]	@ 0x28
 800080a:	ed8d 9b12 	vstr	d9, [sp, #72]	@ 0x48
 800080e:	f7ff ff97 	bl	8000740 <_ZN5Eigen8internal31generic_dense_assignment_kernelINS0_9evaluatorINS_6MatrixIdLi4ELi1ELi0ELi4ELi1EEEEENS2_INS_13CwiseBinaryOpINS0_13scalar_sum_opIddEEKNS6_INS0_17scalar_product_opIddEEKNS_14CwiseNullaryOpINS0_18scalar_constant_opIdEEKS4_EESE_EESI_EEEENS0_9assign_opIddEELi0EE11assignCoeffEi>
 8000812:	a802      	add	r0, sp, #8
 8000814:	2101      	movs	r1, #1
 8000816:	f7ff ff93 	bl	8000740 <_ZN5Eigen8internal31generic_dense_assignment_kernelINS0_9evaluatorINS_6MatrixIdLi4ELi1ELi0ELi4ELi1EEEEENS2_INS_13CwiseBinaryOpINS0_13scalar_sum_opIddEEKNS6_INS0_17scalar_product_opIddEEKNS_14CwiseNullaryOpINS0_18scalar_constant_opIdEEKS4_EESE_EESI_EEEENS0_9assign_opIddEELi0EE11assignCoeffEi>
 800081a:	a802      	add	r0, sp, #8
 800081c:	2102      	movs	r1, #2
 800081e:	f7ff ff8f 	bl	8000740 <_ZN5Eigen8internal31generic_dense_assignment_kernelINS0_9evaluatorINS_6MatrixIdLi4ELi1ELi0ELi4ELi1EEEEENS2_INS_13CwiseBinaryOpINS0_13scalar_sum_opIddEEKNS6_INS0_17scalar_product_opIddEEKNS_14CwiseNullaryOpINS0_18scalar_constant_opIdEEKS4_EESE_EESI_EEEENS0_9assign_opIddEELi0EE11assignCoeffEi>
 8000822:	a802      	add	r0, sp, #8
 8000824:	2103      	movs	r1, #3
 8000826:	f7ff ff8b 	bl	8000740 <_ZN5Eigen8internal31generic_dense_assignment_kernelINS0_9evaluatorINS_6MatrixIdLi4ELi1ELi0ELi4ELi1EEEEENS2_INS_13CwiseBinaryOpINS0_13scalar_sum_opIddEEKNS6_INS0_17scalar_product_opIddEEKNS_14CwiseNullaryOpINS0_18scalar_constant_opIdEEKS4_EESE_EESI_EEEENS0_9assign_opIddEELi0EE11assignCoeffEi>
 800082a:	4630      	mov	r0, r6
 800082c:	b019      	add	sp, #100	@ 0x64
 800082e:	ecbd 8b0a 	vpop	{d8-d12}
 8000832:	bdf0      	pop	{r4, r5, r6, r7, pc}
 8000834:	f008 f94a 	bl	8008acc <acos>
 8000838:	eeb0 9b40 	vmov.f64	d9, d0
 800083c:	f008 fcd8 	bl	80091f0 <sin>
 8000840:	eeb0 bb40 	vmov.f64	d11, d0
 8000844:	ed97 cb00 	vldr	d12, [r7]
 8000848:	ee3a ab4c 	vsub.f64	d10, d10, d12
 800084c:	ee2a 0b09 	vmul.f64	d0, d10, d9
 8000850:	f008 fcce 	bl	80091f0 <sin>
 8000854:	ee80 ab0b 	vdiv.f64	d10, d0, d11
 8000858:	ee2c 0b09 	vmul.f64	d0, d12, d9
 800085c:	f008 fcc8 	bl	80091f0 <sin>
 8000860:	ee80 9b0b 	vdiv.f64	d9, d0, d11
 8000864:	e7b9      	b.n	80007da <_ZNK5Eigen14QuaternionBaseINS_10QuaternionIdLi0EEEE5slerpIS2_EES2_RKdRKNS0_IT_EE+0x62>
 8000866:	bf00      	nop
 8000868:	fffffffe 	.word	0xfffffffe
 800086c:	3fefffff 	.word	0x3fefffff

08000870 <_ZN19ComplementaryFilter7computeERKN5Eigen6MatrixIdLi3ELi1ELi0ELi3ELi1EEES4_S4_RKd>:
 8000870:	e92d 47f0 	stmdb	sp!, {r4, r5, r6, r7, r8, r9, sl, lr}
 8000874:	ed2d 8b08 	vpush	{d8-d11}
 8000878:	b0b4      	sub	sp, #208	@ 0xd0
 800087a:	4692      	mov	sl, r2
 800087c:	460d      	mov	r5, r1
 800087e:	4607      	mov	r7, r0
 8000880:	930d      	str	r3, [sp, #52]	@ 0x34
 8000882:	ae06      	add	r6, sp, #24
 8000884:	a802      	add	r0, sp, #8
 8000886:	2100      	movs	r1, #0
 8000888:	9601      	str	r6, [sp, #4]
 800088a:	f10d 0457 	add.w	r4, sp, #87	@ 0x57
 800088e:	9605      	str	r6, [sp, #20]
 8000890:	f8cd d010 	str.w	sp, [sp, #16]
 8000894:	f024 040f 	bic.w	r4, r4, #15
 8000898:	a33f      	add	r3, pc, #252	@ (adr r3, 8000998 <_ZN19ComplementaryFilter7computeERKN5Eigen6MatrixIdLi3ELi1ELi0ELi3ELi1EEES4_S4_RKd+0x128>)
 800089a:	e9d3 2300 	ldrd	r2, r3, [r3]
 800089e:	f104 0840 	add.w	r8, r4, #64	@ 0x40
 80008a2:	f104 0920 	add.w	r9, r4, #32
 80008a6:	e9cd 230e 	strd	r2, r3, [sp, #56]	@ 0x38
 80008aa:	aa01      	add	r2, sp, #4
 80008ac:	9202      	str	r2, [sp, #8]
 80008ae:	aa0c      	add	r2, sp, #48	@ 0x30
 80008b0:	9203      	str	r2, [sp, #12]
 80008b2:	f7ff feed 	bl	8000690 <_ZN5Eigen8internal31generic_dense_assignment_kernelINS0_9evaluatorINS_6MatrixIdLi3ELi1ELi0ELi3ELi1EEEEENS2_INS_13CwiseBinaryOpINS0_17scalar_product_opIddEEKS4_KNS_14CwiseNullaryOpINS0_18scalar_constant_opIdEES9_EEEEEENS0_9assign_opIddEELi0EE11assignCoeffEi>
 80008b6:	a802      	add	r0, sp, #8
 80008b8:	2101      	movs	r1, #1
 80008ba:	f7ff fee9 	bl	8000690 <_ZN5Eigen8internal31generic_dense_assignment_kernelINS0_9evaluatorINS_6MatrixIdLi3ELi1ELi0ELi3ELi1EEEEENS2_INS_13CwiseBinaryOpINS0_17scalar_product_opIddEEKS4_KNS_14CwiseNullaryOpINS0_18scalar_constant_opIdEES9_EEEEEENS0_9assign_opIddEELi0EE11assignCoeffEi>
 80008be:	a802      	add	r0, sp, #8
 80008c0:	2102      	movs	r1, #2
 80008c2:	f7ff fee5 	bl	8000690 <_ZN5Eigen8internal31generic_dense_assignment_kernelINS0_9evaluatorINS_6MatrixIdLi3ELi1ELi0ELi3ELi1EEEEENS2_INS_13CwiseBinaryOpINS0_17scalar_product_opIddEEKS4_KNS_14CwiseNullaryOpINS0_18scalar_constant_opIdEES9_EEEEEENS0_9assign_opIddEELi0EE11assignCoeffEi>
 80008c6:	9a45      	ldr	r2, [sp, #276]	@ 0x114
 80008c8:	4631      	mov	r1, r6
 80008ca:	f104 0060 	add.w	r0, r4, #96	@ 0x60
 80008ce:	f105 0610 	add.w	r6, r5, #16
 80008d2:	ed92 0b00 	vldr	d0, [r2]
 80008d6:	f000 fec3 	bl	8001660 <_ZN5Utils16gyroToQuaternionERKN5Eigen6MatrixIdLi3ELi1ELi0ELi3ELi1EEEd>
 80008da:	4640      	mov	r0, r8
 80008dc:	ed94 7b1e 	vldr	d7, [r4, #120]	@ 0x78
 80008e0:	ed95 3b04 	vldr	d3, [r5, #16]
 80008e4:	ed94 5b18 	vldr	d5, [r4, #96]	@ 0x60
 80008e8:	ed95 1b0a 	vldr	d1, [r5, #40]	@ 0x28
 80008ec:	ee27 bb03 	vmul.f64	d11, d7, d3
 80008f0:	ee25 9b43 	vnmul.f64	d9, d5, d3
 80008f4:	eea1 bb05 	vfma.f64	d11, d1, d5
 80008f8:	eea1 9b07 	vfma.f64	d9, d1, d7
 80008fc:	ed95 6b06 	vldr	d6, [r5, #24]
 8000900:	ed94 4b1a 	vldr	d4, [r4, #104]	@ 0x68
 8000904:	ed94 2b1c 	vldr	d2, [r4, #112]	@ 0x70
 8000908:	ee27 ab06 	vmul.f64	d10, d7, d6
 800090c:	eea6 9b44 	vfms.f64	d9, d6, d4
 8000910:	eea6 bb02 	vfma.f64	d11, d6, d2
 8000914:	eea1 ab04 	vfma.f64	d10, d1, d4
 8000918:	ed95 8b08 	vldr	d8, [r5, #32]
 800091c:	eea8 9b42 	vfms.f64	d9, d8, d2
 8000920:	eea4 bb48 	vfms.f64	d11, d4, d8
 8000924:	eea5 ab08 	vfma.f64	d10, d5, d8
 8000928:	ee27 8b08 	vmul.f64	d8, d7, d8
 800092c:	eea1 8b02 	vfma.f64	d8, d1, d2
 8000930:	eea3 ab42 	vfms.f64	d10, d3, d2
 8000934:	eea3 8b04 	vfma.f64	d8, d3, d4
 8000938:	eea5 8b46 	vfms.f64	d8, d5, d6
 800093c:	f7ff fe98 	bl	8000670 <_ZN5Eigen8internal11plain_arrayIdLi4ELi0ELi16EEC1Ev>
 8000940:	9a44      	ldr	r2, [sp, #272]	@ 0x110
 8000942:	4651      	mov	r1, sl
 8000944:	4648      	mov	r0, r9
 8000946:	ed84 bb10 	vstr	d11, [r4, #64]	@ 0x40
 800094a:	ed84 ab12 	vstr	d10, [r4, #72]	@ 0x48
 800094e:	ed84 9b16 	vstr	d9, [r4, #88]	@ 0x58
 8000952:	ed84 8b14 	vstr	d8, [r4, #80]	@ 0x50
 8000956:	f000 fee1 	bl	800171c <_ZN5Utils18accMagToQuaternionERKN5Eigen6MatrixIdLi3ELi1ELi0ELi3ELi1EEES4_>
 800095a:	464b      	mov	r3, r9
 800095c:	f105 0230 	add.w	r2, r5, #48	@ 0x30
 8000960:	4641      	mov	r1, r8
 8000962:	4620      	mov	r0, r4
 8000964:	f7ff ff08 	bl	8000778 <_ZNK5Eigen14QuaternionBaseINS_10QuaternionIdLi0EEEE5slerpIS2_EES2_RKdRKNS0_IT_EE>
 8000968:	cc0f      	ldmia	r4!, {r0, r1, r2, r3}
 800096a:	c60f      	stmia	r6!, {r0, r1, r2, r3}
 800096c:	e894 000f 	ldmia.w	r4, {r0, r1, r2, r3}
 8000970:	f105 0410 	add.w	r4, r5, #16
 8000974:	463d      	mov	r5, r7
 8000976:	e886 000f 	stmia.w	r6, {r0, r1, r2, r3}
 800097a:	4620      	mov	r0, r4
 800097c:	f7ff fea8 	bl	80006d0 <_ZN5Eigen10MatrixBaseINS_6MatrixIdLi4ELi1ELi0ELi4ELi1EEEE9normalizeEv>
 8000980:	cc0f      	ldmia	r4!, {r0, r1, r2, r3}
 8000982:	c50f      	stmia	r5!, {r0, r1, r2, r3}
 8000984:	e894 000f 	ldmia.w	r4, {r0, r1, r2, r3}
 8000988:	e885 000f 	stmia.w	r5, {r0, r1, r2, r3}
 800098c:	4638      	mov	r0, r7
 800098e:	b034      	add	sp, #208	@ 0xd0
 8000990:	ecbd 8b08 	vpop	{d8-d11}
 8000994:	e8bd 87f0 	ldmia.w	sp!, {r4, r5, r6, r7, r8, r9, sl, pc}
 8000998:	a2529d39 	.word	0xa2529d39
 800099c:	3f91df46 	.word	0x3f91df46

080009a0 <_ZN5Eigen6MatrixIdLi4ELi1ELi0ELi4ELi1EEC1ERKdS3_S3_S3_>:
 80009a0:	b5d0      	push	{r4, r6, r7, lr}
 80009a2:	0706      	lsls	r6, r0, #28
 80009a4:	d005      	beq.n	80009b2 <_ZN5Eigen6MatrixIdLi4ELi1ELi0ELi4ELi1EEC1ERKdS3_S3_S3_+0x12>
 80009a6:	4b0c      	ldr	r3, [pc, #48]	@ (80009d8 <_ZN5Eigen6MatrixIdLi4ELi1ELi0ELi4ELi1EEC1ERKdS3_S3_S3_+0x38>)
 80009a8:	216d      	movs	r1, #109	@ 0x6d
 80009aa:	4a0c      	ldr	r2, [pc, #48]	@ (80009dc <_ZN5Eigen6MatrixIdLi4ELi1ELi0ELi4ELi1EEC1ERKdS3_S3_S3_+0x3c>)
 80009ac:	480c      	ldr	r0, [pc, #48]	@ (80009e0 <_ZN5Eigen6MatrixIdLi4ELi1ELi0ELi4ELi1EEC1ERKdS3_S3_S3_+0x40>)
 80009ae:	f009 f9ef 	bl	8009d90 <__assert_func>
 80009b2:	e9d1 6700 	ldrd	r6, r7, [r1]
 80009b6:	e9c0 6700 	strd	r6, r7, [r0]
 80009ba:	e9d2 6700 	ldrd	r6, r7, [r2]
 80009be:	e9d3 2300 	ldrd	r2, r3, [r3]
 80009c2:	e9c0 6702 	strd	r6, r7, [r0, #8]
 80009c6:	e9c0 2304 	strd	r2, r3, [r0, #16]
 80009ca:	9b04      	ldr	r3, [sp, #16]
 80009cc:	e9d3 2300 	ldrd	r2, r3, [r3]
 80009d0:	e9c0 2306 	strd	r2, r3, [r0, #24]
 80009d4:	bdd0      	pop	{r4, r6, r7, pc}
 80009d6:	bf00      	nop
 80009d8:	0800b0a8 	.word	0x0800b0a8
 80009dc:	0800b197 	.word	0x0800b197
 80009e0:	0800b224 	.word	0x0800b224
 80009e4:	00000000 	.word	0x00000000

080009e8 <_ZN14MadgwickFilter7computeERKN5Eigen6MatrixIdLi3ELi1ELi0ELi3ELi1EEES4_S4_RKd>:
 80009e8:	e92d 4ff0 	stmdb	sp!, {r4, r5, r6, r7, r8, r9, sl, fp, lr}
 80009ec:	ed2d 8b0e 	vpush	{d8-d14}
 80009f0:	b0cb      	sub	sp, #300	@ 0x12c
 80009f2:	4691      	mov	r9, r2
 80009f4:	4688      	mov	r8, r1
 80009f6:	4683      	mov	fp, r0
 80009f8:	ad12      	add	r5, sp, #72	@ 0x48
 80009fa:	f10d 0a18 	add.w	sl, sp, #24
 80009fe:	ae04      	add	r6, sp, #16
 8000a00:	af0c      	add	r7, sp, #48	@ 0x30
 8000a02:	9313      	str	r3, [sp, #76]	@ 0x4c
 8000a04:	a808      	add	r0, sp, #32
 8000a06:	2100      	movs	r1, #0
 8000a08:	9509      	str	r5, [sp, #36]	@ 0x24
 8000a0a:	f10d 046f 	add.w	r4, sp, #111	@ 0x6f
 8000a0e:	9706      	str	r7, [sp, #24]
 8000a10:	f8cd a020 	str.w	sl, [sp, #32]
 8000a14:	eeb6 db00 	vmov.f64	d13, #96	@ 0x3f000000  0.5
 8000a18:	f024 040f 	bic.w	r4, r4, #15
 8000a1c:	eeb9 eb00 	vmov.f64	d14, #144	@ 0xc0800000 -4.0
 8000a20:	a3a7      	add	r3, pc, #668	@ (adr r3, 8000cc0 <_ZN14MadgwickFilter7computeERKN5Eigen6MatrixIdLi3ELi1ELi0ELi3ELi1EEES4_S4_RKd+0x2d8>)
 8000a22:	e9d3 2300 	ldrd	r2, r3, [r3]
 8000a26:	e9cd 670a 	strd	r6, r7, [sp, #40]	@ 0x28
 8000a2a:	e9cd 2314 	strd	r2, r3, [sp, #80]	@ 0x50
 8000a2e:	f7ff fe2f 	bl	8000690 <_ZN5Eigen8internal31generic_dense_assignment_kernelINS0_9evaluatorINS_6MatrixIdLi3ELi1ELi0ELi3ELi1EEEEENS2_INS_13CwiseBinaryOpINS0_17scalar_product_opIddEEKS4_KNS_14CwiseNullaryOpINS0_18scalar_constant_opIdEES9_EEEEEENS0_9assign_opIddEELi0EE11assignCoeffEi>
 8000a32:	a808      	add	r0, sp, #32
 8000a34:	2101      	movs	r1, #1
 8000a36:	f7ff fe2b 	bl	8000690 <_ZN5Eigen8internal31generic_dense_assignment_kernelINS0_9evaluatorINS_6MatrixIdLi3ELi1ELi0ELi3ELi1EEEEENS2_INS_13CwiseBinaryOpINS0_17scalar_product_opIddEEKS4_KNS_14CwiseNullaryOpINS0_18scalar_constant_opIdEES9_EEEEEENS0_9assign_opIddEELi0EE11assignCoeffEi>
 8000a3a:	a808      	add	r0, sp, #32
 8000a3c:	2102      	movs	r1, #2
 8000a3e:	f7ff fe27 	bl	8000690 <_ZN5Eigen8internal31generic_dense_assignment_kernelINS0_9evaluatorINS_6MatrixIdLi3ELi1ELi0ELi3ELi1EEEEENS2_INS_13CwiseBinaryOpINS0_17scalar_product_opIddEEKS4_KNS_14CwiseNullaryOpINS0_18scalar_constant_opIdEES9_EEEEEENS0_9assign_opIddEELi0EE11assignCoeffEi>
 8000a42:	f108 0e10 	add.w	lr, r8, #16
 8000a46:	f104 0ca0 	add.w	ip, r4, #160	@ 0xa0
 8000a4a:	f108 0810 	add.w	r8, r8, #16
 8000a4e:	e8be 000f 	ldmia.w	lr!, {r0, r1, r2, r3}
 8000a52:	ed9f ab97 	vldr	d10, [pc, #604]	@ 8000cb0 <_ZN14MadgwickFilter7computeERKN5Eigen6MatrixIdLi3ELi1ELi0ELi3ELi1EEES4_S4_RKd+0x2c8>
 8000a56:	e8ac 000f 	stmia.w	ip!, {r0, r1, r2, r3}
 8000a5a:	e89e 000f 	ldmia.w	lr, {r0, r1, r2, r3}
 8000a5e:	e88c 000f 	stmia.w	ip, {r0, r1, r2, r3}
 8000a62:	462b      	mov	r3, r5
 8000a64:	aa08      	add	r2, sp, #32
 8000a66:	4651      	mov	r1, sl
 8000a68:	f104 0080 	add.w	r0, r4, #128	@ 0x80
 8000a6c:	9600      	str	r6, [sp, #0]
 8000a6e:	ed8d ab04 	vstr	d10, [sp, #16]
 8000a72:	ed8d ab06 	vstr	d10, [sp, #24]
 8000a76:	ed8d ab08 	vstr	d10, [sp, #32]
 8000a7a:	ed8d ab12 	vstr	d10, [sp, #72]	@ 0x48
 8000a7e:	f7ff ff8f 	bl	80009a0 <_ZN5Eigen6MatrixIdLi4ELi1ELi0ELi4ELi1EEC1ERKdS3_S3_S3_>
 8000a82:	f104 0360 	add.w	r3, r4, #96	@ 0x60
 8000a86:	f109 0208 	add.w	r2, r9, #8
 8000a8a:	4649      	mov	r1, r9
 8000a8c:	9302      	str	r3, [sp, #8]
 8000a8e:	f109 0310 	add.w	r3, r9, #16
 8000a92:	9500      	str	r5, [sp, #0]
 8000a94:	f104 0920 	add.w	r9, r4, #32
 8000a98:	9802      	ldr	r0, [sp, #8]
 8000a9a:	ed8d ab12 	vstr	d10, [sp, #72]	@ 0x48
 8000a9e:	f7ff ff7f 	bl	80009a0 <_ZN5Eigen6MatrixIdLi4ELi1ELi0ELi4ELi1EEC1ERKdS3_S3_S3_>
 8000aa2:	f104 0340 	add.w	r3, r4, #64	@ 0x40
 8000aa6:	aa08      	add	r2, sp, #32
 8000aa8:	4651      	mov	r1, sl
 8000aaa:	9303      	str	r3, [sp, #12]
 8000aac:	462b      	mov	r3, r5
 8000aae:	9803      	ldr	r0, [sp, #12]
 8000ab0:	9600      	str	r6, [sp, #0]
 8000ab2:	ed8d ab04 	vstr	d10, [sp, #16]
 8000ab6:	ed8d ab06 	vstr	d10, [sp, #24]
 8000aba:	ed8d ab08 	vstr	d10, [sp, #32]
 8000abe:	ed8d ab12 	vstr	d10, [sp, #72]	@ 0x48
 8000ac2:	f7ff ff6d 	bl	80009a0 <_ZN5Eigen6MatrixIdLi4ELi1ELi0ELi4ELi1EEC1ERKdS3_S3_S3_>
 8000ac6:	ab10      	add	r3, sp, #64	@ 0x40
 8000ac8:	aa0e      	add	r2, sp, #56	@ 0x38
 8000aca:	4639      	mov	r1, r7
 8000acc:	9500      	str	r5, [sp, #0]
 8000ace:	4648      	mov	r0, r9
 8000ad0:	ed8d ab12 	vstr	d10, [sp, #72]	@ 0x48
 8000ad4:	f7ff ff64 	bl	80009a0 <_ZN5Eigen6MatrixIdLi4ELi1ELi0ELi4ELi1EEC1ERKdS3_S3_S3_>
 8000ad8:	4633      	mov	r3, r6
 8000ada:	4652      	mov	r2, sl
 8000adc:	a908      	add	r1, sp, #32
 8000ade:	4620      	mov	r0, r4
 8000ae0:	ed94 6b08 	vldr	d6, [r4, #32]
 8000ae4:	ed94 8b28 	vldr	d8, [r4, #160]	@ 0xa0
 8000ae8:	ed94 7b0e 	vldr	d7, [r4, #56]	@ 0x38
 8000aec:	ee26 6b0d 	vmul.f64	d6, d6, d13
 8000af0:	ee27 7b0d 	vmul.f64	d7, d7, d13
 8000af4:	ee28 3b46 	vnmul.f64	d3, d8, d6
 8000af8:	ed94 cb2e 	vldr	d12, [r4, #184]	@ 0xb8
 8000afc:	ed94 4b0a 	vldr	d4, [r4, #40]	@ 0x28
 8000b00:	ed94 9b2a 	vldr	d9, [r4, #168]	@ 0xa8
 8000b04:	eea7 3b0c 	vfma.f64	d3, d7, d12
 8000b08:	ee24 4b0d 	vmul.f64	d4, d4, d13
 8000b0c:	ed94 5b0c 	vldr	d5, [r4, #48]	@ 0x30
 8000b10:	ed94 bb2c 	vldr	d11, [r4, #176]	@ 0xb0
 8000b14:	eea4 3b49 	vfms.f64	d3, d4, d9
 8000b18:	9500      	str	r5, [sp, #0]
 8000b1a:	4625      	mov	r5, r4
 8000b1c:	ee25 5b0d 	vmul.f64	d5, d5, d13
 8000b20:	eea5 3b4b 	vfms.f64	d3, d5, d11
 8000b24:	ed8d 3b12 	vstr	d3, [sp, #72]	@ 0x48
 8000b28:	ee27 3b08 	vmul.f64	d3, d7, d8
 8000b2c:	eea6 3b0c 	vfma.f64	d3, d6, d12
 8000b30:	eea5 3b09 	vfma.f64	d3, d5, d9
 8000b34:	eea4 3b4b 	vfms.f64	d3, d4, d11
 8000b38:	ed8d 3b08 	vstr	d3, [sp, #32]
 8000b3c:	ee27 3b09 	vmul.f64	d3, d7, d9
 8000b40:	ee27 7b0b 	vmul.f64	d7, d7, d11
 8000b44:	eea4 3b0c 	vfma.f64	d3, d4, d12
 8000b48:	eea5 7b0c 	vfma.f64	d7, d5, d12
 8000b4c:	eea6 3b0b 	vfma.f64	d3, d6, d11
 8000b50:	eea4 7b08 	vfma.f64	d7, d4, d8
 8000b54:	eea5 3b48 	vfms.f64	d3, d5, d8
 8000b58:	eea6 7b49 	vfms.f64	d7, d6, d9
 8000b5c:	ed8d 3b06 	vstr	d3, [sp, #24]
 8000b60:	ed8d 7b04 	vstr	d7, [sp, #16]
 8000b64:	f7ff ff1c 	bl	80009a0 <_ZN5Eigen6MatrixIdLi4ELi1ELi0ELi4ELi1EEC1ERKdS3_S3_S3_>
 8000b68:	cd0f      	ldmia	r5!, {r0, r1, r2, r3}
 8000b6a:	e8a9 000f 	stmia.w	r9!, {r0, r1, r2, r3}
 8000b6e:	e895 000f 	ldmia.w	r5, {r0, r1, r2, r3}
 8000b72:	e889 000f 	stmia.w	r9, {r0, r1, r2, r3}
 8000b76:	9802      	ldr	r0, [sp, #8]
 8000b78:	f7ff fdaa 	bl	80006d0 <_ZN5Eigen10MatrixBaseINS_6MatrixIdLi4ELi1ELi0ELi4ELi1EEEE9normalizeEv>
 8000b7c:	ee29 6b4c 	vnmul.f64	d6, d9, d12
 8000b80:	9803      	ldr	r0, [sp, #12]
 8000b82:	ee29 7b0b 	vmul.f64	d7, d9, d11
 8000b86:	eea8 6b0b 	vfma.f64	d6, d8, d11
 8000b8a:	eeac 7b08 	vfma.f64	d7, d12, d8
 8000b8e:	eeb0 5b00 	vmov.f64	d5, #0	@ 0x40000000  2.0
 8000b92:	eea8 db48 	vfms.f64	d13, d8, d8
 8000b96:	ee38 0b08 	vadd.f64	d0, d8, d8
 8000b9a:	eeb8 4b00 	vmov.f64	d4, #128	@ 0xc0000000 -2.0
 8000b9e:	ed94 3b18 	vldr	d3, [r4, #96]	@ 0x60
 8000ba2:	ee29 1b04 	vmul.f64	d1, d9, d4
 8000ba6:	ee96 3b05 	vfnms.f64	d3, d6, d5
 8000baa:	eea9 db49 	vfms.f64	d13, d9, d9
 8000bae:	ee2c 4b04 	vmul.f64	d4, d12, d4
 8000bb2:	ed94 6b1a 	vldr	d6, [r4, #104]	@ 0x68
 8000bb6:	ee97 6b05 	vfnms.f64	d6, d7, d5
 8000bba:	ed94 7b1c 	vldr	d7, [r4, #112]	@ 0x70
 8000bbe:	ee9d 7b05 	vfnms.f64	d7, d13, d5
 8000bc2:	ee26 2b00 	vmul.f64	d2, d6, d0
 8000bc6:	ee3b 5b0b 	vadd.f64	d5, d11, d11
 8000bca:	ee28 db0e 	vmul.f64	d13, d8, d14
 8000bce:	eea3 2b01 	vfma.f64	d2, d3, d1
 8000bd2:	ee21 1b46 	vnmul.f64	d1, d1, d6
 8000bd6:	ee29 eb0e 	vmul.f64	d14, d9, d14
 8000bda:	eea7 2b0a 	vfma.f64	d2, d7, d10
 8000bde:	eea3 1b00 	vfma.f64	d1, d3, d0
 8000be2:	ed84 2b16 	vstr	d2, [r4, #88]	@ 0x58
 8000be6:	ee24 2b46 	vnmul.f64	d2, d4, d6
 8000bea:	eea7 1b0a 	vfma.f64	d1, d7, d10
 8000bee:	eea3 2b05 	vfma.f64	d2, d3, d5
 8000bf2:	ee26 5b05 	vmul.f64	d5, d6, d5
 8000bf6:	ed84 1b14 	vstr	d1, [r4, #80]	@ 0x50
 8000bfa:	eea3 5b04 	vfma.f64	d5, d3, d4
 8000bfe:	eea7 2b0d 	vfma.f64	d2, d7, d13
 8000c02:	eea7 5b0e 	vfma.f64	d5, d7, d14
 8000c06:	ed84 2b10 	vstr	d2, [r4, #64]	@ 0x40
 8000c0a:	ed84 5b12 	vstr	d5, [r4, #72]	@ 0x48
 8000c0e:	f7ff fd5f 	bl	80006d0 <_ZN5Eigen10MatrixBaseINS_6MatrixIdLi4ELi1ELi0ELi4ELi1EEEE9normalizeEv>
 8000c12:	9b63      	ldr	r3, [sp, #396]	@ 0x18c
 8000c14:	ed9f 4b28 	vldr	d4, [pc, #160]	@ 8000cb8 <_ZN14MadgwickFilter7computeERKN5Eigen6MatrixIdLi3ELi1ELi0ELi3ELi1EEES4_S4_RKd+0x2d0>
 8000c18:	ed94 2b10 	vldr	d2, [r4, #64]	@ 0x40
 8000c1c:	ed94 6b14 	vldr	d6, [r4, #80]	@ 0x50
 8000c20:	ed94 5b16 	vldr	d5, [r4, #88]	@ 0x58
 8000c24:	ed94 7b12 	vldr	d7, [r4, #72]	@ 0x48
 8000c28:	ee22 2b04 	vmul.f64	d2, d2, d4
 8000c2c:	ee25 5b04 	vmul.f64	d5, d5, d4
 8000c30:	ee27 7b04 	vmul.f64	d7, d7, d4
 8000c34:	ee26 4b04 	vmul.f64	d4, d6, d4
 8000c38:	ed94 6b08 	vldr	d6, [r4, #32]
 8000c3c:	ed84 2b10 	vstr	d2, [r4, #64]	@ 0x40
 8000c40:	ed94 3b0e 	vldr	d3, [r4, #56]	@ 0x38
 8000c44:	ee36 2b42 	vsub.f64	d2, d6, d2
 8000c48:	ed94 6b0a 	vldr	d6, [r4, #40]	@ 0x28
 8000c4c:	ed84 7b12 	vstr	d7, [r4, #72]	@ 0x48
 8000c50:	ed84 5b16 	vstr	d5, [r4, #88]	@ 0x58
 8000c54:	ee36 7b47 	vsub.f64	d7, d6, d7
 8000c58:	ee33 5b45 	vsub.f64	d5, d3, d5
 8000c5c:	ed94 6b0c 	vldr	d6, [r4, #48]	@ 0x30
 8000c60:	ed84 4b14 	vstr	d4, [r4, #80]	@ 0x50
 8000c64:	465c      	mov	r4, fp
 8000c66:	ee36 4b44 	vsub.f64	d4, d6, d4
 8000c6a:	ed93 6b00 	vldr	d6, [r3]
 8000c6e:	eea5 cb06 	vfma.f64	d12, d5, d6
 8000c72:	eea2 8b06 	vfma.f64	d8, d2, d6
 8000c76:	eea7 9b06 	vfma.f64	d9, d7, d6
 8000c7a:	eea4 bb06 	vfma.f64	d11, d4, d6
 8000c7e:	ed88 cb06 	vstr	d12, [r8, #24]
 8000c82:	ed88 8b00 	vstr	d8, [r8]
 8000c86:	ed88 9b02 	vstr	d9, [r8, #8]
 8000c8a:	ed88 bb04 	vstr	d11, [r8, #16]
 8000c8e:	4640      	mov	r0, r8
 8000c90:	f7ff fd1e 	bl	80006d0 <_ZN5Eigen10MatrixBaseINS_6MatrixIdLi4ELi1ELi0ELi4ELi1EEEE9normalizeEv>
 8000c94:	e8b8 000f 	ldmia.w	r8!, {r0, r1, r2, r3}
 8000c98:	c40f      	stmia	r4!, {r0, r1, r2, r3}
 8000c9a:	e898 000f 	ldmia.w	r8, {r0, r1, r2, r3}
 8000c9e:	e884 000f 	stmia.w	r4, {r0, r1, r2, r3}
 8000ca2:	4658      	mov	r0, fp
 8000ca4:	b04b      	add	sp, #300	@ 0x12c
 8000ca6:	ecbd 8b0e 	vpop	{d8-d14}
 8000caa:	e8bd 8ff0 	ldmia.w	sp!, {r4, r5, r6, r7, r8, r9, sl, fp, pc}
 8000cae:	bf00      	nop
	...
 8000cb8:	a79ed7e1 	.word	0xa79ed7e1
 8000cbc:	3fb358e1 	.word	0x3fb358e1
 8000cc0:	a2529d39 	.word	0xa2529d39
 8000cc4:	3f91df46 	.word	0x3f91df46

08000cc8 <_ZN5Eigen8internal31generic_dense_assignment_kernelINS0_9evaluatorINS_6MatrixIdLi3ELi1ELi0ELi3ELi1EEEEENS2_INS_14CwiseNullaryOpINS0_18scalar_constant_opIdEES4_EEEENS0_13mul_assign_opIddEELi0EE11assignCoeffEi>:
 8000cc8:	6803      	ldr	r3, [r0, #0]
 8000cca:	681b      	ldr	r3, [r3, #0]
 8000ccc:	eb03 01c1 	add.w	r1, r3, r1, lsl #3
 8000cd0:	6843      	ldr	r3, [r0, #4]
 8000cd2:	ed91 7b00 	vldr	d7, [r1]
 8000cd6:	ed93 6b00 	vldr	d6, [r3]
 8000cda:	ee27 7b06 	vmul.f64	d7, d7, d6
 8000cde:	ed81 7b00 	vstr	d7, [r1]
 8000ce2:	4770      	bx	lr

08000ce4 <_ZN5Eigen8internal31generic_dense_assignment_kernelINS0_9evaluatorINS_6MatrixIdLi3ELi1ELi0ELi3ELi1EEEEES5_NS0_13add_assign_opIddEELi0EE11assignCoeffEi>:
 8000ce4:	6803      	ldr	r3, [r0, #0]
 8000ce6:	6842      	ldr	r2, [r0, #4]
 8000ce8:	681b      	ldr	r3, [r3, #0]
 8000cea:	6812      	ldr	r2, [r2, #0]
 8000cec:	eb03 03c1 	add.w	r3, r3, r1, lsl #3
 8000cf0:	eb02 02c1 	add.w	r2, r2, r1, lsl #3
 8000cf4:	ed93 7b00 	vldr	d7, [r3]
 8000cf8:	ed92 6b00 	vldr	d6, [r2]
 8000cfc:	ee37 7b06 	vadd.f64	d7, d7, d6
 8000d00:	ed83 7b00 	vstr	d7, [r3]
 8000d04:	4770      	bx	lr

08000d06 <_ZN5Eigen8internal26call_dense_assignment_loopINS_6MatrixIdLi3ELi1ELi0ELi3ELi1EEES3_NS0_13add_assign_opIddEEEEvRT_RKT0_RKT1_>:
 8000d06:	b57f      	push	{r0, r1, r2, r3, r4, r5, r6, lr}
 8000d08:	ab01      	add	r3, sp, #4
 8000d0a:	f8cd d00c 	str.w	sp, [sp, #12]
 8000d0e:	e9cd 2004 	strd	r2, r0, [sp, #16]
 8000d12:	e9cd 1000 	strd	r1, r0, [sp]
 8000d16:	a802      	add	r0, sp, #8
 8000d18:	2100      	movs	r1, #0
 8000d1a:	9302      	str	r3, [sp, #8]
 8000d1c:	f7ff ffe2 	bl	8000ce4 <_ZN5Eigen8internal31generic_dense_assignment_kernelINS0_9evaluatorINS_6MatrixIdLi3ELi1ELi0ELi3ELi1EEEEES5_NS0_13add_assign_opIddEELi0EE11assignCoeffEi>
 8000d20:	a802      	add	r0, sp, #8
 8000d22:	2101      	movs	r1, #1
 8000d24:	f7ff ffde 	bl	8000ce4 <_ZN5Eigen8internal31generic_dense_assignment_kernelINS0_9evaluatorINS_6MatrixIdLi3ELi1ELi0ELi3ELi1EEEEES5_NS0_13add_assign_opIddEELi0EE11assignCoeffEi>
 8000d28:	2102      	movs	r1, #2
 8000d2a:	a802      	add	r0, sp, #8
 8000d2c:	f7ff ffda 	bl	8000ce4 <_ZN5Eigen8internal31generic_dense_assignment_kernelINS0_9evaluatorINS_6MatrixIdLi3ELi1ELi0ELi3ELi1EEEEES5_NS0_13add_assign_opIddEELi0EE11assignCoeffEi>
 8000d30:	b007      	add	sp, #28
 8000d32:	f85d fb04 	ldr.w	pc, [sp], #4

08000d36 <_ZN5Eigen8internal31generic_dense_assignment_kernelINS0_9evaluatorINS_6MatrixIdLi3ELi1ELi0ELi3ELi1EEEEENS2_INS_14CwiseNullaryOpINS0_18scalar_constant_opIdEES4_EEEENS0_13div_assign_opIddEELi0EE11assignCoeffEi>:
 8000d36:	6803      	ldr	r3, [r0, #0]
 8000d38:	681b      	ldr	r3, [r3, #0]
 8000d3a:	eb03 01c1 	add.w	r1, r3, r1, lsl #3
 8000d3e:	6843      	ldr	r3, [r0, #4]
 8000d40:	ed91 5b00 	vldr	d5, [r1]
 8000d44:	ed93 6b00 	vldr	d6, [r3]
 8000d48:	ee85 7b06 	vdiv.f64	d7, d5, d6
 8000d4c:	ed81 7b00 	vstr	d7, [r1]
 8000d50:	4770      	bx	lr

08000d52 <_ZN5Eigen8internal31generic_dense_assignment_kernelINS0_9evaluatorINS_6MatrixIdLi3ELi1ELi0ELi3ELi1EEEEES5_NS0_13sub_assign_opIddEELi0EE11assignCoeffEi>:
 8000d52:	6803      	ldr	r3, [r0, #0]
 8000d54:	6842      	ldr	r2, [r0, #4]
 8000d56:	681b      	ldr	r3, [r3, #0]
 8000d58:	6812      	ldr	r2, [r2, #0]
 8000d5a:	eb03 03c1 	add.w	r3, r3, r1, lsl #3
 8000d5e:	eb02 02c1 	add.w	r2, r2, r1, lsl #3
 8000d62:	ed93 7b00 	vldr	d7, [r3]
 8000d66:	ed92 6b00 	vldr	d6, [r2]
 8000d6a:	ee37 7b46 	vsub.f64	d7, d7, d6
 8000d6e:	ed83 7b00 	vstr	d7, [r3]
 8000d72:	4770      	bx	lr

08000d74 <_ZN5Eigen8internal31generic_dense_assignment_kernelINS0_9evaluatorINS_6MatrixIdLi3ELi1ELi0ELi3ELi1EEEEENS2_INS_13CwiseBinaryOpINS0_18scalar_quotient_opIddEEKS4_KNS_14CwiseNullaryOpINS0_18scalar_constant_opIdEES9_EEEEEENS0_9assign_opIddEELi0EE11assignCoeffEi>:
 8000d74:	b510      	push	{r4, lr}
 8000d76:	e9d0 3400 	ldrd	r3, r4, [r0]
 8000d7a:	6862      	ldr	r2, [r4, #4]
 8000d7c:	681b      	ldr	r3, [r3, #0]
 8000d7e:	eb02 02c1 	add.w	r2, r2, r1, lsl #3
 8000d82:	eb03 03c1 	add.w	r3, r3, r1, lsl #3
 8000d86:	ed92 5b00 	vldr	d5, [r2]
 8000d8a:	ed94 6b02 	vldr	d6, [r4, #8]
 8000d8e:	ee85 7b06 	vdiv.f64	d7, d5, d6
 8000d92:	ed83 7b00 	vstr	d7, [r3]
 8000d96:	bd10      	pop	{r4, pc}

08000d98 <_ZNK5Eigen10MatrixBaseINS_6MatrixIdLi3ELi1ELi0ELi3ELi1EEEE10normalizedEv>:
 8000d98:	ed91 0b04 	vldr	d0, [r1, #16]
 8000d9c:	ed91 6b02 	vldr	d6, [r1, #8]
 8000da0:	ed91 7b00 	vldr	d7, [r1]
 8000da4:	ee20 0b00 	vmul.f64	d0, d0, d0
 8000da8:	b570      	push	{r4, r5, r6, lr}
 8000daa:	eea6 0b06 	vfma.f64	d0, d6, d6
 8000dae:	b08c      	sub	sp, #48	@ 0x30
 8000db0:	4606      	mov	r6, r0
 8000db2:	460c      	mov	r4, r1
 8000db4:	eea7 0b07 	vfma.f64	d0, d7, d7
 8000db8:	eeb5 0bc0 	vcmpe.f64	d0, #0.0
 8000dbc:	eef1 fa10 	vmrs	APSR_nzcv, fpscr
 8000dc0:	dd1b      	ble.n	8000dfa <_ZNK5Eigen10MatrixBaseINS_6MatrixIdLi3ELi1ELi0ELi3ELi1EEEE10normalizedEv+0x62>
 8000dc2:	f008 f8a5 	bl	8008f10 <sqrt>
 8000dc6:	ab01      	add	r3, sp, #4
 8000dc8:	2100      	movs	r1, #0
 8000dca:	a802      	add	r0, sp, #8
 8000dcc:	9302      	str	r3, [sp, #8]
 8000dce:	ab06      	add	r3, sp, #24
 8000dd0:	9407      	str	r4, [sp, #28]
 8000dd2:	9303      	str	r3, [sp, #12]
 8000dd4:	9601      	str	r6, [sp, #4]
 8000dd6:	f8cd d010 	str.w	sp, [sp, #16]
 8000dda:	9605      	str	r6, [sp, #20]
 8000ddc:	ed8d 0b08 	vstr	d0, [sp, #32]
 8000de0:	f7ff ffc8 	bl	8000d74 <_ZN5Eigen8internal31generic_dense_assignment_kernelINS0_9evaluatorINS_6MatrixIdLi3ELi1ELi0ELi3ELi1EEEEENS2_INS_13CwiseBinaryOpINS0_18scalar_quotient_opIddEEKS4_KNS_14CwiseNullaryOpINS0_18scalar_constant_opIdEES9_EEEEEENS0_9assign_opIddEELi0EE11assignCoeffEi>
 8000de4:	2101      	movs	r1, #1
 8000de6:	a802      	add	r0, sp, #8
 8000de8:	f7ff ffc4 	bl	8000d74 <_ZN5Eigen8internal31generic_dense_assignment_kernelINS0_9evaluatorINS_6MatrixIdLi3ELi1ELi0ELi3ELi1EEEEENS2_INS_13CwiseBinaryOpINS0_18scalar_quotient_opIddEEKS4_KNS_14CwiseNullaryOpINS0_18scalar_constant_opIdEES9_EEEEEENS0_9assign_opIddEELi0EE11assignCoeffEi>
 8000dec:	2102      	movs	r1, #2
 8000dee:	a802      	add	r0, sp, #8
 8000df0:	f7ff ffc0 	bl	8000d74 <_ZN5Eigen8internal31generic_dense_assignment_kernelINS0_9evaluatorINS_6MatrixIdLi3ELi1ELi0ELi3ELi1EEEEENS2_INS_13CwiseBinaryOpINS0_18scalar_quotient_opIddEEKS4_KNS_14CwiseNullaryOpINS0_18scalar_constant_opIdEES9_EEEEEENS0_9assign_opIddEELi0EE11assignCoeffEi>
 8000df4:	4630      	mov	r0, r6
 8000df6:	b00c      	add	sp, #48	@ 0x30
 8000df8:	bd70      	pop	{r4, r5, r6, pc}
 8000dfa:	4605      	mov	r5, r0
 8000dfc:	cc0f      	ldmia	r4!, {r0, r1, r2, r3}
 8000dfe:	c50f      	stmia	r5!, {r0, r1, r2, r3}
 8000e00:	e894 0003 	ldmia.w	r4, {r0, r1}
 8000e04:	e885 0003 	stmia.w	r5, {r0, r1}
 8000e08:	e7f4      	b.n	8000df4 <_ZNK5Eigen10MatrixBaseINS_6MatrixIdLi3ELi1ELi0ELi3ELi1EEEE10normalizedEv+0x5c>

08000e0a <_ZN5Eigen8internal31generic_dense_assignment_kernelINS0_9evaluatorINS_6MatrixIdLi3ELi1ELi0ELi3ELi1EEEEENS2_INS_13CwiseBinaryOpINS0_13scalar_sum_opIddEEKNS6_INS0_17scalar_product_opIddEEKS4_KNS_14CwiseNullaryOpINS0_18scalar_constant_opIdEESB_EEEESI_EEEENS0_9assign_opIddEELi0EE11assignCoeffEi>:
 8000e0a:	6803      	ldr	r3, [r0, #0]
 8000e0c:	681a      	ldr	r2, [r3, #0]
 8000e0e:	6843      	ldr	r3, [r0, #4]
 8000e10:	eb02 02c1 	add.w	r2, r2, r1, lsl #3
 8000e14:	68d8      	ldr	r0, [r3, #12]
 8000e16:	b510      	push	{r4, lr}
 8000e18:	6a5c      	ldr	r4, [r3, #36]	@ 0x24
 8000e1a:	eb00 00c1 	add.w	r0, r0, r1, lsl #3
 8000e1e:	eb04 04c1 	add.w	r4, r4, r1, lsl #3
 8000e22:	ed93 6b0a 	vldr	d6, [r3, #40]	@ 0x28
 8000e26:	ed94 7b00 	vldr	d7, [r4]
 8000e2a:	ed93 5b04 	vldr	d5, [r3, #16]
 8000e2e:	ee27 7b06 	vmul.f64	d7, d7, d6
 8000e32:	ed90 6b00 	vldr	d6, [r0]
 8000e36:	eea5 7b06 	vfma.f64	d7, d5, d6
 8000e3a:	ed82 7b00 	vstr	d7, [r2]
 8000e3e:	bd10      	pop	{r4, pc}

08000e40 <_ZN5Eigen8internal26call_dense_assignment_loopINS_6MatrixIdLi3ELi1ELi0ELi3ELi1EEENS_13CwiseBinaryOpINS0_13scalar_sum_opIddEEKNS4_INS0_17scalar_product_opIddEEKS3_KNS_14CwiseNullaryOpINS0_18scalar_constant_opIdEES9_EEEESG_EENS0_9assign_opIddEEEEvRT_RKT0_RKT1_>:
 8000e40:	b530      	push	{r4, r5, lr}
 8000e42:	688b      	ldr	r3, [r1, #8]
 8000e44:	b095      	sub	sp, #84	@ 0x54
 8000e46:	9309      	str	r3, [sp, #36]	@ 0x24
 8000e48:	6a8b      	ldr	r3, [r1, #40]	@ 0x28
 8000e4a:	9001      	str	r0, [sp, #4]
 8000e4c:	930f      	str	r3, [sp, #60]	@ 0x3c
 8000e4e:	ab01      	add	r3, sp, #4
 8000e50:	9005      	str	r0, [sp, #20]
 8000e52:	a802      	add	r0, sp, #8
 8000e54:	9302      	str	r3, [sp, #8]
 8000e56:	ab06      	add	r3, sp, #24
 8000e58:	e9d1 4506 	ldrd	r4, r5, [r1, #24]
 8000e5c:	e9cd 3203 	strd	r3, r2, [sp, #12]
 8000e60:	e9cd 450a 	strd	r4, r5, [sp, #40]	@ 0x28
 8000e64:	e9d1 450e 	ldrd	r4, r5, [r1, #56]	@ 0x38
 8000e68:	2100      	movs	r1, #0
 8000e6a:	e9cd 4510 	strd	r4, r5, [sp, #64]	@ 0x40
 8000e6e:	f7ff ffcc 	bl	8000e0a <_ZN5Eigen8internal31generic_dense_assignment_kernelINS0_9evaluatorINS_6MatrixIdLi3ELi1ELi0ELi3ELi1EEEEENS2_INS_13CwiseBinaryOpINS0_13scalar_sum_opIddEEKNS6_INS0_17scalar_product_opIddEEKS4_KNS_14CwiseNullaryOpINS0_18scalar_constant_opIdEESB_EEEESI_EEEENS0_9assign_opIddEELi0EE11assignCoeffEi>
 8000e72:	a802      	add	r0, sp, #8
 8000e74:	2101      	movs	r1, #1
 8000e76:	f7ff ffc8 	bl	8000e0a <_ZN5Eigen8internal31generic_dense_assignment_kernelINS0_9evaluatorINS_6MatrixIdLi3ELi1ELi0ELi3ELi1EEEEENS2_INS_13CwiseBinaryOpINS0_13scalar_sum_opIddEEKNS6_INS0_17scalar_product_opIddEEKS4_KNS_14CwiseNullaryOpINS0_18scalar_constant_opIdEESB_EEEESI_EEEENS0_9assign_opIddEELi0EE11assignCoeffEi>
 8000e7a:	2102      	movs	r1, #2
 8000e7c:	a802      	add	r0, sp, #8
 8000e7e:	f7ff ffc4 	bl	8000e0a <_ZN5Eigen8internal31generic_dense_assignment_kernelINS0_9evaluatorINS_6MatrixIdLi3ELi1ELi0ELi3ELi1EEEEENS2_INS_13CwiseBinaryOpINS0_13scalar_sum_opIddEEKNS6_INS0_17scalar_product_opIddEEKS4_KNS_14CwiseNullaryOpINS0_18scalar_constant_opIdEESB_EEEESI_EEEENS0_9assign_opIddEELi0EE11assignCoeffEi>
 8000e82:	b015      	add	sp, #84	@ 0x54
 8000e84:	bd30      	pop	{r4, r5, pc}

08000e86 <_ZN5Eigen8internal31generic_dense_assignment_kernelINS0_9evaluatorINS_6MatrixIdLi3ELi1ELi0ELi3ELi1EEEEES5_NS0_9assign_opIddEELi0EE11assignCoeffEi>:
 8000e86:	6843      	ldr	r3, [r0, #4]
 8000e88:	681b      	ldr	r3, [r3, #0]
 8000e8a:	eb03 03c1 	add.w	r3, r3, r1, lsl #3
 8000e8e:	b530      	push	{r4, r5, lr}
 8000e90:	e9d3 4500 	ldrd	r4, r5, [r3]
 8000e94:	6803      	ldr	r3, [r0, #0]
 8000e96:	681b      	ldr	r3, [r3, #0]
 8000e98:	eb03 03c1 	add.w	r3, r3, r1, lsl #3
 8000e9c:	e9c3 4500 	strd	r4, r5, [r3]
 8000ea0:	bd30      	pop	{r4, r5, pc}

08000ea2 <_ZN5Eigen8internal15call_assignmentINS_6MatrixIdLi3ELi1ELi0ELi3ELi1EEES3_EEvRT_RKT0_>:
 8000ea2:	b500      	push	{lr}
 8000ea4:	b089      	sub	sp, #36	@ 0x24
 8000ea6:	ab03      	add	r3, sp, #12
 8000ea8:	9304      	str	r3, [sp, #16]
 8000eaa:	ab02      	add	r3, sp, #8
 8000eac:	9305      	str	r3, [sp, #20]
 8000eae:	ab01      	add	r3, sp, #4
 8000eb0:	e9cd 1002 	strd	r1, r0, [sp, #8]
 8000eb4:	e9cd 3006 	strd	r3, r0, [sp, #24]
 8000eb8:	2100      	movs	r1, #0
 8000eba:	a804      	add	r0, sp, #16
 8000ebc:	f7ff ffe3 	bl	8000e86 <_ZN5Eigen8internal31generic_dense_assignment_kernelINS0_9evaluatorINS_6MatrixIdLi3ELi1ELi0ELi3ELi1EEEEES5_NS0_9assign_opIddEELi0EE11assignCoeffEi>
 8000ec0:	a804      	add	r0, sp, #16
 8000ec2:	2101      	movs	r1, #1
 8000ec4:	f7ff ffdf 	bl	8000e86 <_ZN5Eigen8internal31generic_dense_assignment_kernelINS0_9evaluatorINS_6MatrixIdLi3ELi1ELi0ELi3ELi1EEEEES5_NS0_9assign_opIddEELi0EE11assignCoeffEi>
 8000ec8:	2102      	movs	r1, #2
 8000eca:	a804      	add	r0, sp, #16
 8000ecc:	f7ff ffdb 	bl	8000e86 <_ZN5Eigen8internal31generic_dense_assignment_kernelINS0_9evaluatorINS_6MatrixIdLi3ELi1ELi0ELi3ELi1EEEEES5_NS0_9assign_opIddEELi0EE11assignCoeffEi>
 8000ed0:	b009      	add	sp, #36	@ 0x24
 8000ed2:	f85d fb04 	ldr.w	pc, [sp], #4
	...

08000ed8 <_ZN7MPU9250C1E19__SPI_HandleTypeDeftP12GPIO_TypeDef>:
 8000ed8:	b084      	sub	sp, #16
 8000eda:	b538      	push	{r3, r4, r5, lr}
 8000edc:	ad05      	add	r5, sp, #20
 8000ede:	4604      	mov	r4, r0
 8000ee0:	e885 000e 	stmia.w	r5, {r1, r2, r3}
 8000ee4:	4629      	mov	r1, r5
 8000ee6:	2288      	movs	r2, #136	@ 0x88
 8000ee8:	f009 f967 	bl	800a1ba <memcpy>
 8000eec:	f8bd 309c 	ldrh.w	r3, [sp, #156]	@ 0x9c
 8000ef0:	2200      	movs	r2, #0
 8000ef2:	f8a4 3088 	strh.w	r3, [r4, #136]	@ 0x88
 8000ef6:	9b28      	ldr	r3, [sp, #160]	@ 0xa0
 8000ef8:	f8c4 308c 	str.w	r3, [r4, #140]	@ 0x8c
 8000efc:	2300      	movs	r3, #0
 8000efe:	a13f      	add	r1, pc, #252	@ (adr r1, 8000ffc <_ZN7MPU9250C1E19__SPI_HandleTypeDeftP12GPIO_TypeDef+0x124>)
 8000f00:	e9d1 0100 	ldrd	r0, r1, [r1]
 8000f04:	e9c4 3324 	strd	r3, r3, [r4, #144]	@ 0x90
 8000f08:	e9c4 3326 	strd	r3, r3, [r4, #152]	@ 0x98
 8000f0c:	e9c4 3328 	strd	r3, r3, [r4, #160]	@ 0xa0
 8000f10:	f8c4 30a8 	str.w	r3, [r4, #168]	@ 0xa8
 8000f14:	4b36      	ldr	r3, [pc, #216]	@ (8000ff0 <_ZN7MPU9250C1E19__SPI_HandleTypeDeftP12GPIO_TypeDef+0x118>)
 8000f16:	e9c4 014a 	strd	r0, r1, [r4, #296]	@ 0x128
 8000f1a:	e9c4 232c 	strd	r2, r3, [r4, #176]	@ 0xb0
 8000f1e:	2000      	movs	r0, #0
 8000f20:	4934      	ldr	r1, [pc, #208]	@ (8000ff4 <_ZN7MPU9250C1E19__SPI_HandleTypeDeftP12GPIO_TypeDef+0x11c>)
 8000f22:	a32b      	add	r3, pc, #172	@ (adr r3, 8000fd0 <_ZN7MPU9250C1E19__SPI_HandleTypeDeftP12GPIO_TypeDef+0xf8>)
 8000f24:	e9d3 2300 	ldrd	r2, r3, [r3]
 8000f28:	e9c4 014c 	strd	r0, r1, [r4, #304]	@ 0x130
 8000f2c:	e9c4 232e 	strd	r2, r3, [r4, #184]	@ 0xb8
 8000f30:	a129      	add	r1, pc, #164	@ (adr r1, 8000fd8 <_ZN7MPU9250C1E19__SPI_HandleTypeDeftP12GPIO_TypeDef+0x100>)
 8000f32:	e9d1 0100 	ldrd	r0, r1, [r1]
 8000f36:	2200      	movs	r2, #0
 8000f38:	4b2f      	ldr	r3, [pc, #188]	@ (8000ff8 <_ZN7MPU9250C1E19__SPI_HandleTypeDeftP12GPIO_TypeDef+0x120>)
 8000f3a:	e9c4 014e 	strd	r0, r1, [r4, #312]	@ 0x138
 8000f3e:	e9c4 2330 	strd	r2, r3, [r4, #192]	@ 0xc0
 8000f42:	a127      	add	r1, pc, #156	@ (adr r1, 8000fe0 <_ZN7MPU9250C1E19__SPI_HandleTypeDeftP12GPIO_TypeDef+0x108>)
 8000f44:	e9d1 0100 	ldrd	r0, r1, [r1]
 8000f48:	2300      	movs	r3, #0
 8000f4a:	2200      	movs	r2, #0
 8000f4c:	e9c4 2332 	strd	r2, r3, [r4, #200]	@ 0xc8
 8000f50:	e9c4 2334 	strd	r2, r3, [r4, #208]	@ 0xd0
 8000f54:	e9c4 2336 	strd	r2, r3, [r4, #216]	@ 0xd8
 8000f58:	e9c4 2338 	strd	r2, r3, [r4, #224]	@ 0xe0
 8000f5c:	e9c4 233a 	strd	r2, r3, [r4, #232]	@ 0xe8
 8000f60:	e9c4 233c 	strd	r2, r3, [r4, #240]	@ 0xf0
 8000f64:	e9c4 233e 	strd	r2, r3, [r4, #248]	@ 0xf8
 8000f68:	e9c4 2340 	strd	r2, r3, [r4, #256]	@ 0x100
 8000f6c:	e9c4 2342 	strd	r2, r3, [r4, #264]	@ 0x108
 8000f70:	e9c4 2344 	strd	r2, r3, [r4, #272]	@ 0x110
 8000f74:	e9c4 2346 	strd	r2, r3, [r4, #280]	@ 0x118
 8000f78:	e9c4 2348 	strd	r2, r3, [r4, #288]	@ 0x120
 8000f7c:	e9c4 2350 	strd	r2, r3, [r4, #320]	@ 0x140
 8000f80:	e9c4 2352 	strd	r2, r3, [r4, #328]	@ 0x148
 8000f84:	e9c4 2354 	strd	r2, r3, [r4, #336]	@ 0x150
 8000f88:	e9c4 2356 	strd	r2, r3, [r4, #344]	@ 0x158
 8000f8c:	e9c4 015c 	strd	r0, r1, [r4, #368]	@ 0x170
 8000f90:	a115      	add	r1, pc, #84	@ (adr r1, 8000fe8 <_ZN7MPU9250C1E19__SPI_HandleTypeDeftP12GPIO_TypeDef+0x110>)
 8000f92:	e9d1 0100 	ldrd	r0, r1, [r1]
 8000f96:	e9c4 2358 	strd	r2, r3, [r4, #352]	@ 0x160
 8000f9a:	e9c4 016a 	strd	r0, r1, [r4, #424]	@ 0x1a8
 8000f9e:	e9c4 235a 	strd	r2, r3, [r4, #360]	@ 0x168
 8000fa2:	4620      	mov	r0, r4
 8000fa4:	e9c4 235e 	strd	r2, r3, [r4, #376]	@ 0x178
 8000fa8:	e9c4 2360 	strd	r2, r3, [r4, #384]	@ 0x180
 8000fac:	e9c4 2362 	strd	r2, r3, [r4, #392]	@ 0x188
 8000fb0:	e9c4 2364 	strd	r2, r3, [r4, #400]	@ 0x190
 8000fb4:	e9c4 2366 	strd	r2, r3, [r4, #408]	@ 0x198
 8000fb8:	e9c4 2368 	strd	r2, r3, [r4, #416]	@ 0x1a0
 8000fbc:	e9c4 236c 	strd	r2, r3, [r4, #432]	@ 0x1b0
 8000fc0:	e9c4 236e 	strd	r2, r3, [r4, #440]	@ 0x1b8
 8000fc4:	e8bd 4038 	ldmia.w	sp!, {r3, r4, r5, lr}
 8000fc8:	b004      	add	sp, #16
 8000fca:	4770      	bx	lr
 8000fcc:	f3af 8000 	nop.w
 8000fd0:	00000000 	.word	0x00000000
 8000fd4:	40606000 	.word	0x40606000
 8000fd8:	eb851eb8 	.word	0xeb851eb8
 8000fdc:	bfbeb851 	.word	0xbfbeb851
 8000fe0:	9999999a 	.word	0x9999999a
 8000fe4:	3fb99999 	.word	0x3fb99999
 8000fe8:	47ae147b 	.word	0x47ae147b
 8000fec:	3f847ae1 	.word	0x3f847ae1
 8000ff0:	40d00000 	.word	0x40d00000
 8000ff4:	3ffc0000 	.word	0x3ffc0000
 8000ff8:	3ff00000 	.word	0x3ff00000
 8000ffc:	8f5c28f6 	.word	0x8f5c28f6
 8001000:	3ff8f5c2 	.word	0x3ff8f5c2

08001004 <_ZN7MPU925016handle_spi_errorE17HAL_StatusTypeDef>:
 8001004:	2903      	cmp	r1, #3
 8001006:	b510      	push	{r4, lr}
 8001008:	4604      	mov	r4, r0
 800100a:	d106      	bne.n	800101a <_ZN7MPU925016handle_spi_errorE17HAL_StatusTypeDef+0x16>
 800100c:	f006 ff32 	bl	8007e74 <HAL_SPI_DeInit>
 8001010:	4620      	mov	r0, r4
 8001012:	e8bd 4010 	ldmia.w	sp!, {r4, lr}
 8001016:	f006 be89 	b.w	8007d2c <HAL_SPI_Init>
 800101a:	bd10      	pop	{r4, pc}

0800101c <_ZN7MPU925013read_registerEhPhh>:
 800101c:	b573      	push	{r0, r1, r4, r5, r6, lr}
 800101e:	f061 017f 	orn	r1, r1, #127	@ 0x7f
 8001022:	4604      	mov	r4, r0
 8001024:	4615      	mov	r5, r2
 8001026:	2200      	movs	r2, #0
 8001028:	f88d 1007 	strb.w	r1, [sp, #7]
 800102c:	461e      	mov	r6, r3
 800102e:	f8b0 1088 	ldrh.w	r1, [r0, #136]	@ 0x88
 8001032:	f8d0 008c 	ldr.w	r0, [r0, #140]	@ 0x8c
 8001036:	f005 fa01 	bl	800643c <HAL_GPIO_WritePin>
 800103a:	f10d 0107 	add.w	r1, sp, #7
 800103e:	2364      	movs	r3, #100	@ 0x64
 8001040:	2201      	movs	r2, #1
 8001042:	4620      	mov	r0, r4
 8001044:	f006 ff2d 	bl	8007ea2 <HAL_SPI_Transmit>
 8001048:	4601      	mov	r1, r0
 800104a:	b110      	cbz	r0, 8001052 <_ZN7MPU925013read_registerEhPhh+0x36>
 800104c:	4620      	mov	r0, r4
 800104e:	f7ff ffd9 	bl	8001004 <_ZN7MPU925016handle_spi_errorE17HAL_StatusTypeDef>
 8001052:	4629      	mov	r1, r5
 8001054:	2364      	movs	r3, #100	@ 0x64
 8001056:	4632      	mov	r2, r6
 8001058:	4620      	mov	r0, r4
 800105a:	f007 f83c 	bl	80080d6 <HAL_SPI_Receive>
 800105e:	4601      	mov	r1, r0
 8001060:	b110      	cbz	r0, 8001068 <_ZN7MPU925013read_registerEhPhh+0x4c>
 8001062:	4620      	mov	r0, r4
 8001064:	f7ff ffce 	bl	8001004 <_ZN7MPU925016handle_spi_errorE17HAL_StatusTypeDef>
 8001068:	2201      	movs	r2, #1
 800106a:	f8b4 1088 	ldrh.w	r1, [r4, #136]	@ 0x88
 800106e:	f8d4 008c 	ldr.w	r0, [r4, #140]	@ 0x8c
 8001072:	f005 f9e3 	bl	800643c <HAL_GPIO_WritePin>
 8001076:	b002      	add	sp, #8
 8001078:	bd70      	pop	{r4, r5, r6, pc}

0800107a <_ZN7MPU925014write_registerEhh>:
 800107a:	b513      	push	{r0, r1, r4, lr}
 800107c:	4604      	mov	r4, r0
 800107e:	f88d 1007 	strb.w	r1, [sp, #7]
 8001082:	f88d 2006 	strb.w	r2, [sp, #6]
 8001086:	2200      	movs	r2, #0
 8001088:	f8b0 1088 	ldrh.w	r1, [r0, #136]	@ 0x88
 800108c:	f8d0 008c 	ldr.w	r0, [r0, #140]	@ 0x8c
 8001090:	f005 f9d4 	bl	800643c <HAL_GPIO_WritePin>
 8001094:	f10d 0107 	add.w	r1, sp, #7
 8001098:	2364      	movs	r3, #100	@ 0x64
 800109a:	2201      	movs	r2, #1
 800109c:	4620      	mov	r0, r4
 800109e:	f006 ff00 	bl	8007ea2 <HAL_SPI_Transmit>
 80010a2:	4601      	mov	r1, r0
 80010a4:	b110      	cbz	r0, 80010ac <_ZN7MPU925014write_registerEhh+0x32>
 80010a6:	4620      	mov	r0, r4
 80010a8:	f7ff ffac 	bl	8001004 <_ZN7MPU925016handle_spi_errorE17HAL_StatusTypeDef>
 80010ac:	f10d 0106 	add.w	r1, sp, #6
 80010b0:	2364      	movs	r3, #100	@ 0x64
 80010b2:	2201      	movs	r2, #1
 80010b4:	4620      	mov	r0, r4
 80010b6:	f006 fef4 	bl	8007ea2 <HAL_SPI_Transmit>
 80010ba:	4601      	mov	r1, r0
 80010bc:	b110      	cbz	r0, 80010c4 <_ZN7MPU925014write_registerEhh+0x4a>
 80010be:	4620      	mov	r0, r4
 80010c0:	f7ff ffa0 	bl	8001004 <_ZN7MPU925016handle_spi_errorE17HAL_StatusTypeDef>
 80010c4:	2201      	movs	r2, #1
 80010c6:	f8b4 1088 	ldrh.w	r1, [r4, #136]	@ 0x88
 80010ca:	f8d4 008c 	ldr.w	r0, [r4, #140]	@ 0x8c
 80010ce:	f005 f9b5 	bl	800643c <HAL_GPIO_WritePin>
 80010d2:	b002      	add	sp, #8
 80010d4:	bd10      	pop	{r4, pc}
	...

080010d8 <_ZN7MPU925022configureAccelerometerERK8AccScale>:
 80010d8:	680b      	ldr	r3, [r1, #0]
 80010da:	b510      	push	{r4, lr}
 80010dc:	4604      	mov	r4, r0
 80010de:	f8c0 30a4 	str.w	r3, [r0, #164]	@ 0xa4
 80010e2:	200a      	movs	r0, #10
 80010e4:	f004 ff6c 	bl	8005fc0 <HAL_Delay>
 80010e8:	f8d4 30a4 	ldr.w	r3, [r4, #164]	@ 0xa4
 80010ec:	2b03      	cmp	r3, #3
 80010ee:	d80c      	bhi.n	800110a <_ZN7MPU925022configureAccelerometerERK8AccScale+0x32>
 80010f0:	e8df f003 	tbb	[pc, r3]
 80010f4:	20181002 	.word	0x20181002
 80010f8:	2200      	movs	r2, #0
 80010fa:	211c      	movs	r1, #28
 80010fc:	4620      	mov	r0, r4
 80010fe:	f7ff ffbc 	bl	800107a <_ZN7MPU925014write_registerEhh>
 8001102:	2200      	movs	r2, #0
 8001104:	4b0f      	ldr	r3, [pc, #60]	@ (8001144 <_ZN7MPU925022configureAccelerometerERK8AccScale+0x6c>)
 8001106:	e9c4 232c 	strd	r2, r3, [r4, #176]	@ 0xb0
 800110a:	200a      	movs	r0, #10
 800110c:	e8bd 4010 	ldmia.w	sp!, {r4, lr}
 8001110:	f004 bf56 	b.w	8005fc0 <HAL_Delay>
 8001114:	2208      	movs	r2, #8
 8001116:	211c      	movs	r1, #28
 8001118:	4620      	mov	r0, r4
 800111a:	f7ff ffae 	bl	800107a <_ZN7MPU925014write_registerEhh>
 800111e:	2200      	movs	r2, #0
 8001120:	4b09      	ldr	r3, [pc, #36]	@ (8001148 <_ZN7MPU925022configureAccelerometerERK8AccScale+0x70>)
 8001122:	e7f0      	b.n	8001106 <_ZN7MPU925022configureAccelerometerERK8AccScale+0x2e>
 8001124:	2210      	movs	r2, #16
 8001126:	211c      	movs	r1, #28
 8001128:	4620      	mov	r0, r4
 800112a:	f7ff ffa6 	bl	800107a <_ZN7MPU925014write_registerEhh>
 800112e:	2200      	movs	r2, #0
 8001130:	4b06      	ldr	r3, [pc, #24]	@ (800114c <_ZN7MPU925022configureAccelerometerERK8AccScale+0x74>)
 8001132:	e7e8      	b.n	8001106 <_ZN7MPU925022configureAccelerometerERK8AccScale+0x2e>
 8001134:	2218      	movs	r2, #24
 8001136:	211c      	movs	r1, #28
 8001138:	4620      	mov	r0, r4
 800113a:	f7ff ff9e 	bl	800107a <_ZN7MPU925014write_registerEhh>
 800113e:	2200      	movs	r2, #0
 8001140:	4b03      	ldr	r3, [pc, #12]	@ (8001150 <_ZN7MPU925022configureAccelerometerERK8AccScale+0x78>)
 8001142:	e7e0      	b.n	8001106 <_ZN7MPU925022configureAccelerometerERK8AccScale+0x2e>
 8001144:	40d00000 	.word	0x40d00000
 8001148:	40c00000 	.word	0x40c00000
 800114c:	40b00000 	.word	0x40b00000
 8001150:	40a00000 	.word	0x40a00000
 8001154:	00000000 	.word	0x00000000

08001158 <_ZN7MPU925018configureGyroscopeERK9GyroScale>:
 8001158:	680b      	ldr	r3, [r1, #0]
 800115a:	b510      	push	{r4, lr}
 800115c:	4604      	mov	r4, r0
 800115e:	f8c0 30a8 	str.w	r3, [r0, #168]	@ 0xa8
 8001162:	200a      	movs	r0, #10
 8001164:	f004 ff2c 	bl	8005fc0 <HAL_Delay>
 8001168:	f8d4 30a8 	ldr.w	r3, [r4, #168]	@ 0xa8
 800116c:	2b03      	cmp	r3, #3
 800116e:	d80d      	bhi.n	800118c <_ZN7MPU925018configureGyroscopeERK9GyroScale+0x34>
 8001170:	e8df f003 	tbb	[pc, r3]
 8001174:	231a1102 	.word	0x231a1102
 8001178:	2200      	movs	r2, #0
 800117a:	211b      	movs	r1, #27
 800117c:	4620      	mov	r0, r4
 800117e:	f7ff ff7c 	bl	800107a <_ZN7MPU925014write_registerEhh>
 8001182:	a313      	add	r3, pc, #76	@ (adr r3, 80011d0 <_ZN7MPU925018configureGyroscopeERK9GyroScale+0x78>)
 8001184:	e9d3 2300 	ldrd	r2, r3, [r3]
 8001188:	e9c4 232e 	strd	r2, r3, [r4, #184]	@ 0xb8
 800118c:	200a      	movs	r0, #10
 800118e:	e8bd 4010 	ldmia.w	sp!, {r4, lr}
 8001192:	f004 bf15 	b.w	8005fc0 <HAL_Delay>
 8001196:	2208      	movs	r2, #8
 8001198:	211b      	movs	r1, #27
 800119a:	4620      	mov	r0, r4
 800119c:	f7ff ff6d 	bl	800107a <_ZN7MPU925014write_registerEhh>
 80011a0:	a30d      	add	r3, pc, #52	@ (adr r3, 80011d8 <_ZN7MPU925018configureGyroscopeERK9GyroScale+0x80>)
 80011a2:	e9d3 2300 	ldrd	r2, r3, [r3]
 80011a6:	e7ef      	b.n	8001188 <_ZN7MPU925018configureGyroscopeERK9GyroScale+0x30>
 80011a8:	2210      	movs	r2, #16
 80011aa:	211b      	movs	r1, #27
 80011ac:	4620      	mov	r0, r4
 80011ae:	f7ff ff64 	bl	800107a <_ZN7MPU925014write_registerEhh>
 80011b2:	a30b      	add	r3, pc, #44	@ (adr r3, 80011e0 <_ZN7MPU925018configureGyroscopeERK9GyroScale+0x88>)
 80011b4:	e9d3 2300 	ldrd	r2, r3, [r3]
 80011b8:	e7e6      	b.n	8001188 <_ZN7MPU925018configureGyroscopeERK9GyroScale+0x30>
 80011ba:	2218      	movs	r2, #24
 80011bc:	211b      	movs	r1, #27
 80011be:	4620      	mov	r0, r4
 80011c0:	f7ff ff5b 	bl	800107a <_ZN7MPU925014write_registerEhh>
 80011c4:	a308      	add	r3, pc, #32	@ (adr r3, 80011e8 <_ZN7MPU925018configureGyroscopeERK9GyroScale+0x90>)
 80011c6:	e9d3 2300 	ldrd	r2, r3, [r3]
 80011ca:	e7dd      	b.n	8001188 <_ZN7MPU925018configureGyroscopeERK9GyroScale+0x30>
 80011cc:	f3af 8000 	nop.w
 80011d0:	00000000 	.word	0x00000000
 80011d4:	40606000 	.word	0x40606000
 80011d8:	00000000 	.word	0x00000000
 80011dc:	40506000 	.word	0x40506000
 80011e0:	66666666 	.word	0x66666666
 80011e4:	40406666 	.word	0x40406666
 80011e8:	66666666 	.word	0x66666666
 80011ec:	40306666 	.word	0x40306666

080011f0 <_ZN7MPU925018read_gyro_acc_dataEv>:
 80011f0:	b510      	push	{r4, lr}
 80011f2:	b08e      	sub	sp, #56	@ 0x38
 80011f4:	230e      	movs	r3, #14
 80011f6:	213b      	movs	r1, #59	@ 0x3b
 80011f8:	4604      	mov	r4, r0
 80011fa:	aa02      	add	r2, sp, #8
 80011fc:	f7ff ff0e 	bl	800101c <_ZN7MPU925013read_registerEhPhh>
 8001200:	f8bd 3008 	ldrh.w	r3, [sp, #8]
 8001204:	34e0      	adds	r4, #224	@ 0xe0
 8001206:	a80a      	add	r0, sp, #40	@ 0x28
 8001208:	ba5b      	rev16	r3, r3
 800120a:	2100      	movs	r1, #0
 800120c:	f8cd d030 	str.w	sp, [sp, #48]	@ 0x30
 8001210:	f824 3c50 	strh.w	r3, [r4, #-80]
 8001214:	b21a      	sxth	r2, r3
 8001216:	f8bd 300a 	ldrh.w	r3, [sp, #10]
 800121a:	ee04 2a10 	vmov	s8, r2
 800121e:	ba5b      	rev16	r3, r3
 8001220:	eeb8 4bc4 	vcvt.f64.s32	d4, s8
 8001224:	f824 3c4e 	strh.w	r3, [r4, #-78]
 8001228:	b21a      	sxth	r2, r3
 800122a:	f8bd 300c 	ldrh.w	r3, [sp, #12]
 800122e:	ee05 2a10 	vmov	s10, r2
 8001232:	ba5b      	rev16	r3, r3
 8001234:	eeb8 5bc5 	vcvt.f64.s32	d5, s10
 8001238:	b21a      	sxth	r2, r3
 800123a:	f824 3c4c 	strh.w	r3, [r4, #-76]
 800123e:	f8bd 300e 	ldrh.w	r3, [sp, #14]
 8001242:	ee06 2a10 	vmov	s12, r2
 8001246:	ba5b      	rev16	r3, r3
 8001248:	eeb8 6bc6 	vcvt.f64.s32	d6, s12
 800124c:	f824 3c3e 	strh.w	r3, [r4, #-62]
 8001250:	f8bd 3010 	ldrh.w	r3, [sp, #16]
 8001254:	ed14 7b0c 	vldr	d7, [r4, #-48]	@ 0xffffffd0
 8001258:	ba5b      	rev16	r3, r3
 800125a:	ee84 3b07 	vdiv.f64	d3, d4, d7
 800125e:	f824 3c4a 	strh.w	r3, [r4, #-74]
 8001262:	b21a      	sxth	r2, r3
 8001264:	f8bd 3012 	ldrh.w	r3, [sp, #18]
 8001268:	ba5b      	rev16	r3, r3
 800126a:	ee85 4b07 	vdiv.f64	d4, d5, d7
 800126e:	f824 3c48 	strh.w	r3, [r4, #-72]
 8001272:	ee86 5b07 	vdiv.f64	d5, d6, d7
 8001276:	ed14 7b0a 	vldr	d7, [r4, #-40]	@ 0xffffffd8
 800127a:	ed04 3b06 	vstr	d3, [r4, #-24]	@ 0xffffffe8
 800127e:	ed04 4b04 	vstr	d4, [r4, #-16]
 8001282:	ee04 2a10 	vmov	s8, r2
 8001286:	b21a      	sxth	r2, r3
 8001288:	f8bd 3014 	ldrh.w	r3, [sp, #20]
 800128c:	eeb8 4bc4 	vcvt.f64.s32	d4, s8
 8001290:	ba5b      	rev16	r3, r3
 8001292:	ed04 5b02 	vstr	d5, [r4, #-8]
 8001296:	ee05 2a10 	vmov	s10, r2
 800129a:	b21a      	sxth	r2, r3
 800129c:	ee84 3b07 	vdiv.f64	d3, d4, d7
 80012a0:	f824 3c46 	strh.w	r3, [r4, #-70]
 80012a4:	ee06 2a10 	vmov	s12, r2
 80012a8:	4b11      	ldr	r3, [pc, #68]	@ (80012f0 <_ZN7MPU925018read_gyro_acc_dataEv+0x100>)
 80012aa:	2200      	movs	r2, #0
 80012ac:	eeb8 6bc6 	vcvt.f64.s32	d6, s12
 80012b0:	eeb8 5bc5 	vcvt.f64.s32	d5, s10
 80012b4:	e9cd 2306 	strd	r2, r3, [sp, #24]
 80012b8:	ee85 4b07 	vdiv.f64	d4, d5, d7
 80012bc:	ab01      	add	r3, sp, #4
 80012be:	930a      	str	r3, [sp, #40]	@ 0x28
 80012c0:	ab06      	add	r3, sp, #24
 80012c2:	ee86 5b07 	vdiv.f64	d5, d6, d7
 80012c6:	930b      	str	r3, [sp, #44]	@ 0x2c
 80012c8:	ed84 3b00 	vstr	d3, [r4]
 80012cc:	ed84 4b02 	vstr	d4, [r4, #8]
 80012d0:	ed84 5b04 	vstr	d5, [r4, #16]
 80012d4:	9401      	str	r4, [sp, #4]
 80012d6:	940d      	str	r4, [sp, #52]	@ 0x34
 80012d8:	f7ff fcf6 	bl	8000cc8 <_ZN5Eigen8internal31generic_dense_assignment_kernelINS0_9evaluatorINS_6MatrixIdLi3ELi1ELi0ELi3ELi1EEEEENS2_INS_14CwiseNullaryOpINS0_18scalar_constant_opIdEES4_EEEENS0_13mul_assign_opIddEELi0EE11assignCoeffEi>
 80012dc:	a80a      	add	r0, sp, #40	@ 0x28
 80012de:	2101      	movs	r1, #1
 80012e0:	f7ff fcf2 	bl	8000cc8 <_ZN5Eigen8internal31generic_dense_assignment_kernelINS0_9evaluatorINS_6MatrixIdLi3ELi1ELi0ELi3ELi1EEEEENS2_INS_14CwiseNullaryOpINS0_18scalar_constant_opIdEES4_EEEENS0_13mul_assign_opIddEELi0EE11assignCoeffEi>
 80012e4:	2102      	movs	r1, #2
 80012e6:	a80a      	add	r0, sp, #40	@ 0x28
 80012e8:	f7ff fcee 	bl	8000cc8 <_ZN5Eigen8internal31generic_dense_assignment_kernelINS0_9evaluatorINS_6MatrixIdLi3ELi1ELi0ELi3ELi1EEEEENS2_INS_14CwiseNullaryOpINS0_18scalar_constant_opIdEES4_EEEENS0_13mul_assign_opIddEELi0EE11assignCoeffEi>
 80012ec:	b00e      	add	sp, #56	@ 0x38
 80012ee:	bd10      	pop	{r4, pc}
 80012f0:	bff00000 	.word	0xbff00000

080012f4 <_ZN5Eigen9DenseBaseINS_6MatrixIdLi3ELi1ELi0ELi3ELi1EEEEdVERKd.isra.0>:
 80012f4:	b500      	push	{lr}
 80012f6:	e9d1 2300 	ldrd	r2, r3, [r1]
 80012fa:	b08b      	sub	sp, #44	@ 0x2c
 80012fc:	2100      	movs	r1, #0
 80012fe:	e9cd 2302 	strd	r2, r3, [sp, #8]
 8001302:	ab01      	add	r3, sp, #4
 8001304:	9001      	str	r0, [sp, #4]
 8001306:	9009      	str	r0, [sp, #36]	@ 0x24
 8001308:	a806      	add	r0, sp, #24
 800130a:	9306      	str	r3, [sp, #24]
 800130c:	ab02      	add	r3, sp, #8
 800130e:	f8cd d020 	str.w	sp, [sp, #32]
 8001312:	9307      	str	r3, [sp, #28]
 8001314:	f7ff fd0f 	bl	8000d36 <_ZN5Eigen8internal31generic_dense_assignment_kernelINS0_9evaluatorINS_6MatrixIdLi3ELi1ELi0ELi3ELi1EEEEENS2_INS_14CwiseNullaryOpINS0_18scalar_constant_opIdEES4_EEEENS0_13div_assign_opIddEELi0EE11assignCoeffEi>
 8001318:	a806      	add	r0, sp, #24
 800131a:	2101      	movs	r1, #1
 800131c:	f7ff fd0b 	bl	8000d36 <_ZN5Eigen8internal31generic_dense_assignment_kernelINS0_9evaluatorINS_6MatrixIdLi3ELi1ELi0ELi3ELi1EEEEENS2_INS_14CwiseNullaryOpINS0_18scalar_constant_opIdEES4_EEEENS0_13div_assign_opIddEELi0EE11assignCoeffEi>
 8001320:	2102      	movs	r1, #2
 8001322:	a806      	add	r0, sp, #24
 8001324:	f7ff fd07 	bl	8000d36 <_ZN5Eigen8internal31generic_dense_assignment_kernelINS0_9evaluatorINS_6MatrixIdLi3ELi1ELi0ELi3ELi1EEEEENS2_INS_14CwiseNullaryOpINS0_18scalar_constant_opIdEES4_EEEENS0_13div_assign_opIddEELi0EE11assignCoeffEi>
 8001328:	b00b      	add	sp, #44	@ 0x2c
 800132a:	f85d fb04 	ldr.w	pc, [sp], #4

0800132e <_ZN5Eigen10MatrixBaseINS_6MatrixIdLi3ELi1ELi0ELi3ELi1EEEEmIIS2_EERS2_RKNS0_IT_EE.isra.0>:
 800132e:	b500      	push	{lr}
 8001330:	b089      	sub	sp, #36	@ 0x24
 8001332:	ab03      	add	r3, sp, #12
 8001334:	9304      	str	r3, [sp, #16]
 8001336:	ab02      	add	r3, sp, #8
 8001338:	9305      	str	r3, [sp, #20]
 800133a:	ab01      	add	r3, sp, #4
 800133c:	e9cd 1002 	strd	r1, r0, [sp, #8]
 8001340:	e9cd 3006 	strd	r3, r0, [sp, #24]
 8001344:	2100      	movs	r1, #0
 8001346:	a804      	add	r0, sp, #16
 8001348:	f7ff fd03 	bl	8000d52 <_ZN5Eigen8internal31generic_dense_assignment_kernelINS0_9evaluatorINS_6MatrixIdLi3ELi1ELi0ELi3ELi1EEEEES5_NS0_13sub_assign_opIddEELi0EE11assignCoeffEi>
 800134c:	a804      	add	r0, sp, #16
 800134e:	2101      	movs	r1, #1
 8001350:	f7ff fcff 	bl	8000d52 <_ZN5Eigen8internal31generic_dense_assignment_kernelINS0_9evaluatorINS_6MatrixIdLi3ELi1ELi0ELi3ELi1EEEEES5_NS0_13sub_assign_opIddEELi0EE11assignCoeffEi>
 8001354:	2102      	movs	r1, #2
 8001356:	a804      	add	r0, sp, #16
 8001358:	f7ff fcfb 	bl	8000d52 <_ZN5Eigen8internal31generic_dense_assignment_kernelINS0_9evaluatorINS_6MatrixIdLi3ELi1ELi0ELi3ELi1EEEEES5_NS0_13sub_assign_opIddEELi0EE11assignCoeffEi>
 800135c:	b009      	add	sp, #36	@ 0x24
 800135e:	f85d fb04 	ldr.w	pc, [sp], #4
	...

08001364 <_ZN7MPU92509calibrateEv>:
 8001364:	e92d 43f0 	stmdb	sp!, {r4, r5, r6, r7, r8, r9, lr}
 8001368:	4604      	mov	r4, r0
 800136a:	2200      	movs	r2, #0
 800136c:	2300      	movs	r3, #0
 800136e:	2664      	movs	r6, #100	@ 0x64
 8001370:	f104 08c8 	add.w	r8, r4, #200	@ 0xc8
 8001374:	f504 7588 	add.w	r5, r4, #272	@ 0x110
 8001378:	b087      	sub	sp, #28
 800137a:	e9c0 2344 	strd	r2, r3, [r0, #272]	@ 0x110
 800137e:	e9c0 2346 	strd	r2, r3, [r0, #280]	@ 0x118
 8001382:	e9c0 2348 	strd	r2, r3, [r0, #288]	@ 0x120
 8001386:	e9c0 234a 	strd	r2, r3, [r0, #296]	@ 0x128
 800138a:	e9c0 234c 	strd	r2, r3, [r0, #304]	@ 0x130
 800138e:	e9c0 234e 	strd	r2, r3, [r0, #312]	@ 0x138
 8001392:	200a      	movs	r0, #10
 8001394:	f004 fe14 	bl	8005fc0 <HAL_Delay>
 8001398:	4620      	mov	r0, r4
 800139a:	f504 7794 	add.w	r7, r4, #296	@ 0x128
 800139e:	f7ff ff27 	bl	80011f0 <_ZN7MPU925018read_gyro_acc_dataEv>
 80013a2:	466a      	mov	r2, sp
 80013a4:	4641      	mov	r1, r8
 80013a6:	4628      	mov	r0, r5
 80013a8:	f7ff fcad 	bl	8000d06 <_ZN5Eigen8internal26call_dense_assignment_loopINS_6MatrixIdLi3ELi1ELi0ELi3ELi1EEES3_NS0_13add_assign_opIddEEEEvRT_RKT0_RKT1_>
 80013ac:	466a      	mov	r2, sp
 80013ae:	f104 01e0 	add.w	r1, r4, #224	@ 0xe0
 80013b2:	4638      	mov	r0, r7
 80013b4:	f7ff fca7 	bl	8000d06 <_ZN5Eigen8internal26call_dense_assignment_loopINS_6MatrixIdLi3ELi1ELi0ELi3ELi1EEES3_NS0_13add_assign_opIddEEEEvRT_RKT0_RKT1_>
 80013b8:	2001      	movs	r0, #1
 80013ba:	f004 fe01 	bl	8005fc0 <HAL_Delay>
 80013be:	3e01      	subs	r6, #1
 80013c0:	d1ea      	bne.n	8001398 <_ZN7MPU92509calibrateEv+0x34>
 80013c2:	f04f 0800 	mov.w	r8, #0
 80013c6:	f8df 9038 	ldr.w	r9, [pc, #56]	@ 8001400 <_ZN7MPU92509calibrateEv+0x9c>
 80013ca:	4669      	mov	r1, sp
 80013cc:	4628      	mov	r0, r5
 80013ce:	e9cd 8900 	strd	r8, r9, [sp]
 80013d2:	f7ff ff8f 	bl	80012f4 <_ZN5Eigen9DenseBaseINS_6MatrixIdLi3ELi1ELi0ELi3ELi1EEEEdVERKd.isra.0>
 80013d6:	4669      	mov	r1, sp
 80013d8:	4638      	mov	r0, r7
 80013da:	e9cd 8900 	strd	r8, r9, [sp]
 80013de:	f7ff ff89 	bl	80012f4 <_ZN5Eigen9DenseBaseINS_6MatrixIdLi3ELi1ELi0ELi3ELi1EEEEdVERKd.isra.0>
 80013e2:	4629      	mov	r1, r5
 80013e4:	4668      	mov	r0, sp
 80013e6:	f7ff fcd7 	bl	8000d98 <_ZNK5Eigen10MatrixBaseINS_6MatrixIdLi3ELi1ELi0ELi3ELi1EEEE10normalizedEv>
 80013ea:	4669      	mov	r1, sp
 80013ec:	4628      	mov	r0, r5
 80013ee:	f7ff ff9e 	bl	800132e <_ZN5Eigen10MatrixBaseINS_6MatrixIdLi3ELi1ELi0ELi3ELi1EEEEmIIS2_EERS2_RKNS0_IT_EE.isra.0>
 80013f2:	200a      	movs	r0, #10
 80013f4:	f004 fde4 	bl	8005fc0 <HAL_Delay>
 80013f8:	b007      	add	sp, #28
 80013fa:	e8bd 83f0 	ldmia.w	sp!, {r4, r5, r6, r7, r8, r9, pc}
 80013fe:	bf00      	nop
 8001400:	40590000 	.word	0x40590000

08001404 <_ZN7MPU92504initERK8AccScaleRK9GyroScale>:
 8001404:	b538      	push	{r3, r4, r5, lr}
 8001406:	4604      	mov	r4, r0
 8001408:	4615      	mov	r5, r2
 800140a:	f7ff fe65 	bl	80010d8 <_ZN7MPU925022configureAccelerometerERK8AccScale>
 800140e:	4620      	mov	r0, r4
 8001410:	4629      	mov	r1, r5
 8001412:	f7ff fea1 	bl	8001158 <_ZN7MPU925018configureGyroscopeERK9GyroScale>
 8001416:	4620      	mov	r0, r4
 8001418:	e8bd 4038 	ldmia.w	sp!, {r3, r4, r5, lr}
 800141c:	f7ff bfa2 	b.w	8001364 <_ZN7MPU92509calibrateEv>

08001420 <_ZN7MPU925025filter_and_calibrate_dataEv>:
 8001420:	b570      	push	{r4, r5, r6, lr}
 8001422:	ed90 7b5c 	vldr	d7, [r0, #368]	@ 0x170
 8001426:	ed2d 8b02 	vpush	{d8}
 800142a:	eeb7 8b00 	vmov.f64	d8, #112	@ 0x3f800000  1.0
 800142e:	b096      	sub	sp, #88	@ 0x58
 8001430:	f500 75a0 	add.w	r5, r0, #320	@ 0x140
 8001434:	f100 03c8 	add.w	r3, r0, #200	@ 0xc8
 8001438:	f500 76ac 	add.w	r6, r0, #344	@ 0x158
 800143c:	4604      	mov	r4, r0
 800143e:	aa01      	add	r2, sp, #4
 8001440:	a902      	add	r1, sp, #8
 8001442:	4628      	mov	r0, r5
 8001444:	930c      	str	r3, [sp, #48]	@ 0x30
 8001446:	9604      	str	r6, [sp, #16]
 8001448:	ed8d 7b08 	vstr	d7, [sp, #32]
 800144c:	ee38 7b47 	vsub.f64	d7, d8, d7
 8001450:	ed8d 7b10 	vstr	d7, [sp, #64]	@ 0x40
 8001454:	f7ff fcf4 	bl	8000e40 <_ZN5Eigen8internal26call_dense_assignment_loopINS_6MatrixIdLi3ELi1ELi0ELi3ELi1EEENS_13CwiseBinaryOpINS0_13scalar_sum_opIddEEKNS4_INS0_17scalar_product_opIddEEKS3_KNS_14CwiseNullaryOpINS0_18scalar_constant_opIdEES9_EEEESG_EENS0_9assign_opIddEEEEvRT_RKT0_RKT1_>
 8001458:	4629      	mov	r1, r5
 800145a:	4630      	mov	r0, r6
 800145c:	f504 76c8 	add.w	r6, r4, #400	@ 0x190
 8001460:	f7ff fd1f 	bl	8000ea2 <_ZN5Eigen8internal15call_assignmentINS_6MatrixIdLi3ELi1ELi0ELi3ELi1EEES3_EEvRT_RKT0_>
 8001464:	f504 7188 	add.w	r1, r4, #272	@ 0x110
 8001468:	4628      	mov	r0, r5
 800146a:	f504 75bc 	add.w	r5, r4, #376	@ 0x178
 800146e:	f7ff ff5e 	bl	800132e <_ZN5Eigen10MatrixBaseINS_6MatrixIdLi3ELi1ELi0ELi3ELi1EEEEmIIS2_EERS2_RKNS0_IT_EE.isra.0>
 8001472:	f104 03e0 	add.w	r3, r4, #224	@ 0xe0
 8001476:	aa01      	add	r2, sp, #4
 8001478:	a902      	add	r1, sp, #8
 800147a:	4628      	mov	r0, r5
 800147c:	930c      	str	r3, [sp, #48]	@ 0x30
 800147e:	9604      	str	r6, [sp, #16]
 8001480:	ed94 7b6a 	vldr	d7, [r4, #424]	@ 0x1a8
 8001484:	ee38 8b47 	vsub.f64	d8, d8, d7
 8001488:	ed8d 7b08 	vstr	d7, [sp, #32]
 800148c:	ed8d 8b10 	vstr	d8, [sp, #64]	@ 0x40
 8001490:	f7ff fcd6 	bl	8000e40 <_ZN5Eigen8internal26call_dense_assignment_loopINS_6MatrixIdLi3ELi1ELi0ELi3ELi1EEENS_13CwiseBinaryOpINS0_13scalar_sum_opIddEEKNS4_INS0_17scalar_product_opIddEEKS3_KNS_14CwiseNullaryOpINS0_18scalar_constant_opIdEES9_EEEESG_EENS0_9assign_opIddEEEEvRT_RKT0_RKT1_>
 8001494:	4629      	mov	r1, r5
 8001496:	4630      	mov	r0, r6
 8001498:	f7ff fd03 	bl	8000ea2 <_ZN5Eigen8internal15call_assignmentINS_6MatrixIdLi3ELi1ELi0ELi3ELi1EEES3_EEvRT_RKT0_>
 800149c:	f504 7194 	add.w	r1, r4, #296	@ 0x128
 80014a0:	4628      	mov	r0, r5
 80014a2:	b016      	add	sp, #88	@ 0x58
 80014a4:	ecbd 8b02 	vpop	{d8}
 80014a8:	e8bd 4070 	ldmia.w	sp!, {r4, r5, r6, lr}
 80014ac:	f7ff bf3f 	b.w	800132e <_ZN5Eigen10MatrixBaseINS_6MatrixIdLi3ELi1ELi0ELi3ELi1EEEEmIIS2_EERS2_RKNS0_IT_EE.isra.0>

080014b0 <_ZNK5Eigen10MatrixBaseINS_6MatrixIdLi3ELi1ELi0ELi3ELi1EEEE11squaredNormEv>:
 80014b0:	ed90 0b04 	vldr	d0, [r0, #16]
 80014b4:	ed90 6b02 	vldr	d6, [r0, #8]
 80014b8:	ed90 7b00 	vldr	d7, [r0]
 80014bc:	ee20 0b00 	vmul.f64	d0, d0, d0
 80014c0:	eea6 0b06 	vfma.f64	d0, d6, d6
 80014c4:	eea7 0b07 	vfma.f64	d0, d7, d7
 80014c8:	4770      	bx	lr

080014ca <_ZN5Eigen8internal12quat_productILi0ENS_10QuaternionIdLi0EEES3_dE3runERKNS_14QuaternionBaseIS3_EES8_>:
 80014ca:	ed92 7b06 	vldr	d7, [r2, #24]
 80014ce:	ed91 3b00 	vldr	d3, [r1]
 80014d2:	ed92 5b00 	vldr	d5, [r2]
 80014d6:	b510      	push	{r4, lr}
 80014d8:	ed2d 8b08 	vpush	{d8-d11}
 80014dc:	ee25 9b43 	vnmul.f64	d9, d5, d3
 80014e0:	4604      	mov	r4, r0
 80014e2:	ee27 bb03 	vmul.f64	d11, d7, d3
 80014e6:	ed91 1b06 	vldr	d1, [r1, #24]
 80014ea:	ed91 6b02 	vldr	d6, [r1, #8]
 80014ee:	ed92 4b02 	vldr	d4, [r2, #8]
 80014f2:	eea1 9b07 	vfma.f64	d9, d1, d7
 80014f6:	eea1 bb05 	vfma.f64	d11, d1, d5
 80014fa:	ee27 ab06 	vmul.f64	d10, d7, d6
 80014fe:	eea6 9b44 	vfms.f64	d9, d6, d4
 8001502:	eea1 ab04 	vfma.f64	d10, d1, d4
 8001506:	ed92 2b04 	vldr	d2, [r2, #16]
 800150a:	ed91 8b04 	vldr	d8, [r1, #16]
 800150e:	eea6 bb02 	vfma.f64	d11, d6, d2
 8001512:	eea8 9b42 	vfms.f64	d9, d8, d2
 8001516:	eea5 ab08 	vfma.f64	d10, d5, d8
 800151a:	eea4 bb48 	vfms.f64	d11, d4, d8
 800151e:	ee27 8b08 	vmul.f64	d8, d7, d8
 8001522:	eea3 ab42 	vfms.f64	d10, d3, d2
 8001526:	eea1 8b02 	vfma.f64	d8, d1, d2
 800152a:	eea3 8b04 	vfma.f64	d8, d3, d4
 800152e:	eea5 8b46 	vfms.f64	d8, d5, d6
 8001532:	f7ff f89d 	bl	8000670 <_ZN5Eigen8internal11plain_arrayIdLi4ELi0ELi16EEC1Ev>
 8001536:	4620      	mov	r0, r4
 8001538:	ed84 bb00 	vstr	d11, [r4]
 800153c:	ed84 ab02 	vstr	d10, [r4, #8]
 8001540:	ed84 9b06 	vstr	d9, [r4, #24]
 8001544:	ed84 8b04 	vstr	d8, [r4, #16]
 8001548:	ecbd 8b08 	vpop	{d8-d11}
 800154c:	bd10      	pop	{r4, pc}
	...

08001550 <_ZN5Eigen8internal31generic_dense_assignment_kernelINS0_9evaluatorINS_6MatrixIdLi3ELi1ELi0ELi3ELi1EEEEENS2_INS_5BlockIKNS_14CwiseNullaryOpINS0_18scalar_identity_opIdEENS3_IdLi3ELi3ELi0ELi3ELi3EEEEELi3ELi1ELb0EEEEENS0_9assign_opIddEELi0EE11assignCoeffEi>:
 8001550:	6803      	ldr	r3, [r0, #0]
 8001552:	eeb7 6b00 	vmov.f64	d6, #112	@ 0x3f800000  1.0
 8001556:	6842      	ldr	r2, [r0, #4]
 8001558:	681b      	ldr	r3, [r3, #0]
 800155a:	6850      	ldr	r0, [r2, #4]
 800155c:	eb03 03c1 	add.w	r3, r3, r1, lsl #3
 8001560:	6892      	ldr	r2, [r2, #8]
 8001562:	4401      	add	r1, r0
 8001564:	ed9f 7b04 	vldr	d7, [pc, #16]	@ 8001578 <_ZN5Eigen8internal31generic_dense_assignment_kernelINS0_9evaluatorINS_6MatrixIdLi3ELi1ELi0ELi3ELi1EEEEENS2_INS_5BlockIKNS_14CwiseNullaryOpINS0_18scalar_identity_opIdEENS3_IdLi3ELi3ELi0ELi3ELi3EEEEELi3ELi1ELb0EEEEENS0_9assign_opIddEELi0EE11assignCoeffEi+0x28>
 8001568:	4291      	cmp	r1, r2
 800156a:	fe06 7b07 	vseleq.f64	d7, d6, d7
 800156e:	ed83 7b00 	vstr	d7, [r3]
 8001572:	4770      	bx	lr
 8001574:	f3af 8000 	nop.w
	...

08001580 <_ZN5Eigen9AngleAxisIdEC1INS_5BlockIKNS_14CwiseNullaryOpINS_8internal18scalar_identity_opIdEENS_6MatrixIdLi3ELi3ELi0ELi3ELi3EEEEELi3ELi1ELb0EEEEERKdRKNS_10MatrixBaseIT_EE>:
 8001580:	b530      	push	{r4, r5, lr}
 8001582:	6853      	ldr	r3, [r2, #4]
 8001584:	b08b      	sub	sp, #44	@ 0x2c
 8001586:	4604      	mov	r4, r0
 8001588:	460d      	mov	r5, r1
 800158a:	9303      	str	r3, [sp, #12]
 800158c:	2100      	movs	r1, #0
 800158e:	6893      	ldr	r3, [r2, #8]
 8001590:	9001      	str	r0, [sp, #4]
 8001592:	9304      	str	r3, [sp, #16]
 8001594:	ab01      	add	r3, sp, #4
 8001596:	9009      	str	r0, [sp, #36]	@ 0x24
 8001598:	a806      	add	r0, sp, #24
 800159a:	9306      	str	r3, [sp, #24]
 800159c:	ab02      	add	r3, sp, #8
 800159e:	f8cd d020 	str.w	sp, [sp, #32]
 80015a2:	9307      	str	r3, [sp, #28]
 80015a4:	f7ff ffd4 	bl	8001550 <_ZN5Eigen8internal31generic_dense_assignment_kernelINS0_9evaluatorINS_6MatrixIdLi3ELi1ELi0ELi3ELi1EEEEENS2_INS_5BlockIKNS_14CwiseNullaryOpINS0_18scalar_identity_opIdEENS3_IdLi3ELi3ELi0ELi3ELi3EEEEELi3ELi1ELb0EEEEENS0_9assign_opIddEELi0EE11assignCoeffEi>
 80015a8:	a806      	add	r0, sp, #24
 80015aa:	2101      	movs	r1, #1
 80015ac:	f7ff ffd0 	bl	8001550 <_ZN5Eigen8internal31generic_dense_assignment_kernelINS0_9evaluatorINS_6MatrixIdLi3ELi1ELi0ELi3ELi1EEEEENS2_INS_5BlockIKNS_14CwiseNullaryOpINS0_18scalar_identity_opIdEENS3_IdLi3ELi3ELi0ELi3ELi3EEEEELi3ELi1ELb0EEEEENS0_9assign_opIddEELi0EE11assignCoeffEi>
 80015b0:	a806      	add	r0, sp, #24
 80015b2:	2102      	movs	r1, #2
 80015b4:	f7ff ffcc 	bl	8001550 <_ZN5Eigen8internal31generic_dense_assignment_kernelINS0_9evaluatorINS_6MatrixIdLi3ELi1ELi0ELi3ELi1EEEEENS2_INS_5BlockIKNS_14CwiseNullaryOpINS0_18scalar_identity_opIdEENS3_IdLi3ELi3ELi0ELi3ELi3EEEEELi3ELi1ELb0EEEEENS0_9assign_opIddEELi0EE11assignCoeffEi>
 80015b8:	4620      	mov	r0, r4
 80015ba:	e9d5 2300 	ldrd	r2, r3, [r5]
 80015be:	e9c4 2306 	strd	r2, r3, [r4, #24]
 80015c2:	b00b      	add	sp, #44	@ 0x2c
 80015c4:	bd30      	pop	{r4, r5, pc}

080015c6 <_ZN5Eigen8internal31generic_dense_assignment_kernelINS0_9evaluatorINS_5BlockINS_6MatrixIdLi4ELi1ELi0ELi4ELi1EEELi3ELi1ELb0EEEEENS2_INS_13CwiseBinaryOpINS0_17scalar_product_opIddEEKNS_14CwiseNullaryOpINS0_18scalar_constant_opIdEEKNS4_IdLi3ELi1ELi0ELi3ELi1EEEEESF_EEEENS0_9assign_opIddEELi0EE11assignCoeffEi>:
 80015c6:	b510      	push	{r4, lr}
 80015c8:	e9d0 3400 	ldrd	r3, r4, [r0]
 80015cc:	69a2      	ldr	r2, [r4, #24]
 80015ce:	681b      	ldr	r3, [r3, #0]
 80015d0:	eb02 02c1 	add.w	r2, r2, r1, lsl #3
 80015d4:	eb03 03c1 	add.w	r3, r3, r1, lsl #3
 80015d8:	ed92 7b00 	vldr	d7, [r2]
 80015dc:	ed94 6b02 	vldr	d6, [r4, #8]
 80015e0:	ee27 7b06 	vmul.f64	d7, d7, d6
 80015e4:	ed83 7b00 	vstr	d7, [r3]
 80015e8:	bd10      	pop	{r4, pc}

080015ea <_ZN5Eigen10QuaternionIdLi0EEC1ERKNS_9AngleAxisIdEE>:
 80015ea:	b570      	push	{r4, r5, r6, lr}
 80015ec:	460d      	mov	r5, r1
 80015ee:	4604      	mov	r4, r0
 80015f0:	2600      	movs	r6, #0
 80015f2:	ed2d 8b02 	vpush	{d8}
 80015f6:	b096      	sub	sp, #88	@ 0x58
 80015f8:	f7ff f83a 	bl	8000670 <_ZN5Eigen8internal11plain_arrayIdLi4ELi0ELi16EEC1Ev>
 80015fc:	eeb6 7b00 	vmov.f64	d7, #96	@ 0x3f000000  0.5
 8001600:	ed95 8b06 	vldr	d8, [r5, #24]
 8001604:	ee28 8b07 	vmul.f64	d8, d8, d7
 8001608:	eeb0 0b48 	vmov.f64	d0, d8
 800160c:	f007 fd9c 	bl	8009148 <cos>
 8001610:	2304      	movs	r3, #4
 8001612:	9408      	str	r4, [sp, #32]
 8001614:	930d      	str	r3, [sp, #52]	@ 0x34
 8001616:	940a      	str	r4, [sp, #40]	@ 0x28
 8001618:	960b      	str	r6, [sp, #44]	@ 0x2c
 800161a:	ed84 0b06 	vstr	d0, [r4, #24]
 800161e:	eeb0 0b48 	vmov.f64	d0, d8
 8001622:	f007 fde5 	bl	80091f0 <sin>
 8001626:	ab02      	add	r3, sp, #8
 8001628:	4631      	mov	r1, r6
 800162a:	a804      	add	r0, sp, #16
 800162c:	9304      	str	r3, [sp, #16]
 800162e:	ab0e      	add	r3, sp, #56	@ 0x38
 8001630:	9514      	str	r5, [sp, #80]	@ 0x50
 8001632:	9305      	str	r3, [sp, #20]
 8001634:	ab01      	add	r3, sp, #4
 8001636:	9402      	str	r4, [sp, #8]
 8001638:	9306      	str	r3, [sp, #24]
 800163a:	ab08      	add	r3, sp, #32
 800163c:	ed8d 0b10 	vstr	d0, [sp, #64]	@ 0x40
 8001640:	9307      	str	r3, [sp, #28]
 8001642:	f7ff ffc0 	bl	80015c6 <_ZN5Eigen8internal31generic_dense_assignment_kernelINS0_9evaluatorINS_5BlockINS_6MatrixIdLi4ELi1ELi0ELi4ELi1EEELi3ELi1ELb0EEEEENS2_INS_13CwiseBinaryOpINS0_17scalar_product_opIddEEKNS_14CwiseNullaryOpINS0_18scalar_constant_opIdEEKNS4_IdLi3ELi1ELi0ELi3ELi1EEEEESF_EEEENS0_9assign_opIddEELi0EE11assignCoeffEi>
 8001646:	a804      	add	r0, sp, #16
 8001648:	2101      	movs	r1, #1
 800164a:	f7ff ffbc 	bl	80015c6 <_ZN5Eigen8internal31generic_dense_assignment_kernelINS0_9evaluatorINS_5BlockINS_6MatrixIdLi4ELi1ELi0ELi4ELi1EEELi3ELi1ELb0EEEEENS2_INS_13CwiseBinaryOpINS0_17scalar_product_opIddEEKNS_14CwiseNullaryOpINS0_18scalar_constant_opIdEEKNS4_IdLi3ELi1ELi0ELi3ELi1EEEEESF_EEEENS0_9assign_opIddEELi0EE11assignCoeffEi>
 800164e:	a804      	add	r0, sp, #16
 8001650:	2102      	movs	r1, #2
 8001652:	f7ff ffb8 	bl	80015c6 <_ZN5Eigen8internal31generic_dense_assignment_kernelINS0_9evaluatorINS_5BlockINS_6MatrixIdLi4ELi1ELi0ELi4ELi1EEELi3ELi1ELb0EEEEENS2_INS_13CwiseBinaryOpINS0_17scalar_product_opIddEEKNS_14CwiseNullaryOpINS0_18scalar_constant_opIdEEKNS4_IdLi3ELi1ELi0ELi3ELi1EEEEESF_EEEENS0_9assign_opIddEELi0EE11assignCoeffEi>
 8001656:	4620      	mov	r0, r4
 8001658:	b016      	add	sp, #88	@ 0x58
 800165a:	ecbd 8b02 	vpop	{d8}
 800165e:	bd70      	pop	{r4, r5, r6, pc}

08001660 <_ZN5Utils16gyroToQuaternionERKN5Eigen6MatrixIdLi3ELi1ELi0ELi3ELi1EEEd>:
 8001660:	b5f0      	push	{r4, r5, r6, r7, lr}
 8001662:	ed2d 8b02 	vpush	{d8}
 8001666:	eeb0 8b40 	vmov.f64	d8, d0
 800166a:	b0a1      	sub	sp, #132	@ 0x84
 800166c:	4606      	mov	r6, r0
 800166e:	4608      	mov	r0, r1
 8001670:	460d      	mov	r5, r1
 8001672:	f7ff ff1d 	bl	80014b0 <_ZNK5Eigen10MatrixBaseINS_6MatrixIdLi3ELi1ELi0ELi3ELi1EEEE11squaredNormEv>
 8001676:	f007 fc4b 	bl	8008f10 <sqrt>
 800167a:	ee28 8b00 	vmul.f64	d8, d8, d0
 800167e:	f10d 0467 	add.w	r4, sp, #103	@ 0x67
 8001682:	f024 040f 	bic.w	r4, r4, #15
 8001686:	ed9f 7b22 	vldr	d7, [pc, #136]	@ 8001710 <_ZN5Utils16gyroToQuaternionERKN5Eigen6MatrixIdLi3ELi1ELi0ELi3ELi1EEEd+0xb0>
 800168a:	eeb4 8bc7 	vcmpe.f64	d8, d7
 800168e:	eef1 fa10 	vmrs	APSR_nzcv, fpscr
 8001692:	d513      	bpl.n	80016bc <_ZN5Utils16gyroToQuaternionERKN5Eigen6MatrixIdLi3ELi1ELi0ELi3ELi1EEEd+0x5c>
 8001694:	4630      	mov	r0, r6
 8001696:	f7fe ffeb 	bl	8000670 <_ZN5Eigen8internal11plain_arrayIdLi4ELi0ELi16EEC1Ev>
 800169a:	2200      	movs	r2, #0
 800169c:	2300      	movs	r3, #0
 800169e:	e9c6 2300 	strd	r2, r3, [r6]
 80016a2:	e9c6 2302 	strd	r2, r3, [r6, #8]
 80016a6:	e9c6 2304 	strd	r2, r3, [r6, #16]
 80016aa:	2200      	movs	r2, #0
 80016ac:	4b1a      	ldr	r3, [pc, #104]	@ (8001718 <_ZN5Utils16gyroToQuaternionERKN5Eigen6MatrixIdLi3ELi1ELi0ELi3ELi1EEEd+0xb8>)
 80016ae:	e9c6 2306 	strd	r2, r3, [r6, #24]
 80016b2:	4630      	mov	r0, r6
 80016b4:	b021      	add	sp, #132	@ 0x84
 80016b6:	ecbd 8b02 	vpop	{d8}
 80016ba:	bdf0      	pop	{r4, r5, r6, r7, pc}
 80016bc:	af08      	add	r7, sp, #32
 80016be:	4629      	mov	r1, r5
 80016c0:	ad0e      	add	r5, sp, #56	@ 0x38
 80016c2:	4638      	mov	r0, r7
 80016c4:	f7ff fb68 	bl	8000d98 <_ZNK5Eigen10MatrixBaseINS_6MatrixIdLi3ELi1ELi0ELi3ELi1EEEE10normalizedEv>
 80016c8:	ab03      	add	r3, sp, #12
 80016ca:	2100      	movs	r1, #0
 80016cc:	a804      	add	r0, sp, #16
 80016ce:	9304      	str	r3, [sp, #16]
 80016d0:	ab02      	add	r3, sp, #8
 80016d2:	9503      	str	r5, [sp, #12]
 80016d4:	9305      	str	r3, [sp, #20]
 80016d6:	ab01      	add	r3, sp, #4
 80016d8:	9702      	str	r7, [sp, #8]
 80016da:	e9cd 3506 	strd	r3, r5, [sp, #24]
 80016de:	f7ff fbd2 	bl	8000e86 <_ZN5Eigen8internal31generic_dense_assignment_kernelINS0_9evaluatorINS_6MatrixIdLi3ELi1ELi0ELi3ELi1EEEEES5_NS0_9assign_opIddEELi0EE11assignCoeffEi>
 80016e2:	2101      	movs	r1, #1
 80016e4:	a804      	add	r0, sp, #16
 80016e6:	f7ff fbce 	bl	8000e86 <_ZN5Eigen8internal31generic_dense_assignment_kernelINS0_9evaluatorINS_6MatrixIdLi3ELi1ELi0ELi3ELi1EEEEES5_NS0_9assign_opIddEELi0EE11assignCoeffEi>
 80016ea:	2102      	movs	r1, #2
 80016ec:	a804      	add	r0, sp, #16
 80016ee:	f7ff fbca 	bl	8000e86 <_ZN5Eigen8internal31generic_dense_assignment_kernelINS0_9evaluatorINS_6MatrixIdLi3ELi1ELi0ELi3ELi1EEEEES5_NS0_9assign_opIddEELi0EE11assignCoeffEi>
 80016f2:	4629      	mov	r1, r5
 80016f4:	4620      	mov	r0, r4
 80016f6:	4635      	mov	r5, r6
 80016f8:	ed8d 8b14 	vstr	d8, [sp, #80]	@ 0x50
 80016fc:	f7ff ff75 	bl	80015ea <_ZN5Eigen10QuaternionIdLi0EEC1ERKNS_9AngleAxisIdEE>
 8001700:	cc0f      	ldmia	r4!, {r0, r1, r2, r3}
 8001702:	c50f      	stmia	r5!, {r0, r1, r2, r3}
 8001704:	e894 000f 	ldmia.w	r4, {r0, r1, r2, r3}
 8001708:	e885 000f 	stmia.w	r5, {r0, r1, r2, r3}
 800170c:	e7d1      	b.n	80016b2 <_ZN5Utils16gyroToQuaternionERKN5Eigen6MatrixIdLi3ELi1ELi0ELi3ELi1EEEd+0x52>
 800170e:	bf00      	nop
 8001710:	d9d7bdbb 	.word	0xd9d7bdbb
 8001714:	3ddb7cdf 	.word	0x3ddb7cdf
 8001718:	3ff00000 	.word	0x3ff00000

0800171c <_ZN5Utils18accMagToQuaternionERKN5Eigen6MatrixIdLi3ELi1ELi0ELi3ELi1EEES4_>:
 800171c:	e92d 41f0 	stmdb	sp!, {r4, r5, r6, r7, r8, lr}
 8001720:	ed2d 8b0e 	vpush	{d8-d14}
 8001724:	b0d0      	sub	sp, #320	@ 0x140
 8001726:	4614      	mov	r4, r2
 8001728:	4606      	mov	r6, r0
 800172a:	2700      	movs	r7, #0
 800172c:	a812      	add	r0, sp, #72	@ 0x48
 800172e:	f10d 05e7 	add.w	r5, sp, #231	@ 0xe7
 8001732:	f7ff fb31 	bl	8000d98 <_ZNK5Eigen10MatrixBaseINS_6MatrixIdLi3ELi1ELi0ELi3ELi1EEEE10normalizedEv>
 8001736:	4621      	mov	r1, r4
 8001738:	a818      	add	r0, sp, #96	@ 0x60
 800173a:	f025 050f 	bic.w	r5, r5, #15
 800173e:	f7ff fb2b 	bl	8000d98 <_ZNK5Eigen10MatrixBaseINS_6MatrixIdLi3ELi1ELi0ELi3ELi1EEEE10normalizedEv>
 8001742:	f105 0420 	add.w	r4, r5, #32
 8001746:	f105 0840 	add.w	r8, r5, #64	@ 0x40
 800174a:	ed9d ab14 	vldr	d10, [sp, #80]	@ 0x50
 800174e:	ed9d 8b16 	vldr	d8, [sp, #88]	@ 0x58
 8001752:	eeb0 0b4a 	vmov.f64	d0, d10
 8001756:	eeb0 1b48 	vmov.f64	d1, d8
 800175a:	f007 f9e3 	bl	8008b24 <atan2>
 800175e:	eeb0 bb40 	vmov.f64	d11, d0
 8001762:	ed8d 0b00 	vstr	d0, [sp]
 8001766:	ee28 0b08 	vmul.f64	d0, d8, d8
 800176a:	ed9d 9b12 	vldr	d9, [sp, #72]	@ 0x48
 800176e:	eeaa 0b0a 	vfma.f64	d0, d10, d10
 8001772:	f007 fbcd 	bl	8008f10 <sqrt>
 8001776:	eeb1 9b49 	vneg.f64	d9, d9
 800177a:	eeb0 1b40 	vmov.f64	d1, d0
 800177e:	eeb0 0b49 	vmov.f64	d0, d9
 8001782:	f007 f9cf 	bl	8008b24 <atan2>
 8001786:	eeb0 8b40 	vmov.f64	d8, d0
 800178a:	ed8d 0b02 	vstr	d0, [sp, #8]
 800178e:	f007 fcdb 	bl	8009148 <cos>
 8001792:	eeb0 eb40 	vmov.f64	d14, d0
 8001796:	eeb0 0b4b 	vmov.f64	d0, d11
 800179a:	f007 fd29 	bl	80091f0 <sin>
 800179e:	eeb0 cb40 	vmov.f64	d12, d0
 80017a2:	eeb0 0b48 	vmov.f64	d0, d8
 80017a6:	f007 fd23 	bl	80091f0 <sin>
 80017aa:	eeb0 db40 	vmov.f64	d13, d0
 80017ae:	ed9d ab1a 	vldr	d10, [sp, #104]	@ 0x68
 80017b2:	ed9d 7b18 	vldr	d7, [sp, #96]	@ 0x60
 80017b6:	ed9d 8b1c 	vldr	d8, [sp, #112]	@ 0x70
 80017ba:	ee2a 9b0c 	vmul.f64	d9, d10, d12
 80017be:	ee29 9b00 	vmul.f64	d9, d9, d0
 80017c2:	eeb0 0b4b 	vmov.f64	d0, d11
 80017c6:	eea7 9b0e 	vfma.f64	d9, d7, d14
 80017ca:	f007 fcbd 	bl	8009148 <cos>
 80017ce:	ee28 7b00 	vmul.f64	d7, d8, d0
 80017d2:	ee28 8b4c 	vnmul.f64	d8, d8, d12
 80017d6:	eeb0 1b49 	vmov.f64	d1, d9
 80017da:	eeaa 8b00 	vfma.f64	d8, d10, d0
 80017de:	eead 1b07 	vfma.f64	d1, d13, d7
 80017e2:	eeb1 0b48 	vneg.f64	d0, d8
 80017e6:	f007 f99d 	bl	8008b24 <atan2>
 80017ea:	4630      	mov	r0, r6
 80017ec:	ed8d 0b04 	vstr	d0, [sp, #16]
 80017f0:	f7fe ff3e 	bl	8000670 <_ZN5Eigen8internal11plain_arrayIdLi4ELi0ELi16EEC1Ev>
 80017f4:	2302      	movs	r3, #2
 80017f6:	aa06      	add	r2, sp, #24
 80017f8:	a904      	add	r1, sp, #16
 80017fa:	a81e      	add	r0, sp, #120	@ 0x78
 80017fc:	e9cd 7307 	strd	r7, r3, [sp, #28]
 8001800:	f7ff febe 	bl	8001580 <_ZN5Eigen9AngleAxisIdEC1INS_5BlockIKNS_14CwiseNullaryOpINS_8internal18scalar_identity_opIdEENS_6MatrixIdLi3ELi3ELi0ELi3ELi3EEEEELi3ELi1ELb0EEEEERKdRKNS_10MatrixBaseIT_EE>
 8001804:	2301      	movs	r3, #1
 8001806:	aa0a      	add	r2, sp, #40	@ 0x28
 8001808:	a902      	add	r1, sp, #8
 800180a:	a826      	add	r0, sp, #152	@ 0x98
 800180c:	930c      	str	r3, [sp, #48]	@ 0x30
 800180e:	970b      	str	r7, [sp, #44]	@ 0x2c
 8001810:	f7ff feb6 	bl	8001580 <_ZN5Eigen9AngleAxisIdEC1INS_5BlockIKNS_14CwiseNullaryOpINS_8internal18scalar_identity_opIdEENS_6MatrixIdLi3ELi3ELi0ELi3ELi3EEEEELi3ELi1ELb0EEEEERKdRKNS_10MatrixBaseIT_EE>
 8001814:	a91e      	add	r1, sp, #120	@ 0x78
 8001816:	4628      	mov	r0, r5
 8001818:	f7ff fee7 	bl	80015ea <_ZN5Eigen10QuaternionIdLi0EEC1ERKNS_9AngleAxisIdEE>
 800181c:	a926      	add	r1, sp, #152	@ 0x98
 800181e:	4620      	mov	r0, r4
 8001820:	f7ff fee3 	bl	80015ea <_ZN5Eigen10QuaternionIdLi0EEC1ERKNS_9AngleAxisIdEE>
 8001824:	4622      	mov	r2, r4
 8001826:	4629      	mov	r1, r5
 8001828:	4640      	mov	r0, r8
 800182a:	f7ff fe4e 	bl	80014ca <_ZN5Eigen8internal12quat_productILi0ENS_10QuaternionIdLi0EEES3_dE3runERKNS_14QuaternionBaseIS3_EES8_>
 800182e:	aa0e      	add	r2, sp, #56	@ 0x38
 8001830:	4669      	mov	r1, sp
 8001832:	a82e      	add	r0, sp, #184	@ 0xb8
 8001834:	e9cd 770f 	strd	r7, r7, [sp, #60]	@ 0x3c
 8001838:	f7ff fea2 	bl	8001580 <_ZN5Eigen9AngleAxisIdEC1INS_5BlockIKNS_14CwiseNullaryOpINS_8internal18scalar_identity_opIdEENS_6MatrixIdLi3ELi3ELi0ELi3ELi3EEEEELi3ELi1ELb0EEEEERKdRKNS_10MatrixBaseIT_EE>
 800183c:	a92e      	add	r1, sp, #184	@ 0xb8
 800183e:	4628      	mov	r0, r5
 8001840:	f7ff fed3 	bl	80015ea <_ZN5Eigen10QuaternionIdLi0EEC1ERKNS_9AngleAxisIdEE>
 8001844:	462a      	mov	r2, r5
 8001846:	4641      	mov	r1, r8
 8001848:	4620      	mov	r0, r4
 800184a:	f7ff fe3e 	bl	80014ca <_ZN5Eigen8internal12quat_productILi0ENS_10QuaternionIdLi0EEES3_dE3runERKNS_14QuaternionBaseIS3_EES8_>
 800184e:	4635      	mov	r5, r6
 8001850:	cc0f      	ldmia	r4!, {r0, r1, r2, r3}
 8001852:	c50f      	stmia	r5!, {r0, r1, r2, r3}
 8001854:	e894 000f 	ldmia.w	r4, {r0, r1, r2, r3}
 8001858:	e885 000f 	stmia.w	r5, {r0, r1, r2, r3}
 800185c:	4630      	mov	r0, r6
 800185e:	f7fe ff37 	bl	80006d0 <_ZN5Eigen10MatrixBaseINS_6MatrixIdLi4ELi1ELi0ELi4ELi1EEEE9normalizeEv>
 8001862:	4630      	mov	r0, r6
 8001864:	b050      	add	sp, #320	@ 0x140
 8001866:	ecbd 8b0e 	vpop	{d8-d14}
 800186a:	e8bd 81f0 	ldmia.w	sp!, {r4, r5, r6, r7, r8, pc}
	...

08001870 <_Z16timerCounterInitv>:
 8001870:	4a06      	ldr	r2, [pc, #24]	@ (800188c <_Z16timerCounterInitv+0x1c>)
 8001872:	f8d2 30fc 	ldr.w	r3, [r2, #252]	@ 0xfc
 8001876:	f043 7380 	orr.w	r3, r3, #16777216	@ 0x1000000
 800187a:	f8c2 30fc 	str.w	r3, [r2, #252]	@ 0xfc
 800187e:	f5a2 425d 	sub.w	r2, r2, #56576	@ 0xdd00
 8001882:	6813      	ldr	r3, [r2, #0]
 8001884:	f043 0301 	orr.w	r3, r3, #1
 8001888:	6013      	str	r3, [r2, #0]
 800188a:	4770      	bx	lr
 800188c:	e000ed00 	.word	0xe000ed00

08001890 <_Z17timerCounterResetv>:
 8001890:	4b01      	ldr	r3, [pc, #4]	@ (8001898 <_Z17timerCounterResetv+0x8>)
 8001892:	2200      	movs	r2, #0
 8001894:	605a      	str	r2, [r3, #4]
 8001896:	4770      	bx	lr
 8001898:	e0001000 	.word	0xe0001000

0800189c <_Z21timerCounterGetCyclesv>:
 800189c:	4b01      	ldr	r3, [pc, #4]	@ (80018a4 <_Z21timerCounterGetCyclesv+0x8>)
 800189e:	6858      	ldr	r0, [r3, #4]
 80018a0:	4770      	bx	lr
 80018a2:	bf00      	nop
 80018a4:	e0001000 	.word	0xe0001000

080018a8 <_Z18getEllapsedTime_usm>:
 80018a8:	4b05      	ldr	r3, [pc, #20]	@ (80018c0 <_Z18getEllapsedTime_usm+0x18>)
 80018aa:	4a06      	ldr	r2, [pc, #24]	@ (80018c4 <_Z18getEllapsedTime_usm+0x1c>)
 80018ac:	685b      	ldr	r3, [r3, #4]
 80018ae:	1a18      	subs	r0, r3, r0
 80018b0:	4b05      	ldr	r3, [pc, #20]	@ (80018c8 <_Z18getEllapsedTime_usm+0x20>)
 80018b2:	681b      	ldr	r3, [r3, #0]
 80018b4:	fbb3 f3f2 	udiv	r3, r3, r2
 80018b8:	fbb0 f0f3 	udiv	r0, r0, r3
 80018bc:	4770      	bx	lr
 80018be:	bf00      	nop
 80018c0:	e0001000 	.word	0xe0001000
 80018c4:	000f4240 	.word	0x000f4240
 80018c8:	24000004 	.word	0x24000004
 80018cc:	00000000 	.word	0x00000000

080018d0 <_Z17getEllapsedTime_sm>:
 80018d0:	b508      	push	{r3, lr}
 80018d2:	f7ff ffe9 	bl	80018a8 <_Z18getEllapsedTime_usm>
 80018d6:	ee07 0a10 	vmov	s14, r0
 80018da:	ed9f 0b03 	vldr	d0, [pc, #12]	@ 80018e8 <_Z17getEllapsedTime_sm+0x18>
 80018de:	eeb8 7b47 	vcvt.f64.u32	d7, s14
 80018e2:	ee87 0b00 	vdiv.f64	d0, d7, d0
 80018e6:	bd08      	pop	{r3, pc}
 80018e8:	00000000 	.word	0x00000000
 80018ec:	412e8480 	.word	0x412e8480

080018f0 <_ZN10LogManager5setupERK20__UART_HandleTypeDef>:
 80018f0:	2294      	movs	r2, #148	@ 0x94
 80018f2:	b508      	push	{r3, lr}
 80018f4:	f008 fc61 	bl	800a1ba <memcpy>
 80018f8:	bd08      	pop	{r3, pc}
	...

080018fc <_ZN10LogManager11getInstanceEv>:
 80018fc:	b510      	push	{r4, lr}
 80018fe:	4c07      	ldr	r4, [pc, #28]	@ (800191c <_ZN10LogManager11getInstanceEv+0x20>)
 8001900:	6823      	ldr	r3, [r4, #0]
 8001902:	f3bf 8f5b 	dmb	ish
 8001906:	07db      	lsls	r3, r3, #31
 8001908:	d406      	bmi.n	8001918 <_ZN10LogManager11getInstanceEv+0x1c>
 800190a:	4620      	mov	r0, r4
 800190c:	f007 f8cf 	bl	8008aae <__cxa_guard_acquire>
 8001910:	b110      	cbz	r0, 8001918 <_ZN10LogManager11getInstanceEv+0x1c>
 8001912:	4620      	mov	r0, r4
 8001914:	f007 f8d7 	bl	8008ac6 <__cxa_guard_release>
 8001918:	4801      	ldr	r0, [pc, #4]	@ (8001920 <_ZN10LogManager11getInstanceEv+0x24>)
 800191a:	bd10      	pop	{r4, pc}
 800191c:	24000088 	.word	0x24000088
 8001920:	2400008c 	.word	0x2400008c
 8001924:	00000000 	.word	0x00000000

08001928 <_ZN10LogManager11serialPrintERKN5Eigen10QuaternionIdLi0EEE>:
 8001928:	ed9f 6b19 	vldr	d6, [pc, #100]	@ 8001990 <_ZN10LogManager11serialPrintERKN5Eigen10QuaternionIdLi0EEE+0x68>
 800192c:	ed91 7b04 	vldr	d7, [r1, #16]
 8001930:	b510      	push	{r4, lr}
 8001932:	ee27 7b06 	vmul.f64	d7, d7, d6
 8001936:	b0c2      	sub	sp, #264	@ 0x108
 8001938:	4604      	mov	r4, r0
 800193a:	a802      	add	r0, sp, #8
 800193c:	ed91 4b00 	vldr	d4, [r1]
 8001940:	ed91 5b06 	vldr	d5, [r1, #24]
 8001944:	eebd 7bc7 	vcvt.s32.f64	s14, d7
 8001948:	ee24 4b06 	vmul.f64	d4, d4, d6
 800194c:	ed8d 7a01 	vstr	s14, [sp, #4]
 8001950:	ee25 5b06 	vmul.f64	d5, d5, d6
 8001954:	ed91 7b02 	vldr	d7, [r1, #8]
 8001958:	490f      	ldr	r1, [pc, #60]	@ (8001998 <_ZN10LogManager11serialPrintERKN5Eigen10QuaternionIdLi0EEE+0x70>)
 800195a:	ee27 7b06 	vmul.f64	d7, d7, d6
 800195e:	eebd 7bc7 	vcvt.s32.f64	s14, d7
 8001962:	eefd 7bc4 	vcvt.s32.f64	s15, d4
 8001966:	ed8d 7a00 	vstr	s14, [sp]
 800196a:	ee17 3a90 	vmov	r3, s15
 800196e:	eefd 7bc5 	vcvt.s32.f64	s15, d5
 8001972:	ee17 2a90 	vmov	r2, s15
 8001976:	f008 fae7 	bl	8009f48 <siprintf>
 800197a:	2364      	movs	r3, #100	@ 0x64
 800197c:	b282      	uxth	r2, r0
 800197e:	a902      	add	r1, sp, #8
 8001980:	4620      	mov	r0, r4
 8001982:	f006 ff36 	bl	80087f2 <HAL_UART_Transmit>
 8001986:	b042      	add	sp, #264	@ 0x108
 8001988:	bd10      	pop	{r4, pc}
 800198a:	bf00      	nop
 800198c:	f3af 8000 	nop.w
 8001990:	00000000 	.word	0x00000000
 8001994:	40c38800 	.word	0x40c38800
 8001998:	0800b26c 	.word	0x0800b26c

0800199c <_Z18SystemClock_Configv>:
 800199c:	b530      	push	{r4, r5, lr}
 800199e:	b09f      	sub	sp, #124	@ 0x7c
 80019a0:	224c      	movs	r2, #76	@ 0x4c
 80019a2:	2100      	movs	r1, #0
 80019a4:	a80b      	add	r0, sp, #44	@ 0x2c
 80019a6:	f008 fbc3 	bl	800a130 <memset>
 80019aa:	2220      	movs	r2, #32
 80019ac:	2100      	movs	r1, #0
 80019ae:	a803      	add	r0, sp, #12
 80019b0:	f008 fbbe 	bl	800a130 <memset>
 80019b4:	2002      	movs	r0, #2
 80019b6:	f004 fd47 	bl	8006448 <HAL_PWREx_ConfigSupply>
 80019ba:	2300      	movs	r3, #0
 80019bc:	9300      	str	r3, [sp, #0]
 80019be:	4b35      	ldr	r3, [pc, #212]	@ (8001a94 <_Z18SystemClock_Configv+0xf8>)
 80019c0:	6ada      	ldr	r2, [r3, #44]	@ 0x2c
 80019c2:	f022 0201 	bic.w	r2, r2, #1
 80019c6:	62da      	str	r2, [r3, #44]	@ 0x2c
 80019c8:	6adb      	ldr	r3, [r3, #44]	@ 0x2c
 80019ca:	f003 0301 	and.w	r3, r3, #1
 80019ce:	9300      	str	r3, [sp, #0]
 80019d0:	4b31      	ldr	r3, [pc, #196]	@ (8001a98 <_Z18SystemClock_Configv+0xfc>)
 80019d2:	699a      	ldr	r2, [r3, #24]
 80019d4:	f442 4240 	orr.w	r2, r2, #49152	@ 0xc000
 80019d8:	619a      	str	r2, [r3, #24]
 80019da:	699a      	ldr	r2, [r3, #24]
 80019dc:	f402 4240 	and.w	r2, r2, #49152	@ 0xc000
 80019e0:	9200      	str	r2, [sp, #0]
 80019e2:	9a00      	ldr	r2, [sp, #0]
 80019e4:	699a      	ldr	r2, [r3, #24]
 80019e6:	0490      	lsls	r0, r2, #18
 80019e8:	d5fc      	bpl.n	80019e4 <_Z18SystemClock_Configv+0x48>
 80019ea:	4a2c      	ldr	r2, [pc, #176]	@ (8001a9c <_Z18SystemClock_Configv+0x100>)
 80019ec:	f8d2 10f4 	ldr.w	r1, [r2, #244]	@ 0xf4
 80019f0:	f041 0102 	orr.w	r1, r1, #2
 80019f4:	f8c2 10f4 	str.w	r1, [r2, #244]	@ 0xf4
 80019f8:	f8d2 20f4 	ldr.w	r2, [r2, #244]	@ 0xf4
 80019fc:	f002 0202 	and.w	r2, r2, #2
 8001a00:	9201      	str	r2, [sp, #4]
 8001a02:	9a01      	ldr	r2, [sp, #4]
 8001a04:	2200      	movs	r2, #0
 8001a06:	9202      	str	r2, [sp, #8]
 8001a08:	699a      	ldr	r2, [r3, #24]
 8001a0a:	f442 4240 	orr.w	r2, r2, #49152	@ 0xc000
 8001a0e:	619a      	str	r2, [r3, #24]
 8001a10:	699b      	ldr	r3, [r3, #24]
 8001a12:	f403 4340 	and.w	r3, r3, #49152	@ 0xc000
 8001a16:	9302      	str	r3, [sp, #8]
 8001a18:	4b1e      	ldr	r3, [pc, #120]	@ (8001a94 <_Z18SystemClock_Configv+0xf8>)
 8001a1a:	6ada      	ldr	r2, [r3, #44]	@ 0x2c
 8001a1c:	f042 0201 	orr.w	r2, r2, #1
 8001a20:	62da      	str	r2, [r3, #44]	@ 0x2c
 8001a22:	6adb      	ldr	r3, [r3, #44]	@ 0x2c
 8001a24:	4a1c      	ldr	r2, [pc, #112]	@ (8001a98 <_Z18SystemClock_Configv+0xfc>)
 8001a26:	f003 0301 	and.w	r3, r3, #1
 8001a2a:	9302      	str	r3, [sp, #8]
 8001a2c:	9b02      	ldr	r3, [sp, #8]
 8001a2e:	6993      	ldr	r3, [r2, #24]
 8001a30:	0499      	lsls	r1, r3, #18
 8001a32:	d5fc      	bpl.n	8001a2e <_Z18SystemClock_Configv+0x92>
 8001a34:	2302      	movs	r3, #2
 8001a36:	2201      	movs	r2, #1
 8001a38:	2440      	movs	r4, #64	@ 0x40
 8001a3a:	213b      	movs	r1, #59	@ 0x3b
 8001a3c:	2504      	movs	r5, #4
 8001a3e:	930b      	str	r3, [sp, #44]	@ 0x2c
 8001a40:	9314      	str	r3, [sp, #80]	@ 0x50
 8001a42:	a80b      	add	r0, sp, #44	@ 0x2c
 8001a44:	e9cd 240e 	strd	r2, r4, [sp, #56]	@ 0x38
 8001a48:	e9cd 1317 	strd	r1, r3, [sp, #92]	@ 0x5c
 8001a4c:	2200      	movs	r2, #0
 8001a4e:	e9cd 3319 	strd	r3, r3, [sp, #100]	@ 0x64
 8001a52:	230c      	movs	r3, #12
 8001a54:	921d      	str	r2, [sp, #116]	@ 0x74
 8001a56:	e9cd 2515 	strd	r2, r5, [sp, #84]	@ 0x54
 8001a5a:	e9cd 321b 	strd	r3, r2, [sp, #108]	@ 0x6c
 8001a5e:	f004 fd17 	bl	8006490 <HAL_RCC_OscConfig>
 8001a62:	b108      	cbz	r0, 8001a68 <_Z18SystemClock_Configv+0xcc>
 8001a64:	b672      	cpsid	i
 8001a66:	e7fe      	b.n	8001a66 <_Z18SystemClock_Configv+0xca>
 8001a68:	2303      	movs	r3, #3
 8001a6a:	223f      	movs	r2, #63	@ 0x3f
 8001a6c:	9005      	str	r0, [sp, #20]
 8001a6e:	4629      	mov	r1, r5
 8001a70:	a803      	add	r0, sp, #12
 8001a72:	9408      	str	r4, [sp, #32]
 8001a74:	e9cd 2303 	strd	r2, r3, [sp, #12]
 8001a78:	2308      	movs	r3, #8
 8001a7a:	e9cd 3406 	strd	r3, r4, [sp, #24]
 8001a7e:	f44f 6380 	mov.w	r3, #1024	@ 0x400
 8001a82:	e9cd 3409 	strd	r3, r4, [sp, #36]	@ 0x24
 8001a86:	f005 f851 	bl	8006b2c <HAL_RCC_ClockConfig>
 8001a8a:	b108      	cbz	r0, 8001a90 <_Z18SystemClock_Configv+0xf4>
 8001a8c:	b672      	cpsid	i
 8001a8e:	e7fe      	b.n	8001a8e <_Z18SystemClock_Configv+0xf2>
 8001a90:	b01f      	add	sp, #124	@ 0x7c
 8001a92:	bd30      	pop	{r4, r5, pc}
 8001a94:	58000400 	.word	0x58000400
 8001a98:	58024800 	.word	0x58024800
 8001a9c:	58024400 	.word	0x58024400

08001aa0 <main>:
 8001aa0:	e92d 43f0 	stmdb	sp!, {r4, r5, r6, r7, r8, r9, lr}
 8001aa4:	2710      	movs	r7, #16
 8001aa6:	2100      	movs	r1, #0
 8001aa8:	2500      	movs	r5, #0
 8001aaa:	2401      	movs	r4, #1
 8001aac:	463a      	mov	r2, r7
 8001aae:	f8df 8190 	ldr.w	r8, [pc, #400]	@ 8001c40 <main+0x1a0>
 8001ab2:	ed2d 8b02 	vpush	{d8}
 8001ab6:	f2ad 7d0c 	subw	sp, sp, #1804	@ 0x70c
 8001aba:	a847      	add	r0, sp, #284	@ 0x11c
 8001abc:	f20d 163f 	addw	r6, sp, #319	@ 0x13f
 8001ac0:	f008 fb36 	bl	800a130 <memset>
 8001ac4:	f004 faec 	bl	80060a0 <HAL_MPU_Disable>
 8001ac8:	f248 731f 	movw	r3, #34591	@ 0x871f
 8001acc:	a847      	add	r0, sp, #284	@ 0x11c
 8001ace:	f8ad 411c 	strh.w	r4, [sp, #284]	@ 0x11c
 8001ad2:	f026 060f 	bic.w	r6, r6, #15
 8001ad6:	e9cd 5348 	strd	r5, r3, [sp, #288]	@ 0x120
 8001ada:	f240 1301 	movw	r3, #257	@ 0x101
 8001ade:	934a      	str	r3, [sp, #296]	@ 0x128
 8001ae0:	f004 fafc 	bl	80060dc <HAL_MPU_ConfigRegion>
 8001ae4:	2004      	movs	r0, #4
 8001ae6:	f004 fae9 	bl	80060bc <HAL_MPU_Enable>
 8001aea:	f004 fa29 	bl	8005f40 <HAL_Init>
 8001aee:	f7ff ff55 	bl	800199c <_Z18SystemClock_Configv>
 8001af2:	2214      	movs	r2, #20
 8001af4:	4629      	mov	r1, r5
 8001af6:	a847      	add	r0, sp, #284	@ 0x11c
 8001af8:	f008 fb1a 	bl	800a130 <memset>
 8001afc:	4b4b      	ldr	r3, [pc, #300]	@ (8001c2c <main+0x18c>)
 8001afe:	4639      	mov	r1, r7
 8001b00:	4640      	mov	r0, r8
 8001b02:	f8d3 20e0 	ldr.w	r2, [r3, #224]	@ 0xe0
 8001b06:	4322      	orrs	r2, r4
 8001b08:	f8c3 20e0 	str.w	r2, [r3, #224]	@ 0xe0
 8001b0c:	462a      	mov	r2, r5
 8001b0e:	f8d3 30e0 	ldr.w	r3, [r3, #224]	@ 0xe0
 8001b12:	4023      	ands	r3, r4
 8001b14:	9346      	str	r3, [sp, #280]	@ 0x118
 8001b16:	9b46      	ldr	r3, [sp, #280]	@ 0x118
 8001b18:	f004 fc90 	bl	800643c <HAL_GPIO_WritePin>
 8001b1c:	a947      	add	r1, sp, #284	@ 0x11c
 8001b1e:	4640      	mov	r0, r8
 8001b20:	e9cd 7447 	strd	r7, r4, [sp, #284]	@ 0x11c
 8001b24:	e9cd 5549 	strd	r5, r5, [sp, #292]	@ 0x124
 8001b28:	4c41      	ldr	r4, [pc, #260]	@ (8001c30 <main+0x190>)
 8001b2a:	f004 fb03 	bl	8006134 <HAL_GPIO_Init>
 8001b2e:	f44f 0380 	mov.w	r3, #4194304	@ 0x400000
 8001b32:	4940      	ldr	r1, [pc, #256]	@ (8001c34 <main+0x194>)
 8001b34:	2007      	movs	r0, #7
 8001b36:	f04f 7c80 	mov.w	ip, #16777216	@ 0x1000000
 8001b3a:	60a5      	str	r5, [r4, #8]
 8001b3c:	62e5      	str	r5, [r4, #44]	@ 0x2c
 8001b3e:	e9c4 1300 	strd	r1, r3, [r4]
 8001b42:	f04f 7300 	mov.w	r3, #33554432	@ 0x2000000
 8001b46:	e9c4 0303 	strd	r0, r3, [r4, #12]
 8001b4a:	f04f 6380 	mov.w	r3, #67108864	@ 0x4000000
 8001b4e:	4620      	mov	r0, r4
 8001b50:	e9c4 c305 	strd	ip, r3, [r4, #20]
 8001b54:	f04f 4380 	mov.w	r3, #1073741824	@ 0x40000000
 8001b58:	e9c4 5509 	strd	r5, r5, [r4, #36]	@ 0x24
 8001b5c:	e9c4 3507 	strd	r3, r5, [r4, #28]
 8001b60:	e9c4 350d 	strd	r3, r5, [r4, #52]	@ 0x34
 8001b64:	e9c4 550f 	strd	r5, r5, [r4, #60]	@ 0x3c
 8001b68:	e9c4 5511 	strd	r5, r5, [r4, #68]	@ 0x44
 8001b6c:	e9c4 5513 	strd	r5, r5, [r4, #76]	@ 0x4c
 8001b70:	e9c4 5515 	strd	r5, r5, [r4, #84]	@ 0x54
 8001b74:	f006 f8da 	bl	8007d2c <HAL_SPI_Init>
 8001b78:	b108      	cbz	r0, 8001b7e <main+0xde>
 8001b7a:	b672      	cpsid	i
 8001b7c:	e7fe      	b.n	8001b7c <main+0xdc>
 8001b7e:	4d2e      	ldr	r5, [pc, #184]	@ (8001c38 <main+0x198>)
 8001b80:	f44f 33e1 	mov.w	r3, #115200	@ 0x1c200
 8001b84:	4a2d      	ldr	r2, [pc, #180]	@ (8001c3c <main+0x19c>)
 8001b86:	6128      	str	r0, [r5, #16]
 8001b88:	e9c5 2300 	strd	r2, r3, [r5]
 8001b8c:	230c      	movs	r3, #12
 8001b8e:	e9c5 0002 	strd	r0, r0, [r5, #8]
 8001b92:	e9c5 3005 	strd	r3, r0, [r5, #20]
 8001b96:	e9c5 0007 	strd	r0, r0, [r5, #28]
 8001b9a:	e9c5 0009 	strd	r0, r0, [r5, #36]	@ 0x24
 8001b9e:	4628      	mov	r0, r5
 8001ba0:	f006 fed7 	bl	8008952 <HAL_UART_Init>
 8001ba4:	4601      	mov	r1, r0
 8001ba6:	b108      	cbz	r0, 8001bac <main+0x10c>
 8001ba8:	b672      	cpsid	i
 8001baa:	e7fe      	b.n	8001baa <main+0x10a>
 8001bac:	4628      	mov	r0, r5
 8001bae:	f006 ff3e 	bl	8008a2e <HAL_UARTEx_SetTxFifoThreshold>
 8001bb2:	4601      	mov	r1, r0
 8001bb4:	b108      	cbz	r0, 8001bba <main+0x11a>
 8001bb6:	b672      	cpsid	i
 8001bb8:	e7fe      	b.n	8001bb8 <main+0x118>
 8001bba:	4628      	mov	r0, r5
 8001bbc:	f006 ff57 	bl	8008a6e <HAL_UARTEx_SetRxFifoThreshold>
 8001bc0:	b108      	cbz	r0, 8001bc6 <main+0x126>
 8001bc2:	b672      	cpsid	i
 8001bc4:	e7fe      	b.n	8001bc4 <main+0x124>
 8001bc6:	4628      	mov	r0, r5
 8001bc8:	f006 ff16 	bl	80089f8 <HAL_UARTEx_DisableFifoMode>
 8001bcc:	4681      	mov	r9, r0
 8001bce:	b108      	cbz	r0, 8001bd4 <main+0x134>
 8001bd0:	b672      	cpsid	i
 8001bd2:	e7fe      	b.n	8001bd2 <main+0x132>
 8001bd4:	f7ff fe4c 	bl	8001870 <_Z16timerCounterInitv>
 8001bd8:	f7ff fe5a 	bl	8001890 <_Z17timerCounterResetv>
 8001bdc:	2294      	movs	r2, #148	@ 0x94
 8001bde:	4629      	mov	r1, r5
 8001be0:	a821      	add	r0, sp, #132	@ 0x84
 8001be2:	f008 faea 	bl	800a1ba <memcpy>
 8001be6:	227c      	movs	r2, #124	@ 0x7c
 8001be8:	f104 010c 	add.w	r1, r4, #12
 8001bec:	4668      	mov	r0, sp
 8001bee:	e9cd 781f 	strd	r7, r8, [sp, #124]	@ 0x7c
 8001bf2:	f008 fae2 	bl	800a1ba <memcpy>
 8001bf6:	4630      	mov	r0, r6
 8001bf8:	e894 000e 	ldmia.w	r4, {r1, r2, r3}
 8001bfc:	f002 ff18 	bl	8004a30 <_ZN15DroneControllerC1E19__SPI_HandleTypeDeftP12GPIO_TypeDef20__UART_HandleTypeDef>
 8001c00:	4630      	mov	r0, r6
 8001c02:	f000 fbcf 	bl	80023a4 <_ZN15DroneController9mainSetupEv>
 8001c06:	200a      	movs	r0, #10
 8001c08:	f004 f9da 	bl	8005fc0 <HAL_Delay>
 8001c0c:	4648      	mov	r0, r9
 8001c0e:	f7ff fe5f 	bl	80018d0 <_Z17getEllapsedTime_sm>
 8001c12:	eeb0 8b40 	vmov.f64	d8, d0
 8001c16:	f7ff fe3b 	bl	8001890 <_Z17timerCounterResetv>
 8001c1a:	f7ff fe3f 	bl	800189c <_Z21timerCounterGetCyclesv>
 8001c1e:	4681      	mov	r9, r0
 8001c20:	eeb0 0b48 	vmov.f64	d0, d8
 8001c24:	4630      	mov	r0, r6
 8001c26:	f000 fca1 	bl	800256c <_ZN15DroneController8mainLoopEd>
 8001c2a:	e7ec      	b.n	8001c06 <main+0x166>
 8001c2c:	58024400 	.word	0x58024400
 8001c30:	240001b4 	.word	0x240001b4
 8001c34:	40013000 	.word	0x40013000
 8001c38:	24000120 	.word	0x24000120
 8001c3c:	40004400 	.word	0x40004400
 8001c40:	58020000 	.word	0x58020000

08001c44 <Error_Handler>:
 8001c44:	b672      	cpsid	i
 8001c46:	e7fe      	b.n	8001c46 <Error_Handler+0x2>

08001c48 <_ZN5Eigen8internal22lhs_process_one_packetILi4ELi1ELi1EdddddddNS0_11gebp_traitsIddLb0ELb0ELi0ELi0EEENS0_16BlasLinearMapperIdiLi0ELi1EEENS0_16blas_data_mapperIdiLi0ELi0ELi1EEEE17peeled_kc_onestepEiPKdSA_S3_PdPNS0_10QuadPacketIdEESB_SB_SB_SB_SB_.isra.0>:
 8001c48:	e92d 43f0 	stmdb	sp!, {r4, r5, r6, r7, r8, r9, lr}
 8001c4c:	9e0d      	ldr	r6, [sp, #52]	@ 0x34
 8001c4e:	e9dd 5407 	ldrd	r5, r4, [sp, #28]
 8001c52:	e9dd 3e09 	ldrd	r3, lr, [sp, #36]	@ 0x24
 8001c56:	e9dd c70b 	ldrd	ip, r7, [sp, #44]	@ 0x2c
 8001c5a:	eb01 01c0 	add.w	r1, r1, r0, lsl #3
 8001c5e:	eb02 1240 	add.w	r2, r2, r0, lsl #5
 8001c62:	e9d1 8900 	ldrd	r8, r9, [r1]
 8001c66:	e9c5 8900 	strd	r8, r9, [r5]
 8001c6a:	ed92 7b00 	vldr	d7, [r2]
 8001c6e:	ed84 7b00 	vstr	d7, [r4]
 8001c72:	e9d2 0102 	ldrd	r0, r1, [r2, #8]
 8001c76:	e9c4 0102 	strd	r0, r1, [r4, #8]
 8001c7a:	e9d2 0104 	ldrd	r0, r1, [r2, #16]
 8001c7e:	e9c4 0104 	strd	r0, r1, [r4, #16]
 8001c82:	e9d2 0106 	ldrd	r0, r1, [r2, #24]
 8001c86:	e9c4 0106 	strd	r0, r1, [r4, #24]
 8001c8a:	ed83 7b00 	vstr	d7, [r3]
 8001c8e:	ed95 6b00 	vldr	d6, [r5]
 8001c92:	ee27 7b06 	vmul.f64	d7, d7, d6
 8001c96:	ed83 7b00 	vstr	d7, [r3]
 8001c9a:	ed9e 6b00 	vldr	d6, [lr]
 8001c9e:	ee36 6b07 	vadd.f64	d6, d6, d7
 8001ca2:	ed8e 6b00 	vstr	d6, [lr]
 8001ca6:	ed94 7b02 	vldr	d7, [r4, #8]
 8001caa:	ed83 7b00 	vstr	d7, [r3]
 8001cae:	ed95 6b00 	vldr	d6, [r5]
 8001cb2:	ee27 7b06 	vmul.f64	d7, d7, d6
 8001cb6:	ed83 7b00 	vstr	d7, [r3]
 8001cba:	ed9c 6b00 	vldr	d6, [ip]
 8001cbe:	ee36 6b07 	vadd.f64	d6, d6, d7
 8001cc2:	ed8c 6b00 	vstr	d6, [ip]
 8001cc6:	ed94 7b04 	vldr	d7, [r4, #16]
 8001cca:	ed83 7b00 	vstr	d7, [r3]
 8001cce:	ed95 6b00 	vldr	d6, [r5]
 8001cd2:	ee27 7b06 	vmul.f64	d7, d7, d6
 8001cd6:	ed83 7b00 	vstr	d7, [r3]
 8001cda:	ed97 6b00 	vldr	d6, [r7]
 8001cde:	ee36 6b07 	vadd.f64	d6, d6, d7
 8001ce2:	ed87 6b00 	vstr	d6, [r7]
 8001ce6:	ed94 7b06 	vldr	d7, [r4, #24]
 8001cea:	ed83 7b00 	vstr	d7, [r3]
 8001cee:	ed95 6b00 	vldr	d6, [r5]
 8001cf2:	ee27 7b06 	vmul.f64	d7, d7, d6
 8001cf6:	ed83 7b00 	vstr	d7, [r3]
 8001cfa:	ed96 6b00 	vldr	d6, [r6]
 8001cfe:	ee36 6b07 	vadd.f64	d6, d6, d7
 8001d02:	ed86 6b00 	vstr	d6, [r6]
 8001d06:	e8bd 83f0 	ldmia.w	sp!, {r4, r5, r6, r7, r8, r9, pc}
	...

08001d0c <_ZN5Eigen8internal13gemm_pack_lhsIdiNS0_22const_blas_data_mapperIdiLi0EEELi1ELi1EdLi0ELb0ELb0EEclEPdRKS3_iiii.isra.0>:
 8001d0c:	e92d 4df0 	stmdb	sp!, {r4, r5, r6, r7, r8, sl, fp, lr}
 8001d10:	e9dd 4508 	ldrd	r4, r5, [sp, #32]
 8001d14:	432c      	orrs	r4, r5
 8001d16:	d01b      	beq.n	8001d50 <_ZN5Eigen8internal13gemm_pack_lhsIdiNS0_22const_blas_data_mapperIdiLi0EEELi1ELi1EdLi0ELb0ELb0EEclEPdRKS3_iiii.isra.0+0x44>
 8001d18:	4b10      	ldr	r3, [pc, #64]	@ (8001d5c <_ZN5Eigen8internal13gemm_pack_lhsIdiNS0_22const_blas_data_mapperIdiLi0EEELi1ELi1EdLi0ELb0ELb0EEclEPdRKS3_iiii.isra.0+0x50>)
 8001d1a:	f640 013e 	movw	r1, #2110	@ 0x83e
 8001d1e:	4a10      	ldr	r2, [pc, #64]	@ (8001d60 <_ZN5Eigen8internal13gemm_pack_lhsIdiNS0_22const_blas_data_mapperIdiLi0EEELi1ELi1EdLi0ELb0ELb0EEclEPdRKS3_iiii.isra.0+0x54>)
 8001d20:	4810      	ldr	r0, [pc, #64]	@ (8001d64 <_ZN5Eigen8internal13gemm_pack_lhsIdiNS0_22const_blas_data_mapperIdiLi0EEELi1ELi1EdLi0ELb0ELb0EEclEPdRKS3_iiii.isra.0+0x58>)
 8001d22:	f008 f835 	bl	8009d90 <__assert_func>
 8001d26:	684f      	ldr	r7, [r1, #4]
 8001d28:	fb07 4c05 	mla	ip, r7, r5, r4
 8001d2c:	680f      	ldr	r7, [r1, #0]
 8001d2e:	3501      	adds	r5, #1
 8001d30:	eb07 07cc 	add.w	r7, r7, ip, lsl #3
 8001d34:	e9d7 ab00 	ldrd	sl, fp, [r7]
 8001d38:	e8ee ab02 	strd	sl, fp, [lr], #8
 8001d3c:	4295      	cmp	r5, r2
 8001d3e:	dbf2      	blt.n	8001d26 <_ZN5Eigen8internal13gemm_pack_lhsIdiNS0_22const_blas_data_mapperIdiLi0EEELi1ELi1EdLi0ELb0ELb0EEclEPdRKS3_iiii.isra.0+0x1a>
 8001d40:	4446      	add	r6, r8
 8001d42:	3401      	adds	r4, #1
 8001d44:	429c      	cmp	r4, r3
 8001d46:	da07      	bge.n	8001d58 <_ZN5Eigen8internal13gemm_pack_lhsIdiNS0_22const_blas_data_mapperIdiLi0EEELi1ELi1EdLi0ELb0ELb0EEclEPdRKS3_iiii.isra.0+0x4c>
 8001d48:	eb00 0ec6 	add.w	lr, r0, r6, lsl #3
 8001d4c:	2500      	movs	r5, #0
 8001d4e:	e7f5      	b.n	8001d3c <_ZN5Eigen8internal13gemm_pack_lhsIdiNS0_22const_blas_data_mapperIdiLi0EEELi1ELi1EdLi0ELb0ELb0EEclEPdRKS3_iiii.isra.0+0x30>
 8001d50:	4626      	mov	r6, r4
 8001d52:	ea22 78e2 	bic.w	r8, r2, r2, asr #31
 8001d56:	e7f5      	b.n	8001d44 <_ZN5Eigen8internal13gemm_pack_lhsIdiNS0_22const_blas_data_mapperIdiLi0EEELi1ELi1EdLi0ELb0ELb0EEclEPdRKS3_iiii.isra.0+0x38>
 8001d58:	e8bd 8df0 	ldmia.w	sp!, {r4, r5, r6, r7, r8, sl, fp, pc}
 8001d5c:	0800b279 	.word	0x0800b279
 8001d60:	0800b2d4 	.word	0x0800b2d4
 8001d64:	0800b44f 	.word	0x0800b44f

08001d68 <_ZN5Eigen8internal13gemm_pack_rhsIdiNS0_16blas_data_mapperIdiLi0ELi0ELi1EEELi4ELi0ELb0ELb1EEclEPdRKS3_iiii.isra.0>:
 8001d68:	e92d 4ff0 	stmdb	sp!, {r4, r5, r6, r7, r8, r9, sl, fp, lr}
 8001d6c:	b087      	sub	sp, #28
 8001d6e:	e9dd 6910 	ldrd	r6, r9, [sp, #64]	@ 0x40
 8001d72:	9002      	str	r0, [sp, #8]
 8001d74:	42b2      	cmp	r2, r6
 8001d76:	dc01      	bgt.n	8001d7c <_ZN5Eigen8internal13gemm_pack_rhsIdiNS0_16blas_data_mapperIdiLi0ELi0ELi1EEELi4ELi0ELb0ELb1EEclEPdRKS3_iiii.isra.0+0x14>
 8001d78:	454e      	cmp	r6, r9
 8001d7a:	da06      	bge.n	8001d8a <_ZN5Eigen8internal13gemm_pack_rhsIdiNS0_16blas_data_mapperIdiLi0ELi0ELi1EEELi4ELi0ELb0ELb1EEclEPdRKS3_iiii.isra.0+0x22>
 8001d7c:	4b41      	ldr	r3, [pc, #260]	@ (8001e84 <_ZN5Eigen8internal13gemm_pack_rhsIdiNS0_16blas_data_mapperIdiLi0ELi0ELi1EEELi4ELi0ELb0ELb1EEclEPdRKS3_iiii.isra.0+0x11c>)
 8001d7e:	f640 1158 	movw	r1, #2392	@ 0x958
 8001d82:	4a41      	ldr	r2, [pc, #260]	@ (8001e88 <_ZN5Eigen8internal13gemm_pack_rhsIdiNS0_16blas_data_mapperIdiLi0ELi0ELi1EEELi4ELi0ELb0ELb1EEclEPdRKS3_iiii.isra.0+0x120>)
 8001d84:	4841      	ldr	r0, [pc, #260]	@ (8001e8c <_ZN5Eigen8internal13gemm_pack_rhsIdiNS0_16blas_data_mapperIdiLi0ELi0ELi1EEELi4ELi0ELb0ELb1EEclEPdRKS3_iiii.isra.0+0x124>)
 8001d86:	f008 f803 	bl	8009d90 <__assert_func>
 8001d8a:	425c      	negs	r4, r3
 8001d8c:	f003 0503 	and.w	r5, r3, #3
 8001d90:	ea4f 0089 	mov.w	r0, r9, lsl #2
 8001d94:	f04f 0700 	mov.w	r7, #0
 8001d98:	f004 0403 	and.w	r4, r4, #3
 8001d9c:	9003      	str	r0, [sp, #12]
 8001d9e:	bf58      	it	pl
 8001da0:	4265      	negpl	r5, r4
 8001da2:	eba6 0409 	sub.w	r4, r6, r9
 8001da6:	1aa4      	subs	r4, r4, r2
 8001da8:	1b5d      	subs	r5, r3, r5
 8001daa:	00a0      	lsls	r0, r4, #2
 8001dac:	463c      	mov	r4, r7
 8001dae:	9004      	str	r0, [sp, #16]
 8001db0:	ea22 70e2 	bic.w	r0, r2, r2, asr #31
 8001db4:	9000      	str	r0, [sp, #0]
 8001db6:	0080      	lsls	r0, r0, #2
 8001db8:	9005      	str	r0, [sp, #20]
 8001dba:	42bd      	cmp	r5, r7
 8001dbc:	dc07      	bgt.n	8001dce <_ZN5Eigen8internal13gemm_pack_rhsIdiNS0_16blas_data_mapperIdiLi0ELi0ELi1EEELi4ELi0ELb0ELb1EEclEPdRKS3_iiii.isra.0+0x66>
 8001dbe:	eba6 0609 	sub.w	r6, r6, r9
 8001dc2:	1ab6      	subs	r6, r6, r2
 8001dc4:	42ab      	cmp	r3, r5
 8001dc6:	dc42      	bgt.n	8001e4e <_ZN5Eigen8internal13gemm_pack_rhsIdiNS0_16blas_data_mapperIdiLi0ELi0ELi1EEELi4ELi0ELb0ELb1EEclEPdRKS3_iiii.isra.0+0xe6>
 8001dc8:	b007      	add	sp, #28
 8001dca:	e8bd 8ff0 	ldmia.w	sp!, {r4, r5, r6, r7, r8, r9, sl, fp, pc}
 8001dce:	f8d1 a004 	ldr.w	sl, [r1, #4]
 8001dd2:	f107 0803 	add.w	r8, r7, #3
 8001dd6:	9803      	ldr	r0, [sp, #12]
 8001dd8:	fb07 fc0a 	mul.w	ip, r7, sl
 8001ddc:	4404      	add	r4, r0
 8001dde:	6808      	ldr	r0, [r1, #0]
 8001de0:	fb07 ae0a 	mla	lr, r7, sl, sl
 8001de4:	eb00 0bcc 	add.w	fp, r0, ip, lsl #3
 8001de8:	9802      	ldr	r0, [sp, #8]
 8001dea:	fb0a f808 	mul.w	r8, sl, r8
 8001dee:	eb00 0cc4 	add.w	ip, r0, r4, lsl #3
 8001df2:	6808      	ldr	r0, [r1, #0]
 8001df4:	eb00 00ce 	add.w	r0, r0, lr, lsl #3
 8001df8:	f107 0e02 	add.w	lr, r7, #2
 8001dfc:	9001      	str	r0, [sp, #4]
 8001dfe:	fb0a fe0e 	mul.w	lr, sl, lr
 8001e02:	6808      	ldr	r0, [r1, #0]
 8001e04:	f04f 0a00 	mov.w	sl, #0
 8001e08:	eb00 0ece 	add.w	lr, r0, lr, lsl #3
 8001e0c:	eb00 08c8 	add.w	r8, r0, r8, lsl #3
 8001e10:	4552      	cmp	r2, sl
 8001e12:	f10c 0c20 	add.w	ip, ip, #32
 8001e16:	dc05      	bgt.n	8001e24 <_ZN5Eigen8internal13gemm_pack_rhsIdiNS0_16blas_data_mapperIdiLi0ELi0ELi1EEELi4ELi0ELb0ELb1EEclEPdRKS3_iiii.isra.0+0xbc>
 8001e18:	9805      	ldr	r0, [sp, #20]
 8001e1a:	3704      	adds	r7, #4
 8001e1c:	4404      	add	r4, r0
 8001e1e:	9804      	ldr	r0, [sp, #16]
 8001e20:	4404      	add	r4, r0
 8001e22:	e7ca      	b.n	8001dba <_ZN5Eigen8internal13gemm_pack_rhsIdiNS0_16blas_data_mapperIdiLi0ELi0ELi1EEELi4ELi0ELb0ELb1EEclEPdRKS3_iiii.isra.0+0x52>
 8001e24:	ecbb 7b02 	vldmia	fp!, {d7}
 8001e28:	9801      	ldr	r0, [sp, #4]
 8001e2a:	f10a 0a01 	add.w	sl, sl, #1
 8001e2e:	ed0c 7b08 	vstr	d7, [ip, #-32]	@ 0xffffffe0
 8001e32:	ecb0 7b02 	vldmia	r0!, {d7}
 8001e36:	ed0c 7b06 	vstr	d7, [ip, #-24]	@ 0xffffffe8
 8001e3a:	ecbe 7b02 	vldmia	lr!, {d7}
 8001e3e:	9001      	str	r0, [sp, #4]
 8001e40:	ed0c 7b04 	vstr	d7, [ip, #-16]
 8001e44:	ecb8 7b02 	vldmia	r8!, {d7}
 8001e48:	ed0c 7b02 	vstr	d7, [ip, #-8]
 8001e4c:	e7e0      	b.n	8001e10 <_ZN5Eigen8internal13gemm_pack_rhsIdiNS0_16blas_data_mapperIdiLi0ELi0ELi1EEELi4ELi0ELb0ELb1EEclEPdRKS3_iiii.isra.0+0xa8>
 8001e4e:	684f      	ldr	r7, [r1, #4]
 8001e50:	444c      	add	r4, r9
 8001e52:	9802      	ldr	r0, [sp, #8]
 8001e54:	fb07 fc05 	mul.w	ip, r7, r5
 8001e58:	680f      	ldr	r7, [r1, #0]
 8001e5a:	eb00 0ec4 	add.w	lr, r0, r4, lsl #3
 8001e5e:	eb07 07cc 	add.w	r7, r7, ip, lsl #3
 8001e62:	f04f 0c00 	mov.w	ip, #0
 8001e66:	4562      	cmp	r2, ip
 8001e68:	dc04      	bgt.n	8001e74 <_ZN5Eigen8internal13gemm_pack_rhsIdiNS0_16blas_data_mapperIdiLi0ELi0ELi1EEELi4ELi0ELb0ELb1EEclEPdRKS3_iiii.isra.0+0x10c>
 8001e6a:	9800      	ldr	r0, [sp, #0]
 8001e6c:	3501      	adds	r5, #1
 8001e6e:	4404      	add	r4, r0
 8001e70:	4434      	add	r4, r6
 8001e72:	e7a7      	b.n	8001dc4 <_ZN5Eigen8internal13gemm_pack_rhsIdiNS0_16blas_data_mapperIdiLi0ELi0ELi1EEELi4ELi0ELb0ELb1EEclEPdRKS3_iiii.isra.0+0x5c>
 8001e74:	e8f7 ab02 	ldrd	sl, fp, [r7], #8
 8001e78:	f10c 0c01 	add.w	ip, ip, #1
 8001e7c:	e8ee ab02 	strd	sl, fp, [lr], #8
 8001e80:	e7f1      	b.n	8001e66 <_ZN5Eigen8internal13gemm_pack_rhsIdiNS0_16blas_data_mapperIdiLi0ELi0ELi1EEELi4ELi0ELb0ELb1EEclEPdRKS3_iiii.isra.0+0xfe>
 8001e82:	bf00      	nop
 8001e84:	0800b279 	.word	0x0800b279
 8001e88:	0800b493 	.word	0x0800b493
 8001e8c:	0800b44f 	.word	0x0800b44f

08001e90 <_ZN5Eigen8internal11gebp_kernelIddiNS0_16blas_data_mapperIdiLi0ELi0ELi1EEELi1ELi4ELb0ELb0EEclERKS3_PKdS8_iiidiiii.isra.0>:
 8001e90:	e92d 4ff0 	stmdb	sp!, {r4, r5, r6, r7, r8, r9, sl, fp, lr}
 8001e94:	b0b9      	sub	sp, #228	@ 0xe4
 8001e96:	4680      	mov	r8, r0
 8001e98:	f04f 0a00 	mov.w	sl, #0
 8001e9c:	9d42      	ldr	r5, [sp, #264]	@ 0x108
 8001e9e:	9319      	str	r3, [sp, #100]	@ 0x64
 8001ea0:	9847      	ldr	r0, [sp, #284]	@ 0x11c
 8001ea2:	e9dd 4344 	ldrd	r4, r3, [sp, #272]	@ 0x110
 8001ea6:	ed9f 5b74 	vldr	d5, [pc, #464]	@ 8002078 <_ZN5Eigen8internal11gebp_kernelIddiNS0_16blas_data_mapperIdiLi0ELi0ELi1EEELi1ELi4ELb0ELb0EEclERKS3_PKdS8_iiidiiii.isra.0+0x1e8>
 8001eaa:	f1b4 3fff 	cmp.w	r4, #4294967295	@ 0xffffffff
 8001eae:	bf08      	it	eq
 8001eb0:	462c      	moveq	r4, r5
 8001eb2:	f1b3 3fff 	cmp.w	r3, #4294967295	@ 0xffffffff
 8001eb6:	bf08      	it	eq
 8001eb8:	462b      	moveq	r3, r5
 8001eba:	9d43      	ldr	r5, [sp, #268]	@ 0x10c
 8001ebc:	00e4      	lsls	r4, r4, #3
 8001ebe:	426e      	negs	r6, r5
 8001ec0:	f005 0503 	and.w	r5, r5, #3
 8001ec4:	9418      	str	r4, [sp, #96]	@ 0x60
 8001ec6:	9c46      	ldr	r4, [sp, #280]	@ 0x118
 8001ec8:	f006 0603 	and.w	r6, r6, #3
 8001ecc:	eb01 0bc4 	add.w	fp, r1, r4, lsl #3
 8001ed0:	bf58      	it	pl
 8001ed2:	4275      	negpl	r5, r6
 8001ed4:	0159      	lsls	r1, r3, #5
 8001ed6:	9e43      	ldr	r6, [sp, #268]	@ 0x10c
 8001ed8:	9113      	str	r1, [sp, #76]	@ 0x4c
 8001eda:	eb02 1140 	add.w	r1, r2, r0, lsl #5
 8001ede:	1b75      	subs	r5, r6, r5
 8001ee0:	9117      	str	r1, [sp, #92]	@ 0x5c
 8001ee2:	00d9      	lsls	r1, r3, #3
 8001ee4:	950c      	str	r5, [sp, #48]	@ 0x30
 8001ee6:	9114      	str	r1, [sp, #80]	@ 0x50
 8001ee8:	990c      	ldr	r1, [sp, #48]	@ 0x30
 8001eea:	9d42      	ldr	r5, [sp, #264]	@ 0x108
 8001eec:	fb03 0001 	mla	r0, r3, r1, r0
 8001ef0:	f025 0507 	bic.w	r5, r5, #7
 8001ef4:	eb02 03c0 	add.w	r3, r2, r0, lsl #3
 8001ef8:	4629      	mov	r1, r5
 8001efa:	9509      	str	r5, [sp, #36]	@ 0x24
 8001efc:	9316      	str	r3, [sp, #88]	@ 0x58
 8001efe:	9b42      	ldr	r3, [sp, #264]	@ 0x108
 8001f00:	3107      	adds	r1, #7
 8001f02:	ea4f 03d3 	mov.w	r3, r3, lsr #3
 8001f06:	ea4f 1283 	mov.w	r2, r3, lsl #6
 8001f0a:	bfb8      	it	lt
 8001f0c:	2200      	movlt	r2, #0
 8001f0e:	ea4f 2303 	mov.w	r3, r3, lsl #8
 8001f12:	bfb8      	it	lt
 8001f14:	2300      	movlt	r3, #0
 8001f16:	9212      	str	r2, [sp, #72]	@ 0x48
 8001f18:	9315      	str	r3, [sp, #84]	@ 0x54
 8001f1a:	9b19      	ldr	r3, [sp, #100]	@ 0x64
 8001f1c:	4553      	cmp	r3, sl
 8001f1e:	f340 81c9 	ble.w	80022b4 <_ZN5Eigen8internal11gebp_kernelIddiNS0_16blas_data_mapperIdiLi0ELi0ELi1EEELi1ELi4ELb0ELb0EEclERKS3_PKdS8_iiidiiii.isra.0+0x424>
 8001f22:	9b12      	ldr	r3, [sp, #72]	@ 0x48
 8001f24:	f04f 0900 	mov.w	r9, #0
 8001f28:	445b      	add	r3, fp
 8001f2a:	930d      	str	r3, [sp, #52]	@ 0x34
 8001f2c:	9b17      	ldr	r3, [sp, #92]	@ 0x5c
 8001f2e:	930a      	str	r3, [sp, #40]	@ 0x28
 8001f30:	e090      	b.n	8002054 <_ZN5Eigen8internal11gebp_kernelIddiNS0_16blas_data_mapperIdiLi0ELi0ELi1EEELi1ELi4ELb0ELb0EEclERKS3_PKdS8_iiidiiii.isra.0+0x1c4>
 8001f32:	e9d8 2300 	ldrd	r2, r3, [r8]
 8001f36:	f89b f000 	pld	[fp]
 8001f3a:	fb09 a103 	mla	r1, r9, r3, sl
 8001f3e:	eb02 01c1 	add.w	r1, r2, r1, lsl #3
 8001f42:	910e      	str	r1, [sp, #56]	@ 0x38
 8001f44:	fb09 3103 	mla	r1, r9, r3, r3
 8001f48:	4451      	add	r1, sl
 8001f4a:	eb02 01c1 	add.w	r1, r2, r1, lsl #3
 8001f4e:	910f      	str	r1, [sp, #60]	@ 0x3c
 8001f50:	f109 0102 	add.w	r1, r9, #2
 8001f54:	fb03 a101 	mla	r1, r3, r1, sl
 8001f58:	eb02 01c1 	add.w	r1, r2, r1, lsl #3
 8001f5c:	9110      	str	r1, [sp, #64]	@ 0x40
 8001f5e:	f109 0103 	add.w	r1, r9, #3
 8001f62:	fb03 a301 	mla	r3, r3, r1, sl
 8001f66:	eb02 03c3 	add.w	r3, r2, r3, lsl #3
 8001f6a:	9311      	str	r3, [sp, #68]	@ 0x44
 8001f6c:	9b0a      	ldr	r3, [sp, #40]	@ 0x28
 8001f6e:	f893 f000 	pld	[r3]
 8001f72:	461c      	mov	r4, r3
 8001f74:	2300      	movs	r3, #0
 8001f76:	ed8d 5b1a 	vstr	d5, [sp, #104]	@ 0x68
 8001f7a:	ed8d 5b1c 	vstr	d5, [sp, #112]	@ 0x70
 8001f7e:	ed8d 5b1e 	vstr	d5, [sp, #120]	@ 0x78
 8001f82:	ed8d 5b20 	vstr	d5, [sp, #128]	@ 0x80
 8001f86:	ed8d 5b22 	vstr	d5, [sp, #136]	@ 0x88
 8001f8a:	ed8d 5b24 	vstr	d5, [sp, #144]	@ 0x90
 8001f8e:	ed8d 5b26 	vstr	d5, [sp, #152]	@ 0x98
 8001f92:	ed8d 5b28 	vstr	d5, [sp, #160]	@ 0xa0
 8001f96:	930b      	str	r3, [sp, #44]	@ 0x2c
 8001f98:	9b0b      	ldr	r3, [sp, #44]	@ 0x2c
 8001f9a:	9a0b      	ldr	r2, [sp, #44]	@ 0x2c
 8001f9c:	eb0b 05c3 	add.w	r5, fp, r3, lsl #3
 8001fa0:	9b09      	ldr	r3, [sp, #36]	@ 0x24
 8001fa2:	4293      	cmp	r3, r2
 8001fa4:	dc6c      	bgt.n	8002080 <_ZN5Eigen8internal11gebp_kernelIddiNS0_16blas_data_mapperIdiLi0ELi0ELi1EEELi1ELi4ELb0ELb0EEclERKS3_PKdS8_iiidiiii.isra.0+0x1f0>
 8001fa6:	9b0a      	ldr	r3, [sp, #40]	@ 0x28
 8001fa8:	ad1e      	add	r5, sp, #120	@ 0x78
 8001faa:	9a15      	ldr	r2, [sp, #84]	@ 0x54
 8001fac:	ae1c      	add	r6, sp, #112	@ 0x70
 8001fae:	9c09      	ldr	r4, [sp, #36]	@ 0x24
 8001fb0:	189a      	adds	r2, r3, r2
 8001fb2:	9f0d      	ldr	r7, [sp, #52]	@ 0x34
 8001fb4:	ed9d 7b1a 	vldr	d7, [sp, #104]	@ 0x68
 8001fb8:	ed9d 6b22 	vldr	d6, [sp, #136]	@ 0x88
 8001fbc:	ee37 7b06 	vadd.f64	d7, d7, d6
 8001fc0:	ed9d 6b24 	vldr	d6, [sp, #144]	@ 0x90
 8001fc4:	ed8d 7b1a 	vstr	d7, [sp, #104]	@ 0x68
 8001fc8:	ed9d 7b1c 	vldr	d7, [sp, #112]	@ 0x70
 8001fcc:	ee37 7b06 	vadd.f64	d7, d7, d6
 8001fd0:	ed9d 6b26 	vldr	d6, [sp, #152]	@ 0x98
 8001fd4:	ed8d 7b1c 	vstr	d7, [sp, #112]	@ 0x70
 8001fd8:	ed9d 7b1e 	vldr	d7, [sp, #120]	@ 0x78
 8001fdc:	ee37 7b06 	vadd.f64	d7, d7, d6
 8001fe0:	ed9d 6b28 	vldr	d6, [sp, #160]	@ 0xa0
 8001fe4:	ed8d 7b1e 	vstr	d7, [sp, #120]	@ 0x78
 8001fe8:	ed9d 7b20 	vldr	d7, [sp, #128]	@ 0x80
 8001fec:	ee37 7b06 	vadd.f64	d7, d7, d6
 8001ff0:	ed8d 7b20 	vstr	d7, [sp, #128]	@ 0x80
 8001ff4:	9b42      	ldr	r3, [sp, #264]	@ 0x108
 8001ff6:	42a3      	cmp	r3, r4
 8001ff8:	f300 80e5 	bgt.w	80021c6 <_ZN5Eigen8internal11gebp_kernelIddiNS0_16blas_data_mapperIdiLi0ELi0ELi1EEELi1ELi4ELb0ELb0EEclERKS3_PKdS8_iiidiiii.isra.0+0x336>
 8001ffc:	9b0f      	ldr	r3, [sp, #60]	@ 0x3c
 8001ffe:	f109 0904 	add.w	r9, r9, #4
 8002002:	9a13      	ldr	r2, [sp, #76]	@ 0x4c
 8002004:	ed93 7b00 	vldr	d7, [r3]
 8002008:	9b0e      	ldr	r3, [sp, #56]	@ 0x38
 800200a:	ed9d 4b1a 	vldr	d4, [sp, #104]	@ 0x68
 800200e:	ed93 6b00 	vldr	d6, [r3]
 8002012:	eea0 6b04 	vfma.f64	d6, d0, d4
 8002016:	ed9d 4b1c 	vldr	d4, [sp, #112]	@ 0x70
 800201a:	eea0 7b04 	vfma.f64	d7, d0, d4
 800201e:	ed83 6b00 	vstr	d6, [r3]
 8002022:	9b0f      	ldr	r3, [sp, #60]	@ 0x3c
 8002024:	ed9d 4b1e 	vldr	d4, [sp, #120]	@ 0x78
 8002028:	ed83 7b00 	vstr	d7, [r3]
 800202c:	9b11      	ldr	r3, [sp, #68]	@ 0x44
 800202e:	ed93 7b00 	vldr	d7, [r3]
 8002032:	9b10      	ldr	r3, [sp, #64]	@ 0x40
 8002034:	ed93 6b00 	vldr	d6, [r3]
 8002038:	eea0 6b04 	vfma.f64	d6, d0, d4
 800203c:	ed9d 4b20 	vldr	d4, [sp, #128]	@ 0x80
 8002040:	eea0 7b04 	vfma.f64	d7, d0, d4
 8002044:	ed83 6b00 	vstr	d6, [r3]
 8002048:	9b11      	ldr	r3, [sp, #68]	@ 0x44
 800204a:	ed83 7b00 	vstr	d7, [r3]
 800204e:	9b0a      	ldr	r3, [sp, #40]	@ 0x28
 8002050:	4413      	add	r3, r2
 8002052:	930a      	str	r3, [sp, #40]	@ 0x28
 8002054:	9b0c      	ldr	r3, [sp, #48]	@ 0x30
 8002056:	454b      	cmp	r3, r9
 8002058:	f73f af6b 	bgt.w	8001f32 <_ZN5Eigen8internal11gebp_kernelIddiNS0_16blas_data_mapperIdiLi0ELi0ELi1EEELi1ELi4ELb0ELb0EEclERKS3_PKdS8_iiidiiii.isra.0+0xa2>
 800205c:	9816      	ldr	r0, [sp, #88]	@ 0x58
 800205e:	4619      	mov	r1, r3
 8002060:	9b43      	ldr	r3, [sp, #268]	@ 0x10c
 8002062:	428b      	cmp	r3, r1
 8002064:	f300 80c7 	bgt.w	80021f6 <_ZN5Eigen8internal11gebp_kernelIddiNS0_16blas_data_mapperIdiLi0ELi0ELi1EEELi1ELi4ELb0ELb0EEclERKS3_PKdS8_iiidiiii.isra.0+0x366>
 8002068:	9b18      	ldr	r3, [sp, #96]	@ 0x60
 800206a:	f10a 0a01 	add.w	sl, sl, #1
 800206e:	449b      	add	fp, r3
 8002070:	e753      	b.n	8001f1a <_ZN5Eigen8internal11gebp_kernelIddiNS0_16blas_data_mapperIdiLi0ELi0ELi1EEELi1ELi4ELb0ELb0EEclERKS3_PKdS8_iiidiiii.isra.0+0x8a>
 8002072:	bf00      	nop
 8002074:	f3af 8000 	nop.w
	...
 8002080:	ab20      	add	r3, sp, #128	@ 0x80
 8002082:	f894 f180 	pld	[r4, #384]	@ 0x180
 8002086:	af2e      	add	r7, sp, #184	@ 0xb8
 8002088:	ae30      	add	r6, sp, #192	@ 0xc0
 800208a:	9306      	str	r3, [sp, #24]
 800208c:	ab1e      	add	r3, sp, #120	@ 0x78
 800208e:	4622      	mov	r2, r4
 8002090:	4629      	mov	r1, r5
 8002092:	9305      	str	r3, [sp, #20]
 8002094:	ab1c      	add	r3, sp, #112	@ 0x70
 8002096:	2000      	movs	r0, #0
 8002098:	9702      	str	r7, [sp, #8]
 800209a:	9304      	str	r3, [sp, #16]
 800209c:	ab1a      	add	r3, sp, #104	@ 0x68
 800209e:	9601      	str	r6, [sp, #4]
 80020a0:	9303      	str	r3, [sp, #12]
 80020a2:	ab2a      	add	r3, sp, #168	@ 0xa8
 80020a4:	f894 f200 	pld	[r4, #512]	@ 0x200
 80020a8:	9300      	str	r3, [sp, #0]
 80020aa:	f04f 0300 	mov.w	r3, #0
 80020ae:	f7ff fdcb 	bl	8001c48 <_ZN5Eigen8internal22lhs_process_one_packetILi4ELi1ELi1EdddddddNS0_11gebp_traitsIddLb0ELb0ELi0ELi0EEENS0_16BlasLinearMapperIdiLi0ELi1EEENS0_16blas_data_mapperIdiLi0ELi0ELi1EEEE17peeled_kc_onestepEiPKdSA_S3_PdPNS0_10QuadPacketIdEESB_SB_SB_SB_SB_.isra.0>
 80020b2:	ab28      	add	r3, sp, #160	@ 0xa0
 80020b4:	4622      	mov	r2, r4
 80020b6:	4629      	mov	r1, r5
 80020b8:	9306      	str	r3, [sp, #24]
 80020ba:	ab26      	add	r3, sp, #152	@ 0x98
 80020bc:	2001      	movs	r0, #1
 80020be:	9601      	str	r6, [sp, #4]
 80020c0:	9305      	str	r3, [sp, #20]
 80020c2:	ab24      	add	r3, sp, #144	@ 0x90
 80020c4:	9304      	str	r3, [sp, #16]
 80020c6:	ab22      	add	r3, sp, #136	@ 0x88
 80020c8:	e9cd 7302 	strd	r7, r3, [sp, #8]
 80020cc:	ab2c      	add	r3, sp, #176	@ 0xb0
 80020ce:	9300      	str	r3, [sp, #0]
 80020d0:	f04f 0300 	mov.w	r3, #0
 80020d4:	f7ff fdb8 	bl	8001c48 <_ZN5Eigen8internal22lhs_process_one_packetILi4ELi1ELi1EdddddddNS0_11gebp_traitsIddLb0ELb0ELi0ELi0EEENS0_16BlasLinearMapperIdiLi0ELi1EEENS0_16blas_data_mapperIdiLi0ELi0ELi1EEEE17peeled_kc_onestepEiPKdSA_S3_PdPNS0_10QuadPacketIdEESB_SB_SB_SB_SB_.isra.0>
 80020d8:	ab20      	add	r3, sp, #128	@ 0x80
 80020da:	4622      	mov	r2, r4
 80020dc:	4629      	mov	r1, r5
 80020de:	9306      	str	r3, [sp, #24]
 80020e0:	ab1e      	add	r3, sp, #120	@ 0x78
 80020e2:	2002      	movs	r0, #2
 80020e4:	9601      	str	r6, [sp, #4]
 80020e6:	9305      	str	r3, [sp, #20]
 80020e8:	ab1c      	add	r3, sp, #112	@ 0x70
 80020ea:	9304      	str	r3, [sp, #16]
 80020ec:	ab1a      	add	r3, sp, #104	@ 0x68
 80020ee:	e9cd 7302 	strd	r7, r3, [sp, #8]
 80020f2:	ab2a      	add	r3, sp, #168	@ 0xa8
 80020f4:	9300      	str	r3, [sp, #0]
 80020f6:	f04f 0300 	mov.w	r3, #0
 80020fa:	f7ff fda5 	bl	8001c48 <_ZN5Eigen8internal22lhs_process_one_packetILi4ELi1ELi1EdddddddNS0_11gebp_traitsIddLb0ELb0ELi0ELi0EEENS0_16BlasLinearMapperIdiLi0ELi1EEENS0_16blas_data_mapperIdiLi0ELi0ELi1EEEE17peeled_kc_onestepEiPKdSA_S3_PdPNS0_10QuadPacketIdEESB_SB_SB_SB_SB_.isra.0>
 80020fe:	ab28      	add	r3, sp, #160	@ 0xa0
 8002100:	4622      	mov	r2, r4
 8002102:	4629      	mov	r1, r5
 8002104:	9306      	str	r3, [sp, #24]
 8002106:	ab26      	add	r3, sp, #152	@ 0x98
 8002108:	2003      	movs	r0, #3
 800210a:	9601      	str	r6, [sp, #4]
 800210c:	9305      	str	r3, [sp, #20]
 800210e:	ab24      	add	r3, sp, #144	@ 0x90
 8002110:	9304      	str	r3, [sp, #16]
 8002112:	ab22      	add	r3, sp, #136	@ 0x88
 8002114:	e9cd 7302 	strd	r7, r3, [sp, #8]
 8002118:	ab2c      	add	r3, sp, #176	@ 0xb0
 800211a:	9300      	str	r3, [sp, #0]
 800211c:	f04f 0300 	mov.w	r3, #0
 8002120:	f7ff fd92 	bl	8001c48 <_ZN5Eigen8internal22lhs_process_one_packetILi4ELi1ELi1EdddddddNS0_11gebp_traitsIddLb0ELb0ELi0ELi0EEENS0_16BlasLinearMapperIdiLi0ELi1EEENS0_16blas_data_mapperIdiLi0ELi0ELi1EEEE17peeled_kc_onestepEiPKdSA_S3_PdPNS0_10QuadPacketIdEESB_SB_SB_SB_SB_.isra.0>
 8002124:	ab20      	add	r3, sp, #128	@ 0x80
 8002126:	4622      	mov	r2, r4
 8002128:	4629      	mov	r1, r5
 800212a:	9306      	str	r3, [sp, #24]
 800212c:	ab1e      	add	r3, sp, #120	@ 0x78
 800212e:	2004      	movs	r0, #4
 8002130:	9601      	str	r6, [sp, #4]
 8002132:	9305      	str	r3, [sp, #20]
 8002134:	ab1c      	add	r3, sp, #112	@ 0x70
 8002136:	9304      	str	r3, [sp, #16]
 8002138:	ab1a      	add	r3, sp, #104	@ 0x68
 800213a:	e9cd 7302 	strd	r7, r3, [sp, #8]
 800213e:	ab2a      	add	r3, sp, #168	@ 0xa8
 8002140:	9300      	str	r3, [sp, #0]
 8002142:	f04f 0300 	mov.w	r3, #0
 8002146:	f7ff fd7f 	bl	8001c48 <_ZN5Eigen8internal22lhs_process_one_packetILi4ELi1ELi1EdddddddNS0_11gebp_traitsIddLb0ELb0ELi0ELi0EEENS0_16BlasLinearMapperIdiLi0ELi1EEENS0_16blas_data_mapperIdiLi0ELi0ELi1EEEE17peeled_kc_onestepEiPKdSA_S3_PdPNS0_10QuadPacketIdEESB_SB_SB_SB_SB_.isra.0>
 800214a:	ab28      	add	r3, sp, #160	@ 0xa0
 800214c:	4622      	mov	r2, r4
 800214e:	4629      	mov	r1, r5
 8002150:	9306      	str	r3, [sp, #24]
 8002152:	ab26      	add	r3, sp, #152	@ 0x98
 8002154:	2005      	movs	r0, #5
 8002156:	9601      	str	r6, [sp, #4]
 8002158:	9305      	str	r3, [sp, #20]
 800215a:	ab24      	add	r3, sp, #144	@ 0x90
 800215c:	9304      	str	r3, [sp, #16]
 800215e:	ab22      	add	r3, sp, #136	@ 0x88
 8002160:	e9cd 7302 	strd	r7, r3, [sp, #8]
 8002164:	ab2c      	add	r3, sp, #176	@ 0xb0
 8002166:	9300      	str	r3, [sp, #0]
 8002168:	f04f 0300 	mov.w	r3, #0
 800216c:	f7ff fd6c 	bl	8001c48 <_ZN5Eigen8internal22lhs_process_one_packetILi4ELi1ELi1EdddddddNS0_11gebp_traitsIddLb0ELb0ELi0ELi0EEENS0_16BlasLinearMapperIdiLi0ELi1EEENS0_16blas_data_mapperIdiLi0ELi0ELi1EEEE17peeled_kc_onestepEiPKdSA_S3_PdPNS0_10QuadPacketIdEESB_SB_SB_SB_SB_.isra.0>
 8002170:	ab20      	add	r3, sp, #128	@ 0x80
 8002172:	4622      	mov	r2, r4
 8002174:	4629      	mov	r1, r5
 8002176:	9306      	str	r3, [sp, #24]
 8002178:	ab1e      	add	r3, sp, #120	@ 0x78
 800217a:	2006      	movs	r0, #6
 800217c:	9601      	str	r6, [sp, #4]
 800217e:	9305      	str	r3, [sp, #20]
 8002180:	ab1c      	add	r3, sp, #112	@ 0x70
 8002182:	9304      	str	r3, [sp, #16]
 8002184:	ab1a      	add	r3, sp, #104	@ 0x68
 8002186:	e9cd 7302 	strd	r7, r3, [sp, #8]
 800218a:	ab2a      	add	r3, sp, #168	@ 0xa8
 800218c:	9300      	str	r3, [sp, #0]
 800218e:	f04f 0300 	mov.w	r3, #0
 8002192:	f7ff fd59 	bl	8001c48 <_ZN5Eigen8internal22lhs_process_one_packetILi4ELi1ELi1EdddddddNS0_11gebp_traitsIddLb0ELb0ELi0ELi0EEENS0_16BlasLinearMapperIdiLi0ELi1EEENS0_16blas_data_mapperIdiLi0ELi0ELi1EEEE17peeled_kc_onestepEiPKdSA_S3_PdPNS0_10QuadPacketIdEESB_SB_SB_SB_SB_.isra.0>
 8002196:	ab28      	add	r3, sp, #160	@ 0xa0
 8002198:	4622      	mov	r2, r4
 800219a:	4629      	mov	r1, r5
 800219c:	9306      	str	r3, [sp, #24]
 800219e:	ab26      	add	r3, sp, #152	@ 0x98
 80021a0:	2007      	movs	r0, #7
 80021a2:	9601      	str	r6, [sp, #4]
 80021a4:	9305      	str	r3, [sp, #20]
 80021a6:	ab24      	add	r3, sp, #144	@ 0x90
 80021a8:	f504 7480 	add.w	r4, r4, #256	@ 0x100
 80021ac:	9304      	str	r3, [sp, #16]
 80021ae:	ab22      	add	r3, sp, #136	@ 0x88
 80021b0:	e9cd 7302 	strd	r7, r3, [sp, #8]
 80021b4:	ab2c      	add	r3, sp, #176	@ 0xb0
 80021b6:	9300      	str	r3, [sp, #0]
 80021b8:	f04f 0300 	mov.w	r3, #0
 80021bc:	f7ff fd44 	bl	8001c48 <_ZN5Eigen8internal22lhs_process_one_packetILi4ELi1ELi1EdddddddNS0_11gebp_traitsIddLb0ELb0ELi0ELi0EEENS0_16BlasLinearMapperIdiLi0ELi1EEENS0_16blas_data_mapperIdiLi0ELi0ELi1EEEE17peeled_kc_onestepEiPKdSA_S3_PdPNS0_10QuadPacketIdEESB_SB_SB_SB_SB_.isra.0>
 80021c0:	9b0b      	ldr	r3, [sp, #44]	@ 0x2c
 80021c2:	3308      	adds	r3, #8
 80021c4:	e6e7      	b.n	8001f96 <_ZN5Eigen8internal11gebp_kernelIddiNS0_16blas_data_mapperIdiLi0ELi0ELi1EEELi1ELi4ELb0ELb0EEclERKS3_PKdS8_iiidiiii.isra.0+0x106>
 80021c6:	ab20      	add	r3, sp, #128	@ 0x80
 80021c8:	4639      	mov	r1, r7
 80021ca:	2000      	movs	r0, #0
 80021cc:	9604      	str	r6, [sp, #16]
 80021ce:	920b      	str	r2, [sp, #44]	@ 0x2c
 80021d0:	3708      	adds	r7, #8
 80021d2:	3401      	adds	r4, #1
 80021d4:	e9cd 5305 	strd	r5, r3, [sp, #20]
 80021d8:	ab1a      	add	r3, sp, #104	@ 0x68
 80021da:	9303      	str	r3, [sp, #12]
 80021dc:	ab2e      	add	r3, sp, #184	@ 0xb8
 80021de:	9302      	str	r3, [sp, #8]
 80021e0:	ab30      	add	r3, sp, #192	@ 0xc0
 80021e2:	9301      	str	r3, [sp, #4]
 80021e4:	ab2a      	add	r3, sp, #168	@ 0xa8
 80021e6:	9300      	str	r3, [sp, #0]
 80021e8:	f04f 0300 	mov.w	r3, #0
 80021ec:	f7ff fd2c 	bl	8001c48 <_ZN5Eigen8internal22lhs_process_one_packetILi4ELi1ELi1EdddddddNS0_11gebp_traitsIddLb0ELb0ELi0ELi0EEENS0_16BlasLinearMapperIdiLi0ELi1EEENS0_16blas_data_mapperIdiLi0ELi0ELi1EEEE17peeled_kc_onestepEiPKdSA_S3_PdPNS0_10QuadPacketIdEESB_SB_SB_SB_SB_.isra.0>
 80021f0:	9a0b      	ldr	r2, [sp, #44]	@ 0x2c
 80021f2:	3220      	adds	r2, #32
 80021f4:	e6fe      	b.n	8001ff4 <_ZN5Eigen8internal11gebp_kernelIddiNS0_16blas_data_mapperIdiLi0ELi0ELi1EEELi1ELi4ELb0ELb0EEclERKS3_PKdS8_iiidiiii.isra.0+0x164>
 80021f6:	f8d8 3004 	ldr.w	r3, [r8, #4]
 80021fa:	465a      	mov	r2, fp
 80021fc:	f8d8 4000 	ldr.w	r4, [r8]
 8002200:	2500      	movs	r5, #0
 8002202:	fb03 a301 	mla	r3, r3, r1, sl
 8002206:	f89b f000 	pld	[fp]
 800220a:	ed1f 7b65 	vldr	d7, [pc, #-404]	@ 8002078 <_ZN5Eigen8internal11gebp_kernelIddiNS0_16blas_data_mapperIdiLi0ELi0ELi1EEELi1ELi4ELb0ELb0EEclERKS3_PKdS8_iiidiiii.isra.0+0x1e8>
 800220e:	eb04 04c3 	add.w	r4, r4, r3, lsl #3
 8002212:	4603      	mov	r3, r0
 8002214:	9e09      	ldr	r6, [sp, #36]	@ 0x24
 8002216:	3240      	adds	r2, #64	@ 0x40
 8002218:	3340      	adds	r3, #64	@ 0x40
 800221a:	42ae      	cmp	r6, r5
 800221c:	dc10      	bgt.n	8002240 <_ZN5Eigen8internal11gebp_kernelIddiNS0_16blas_data_mapperIdiLi0ELi0ELi1EEELi1ELi4ELb0ELb0EEclERKS3_PKdS8_iiidiiii.isra.0+0x3b0>
 800221e:	9b12      	ldr	r3, [sp, #72]	@ 0x48
 8002220:	9d0d      	ldr	r5, [sp, #52]	@ 0x34
 8002222:	18c2      	adds	r2, r0, r3
 8002224:	4633      	mov	r3, r6
 8002226:	9e42      	ldr	r6, [sp, #264]	@ 0x108
 8002228:	429e      	cmp	r6, r3
 800222a:	dc3b      	bgt.n	80022a4 <_ZN5Eigen8internal11gebp_kernelIddiNS0_16blas_data_mapperIdiLi0ELi0ELi1EEELi1ELi4ELb0ELb0EEclERKS3_PKdS8_iiidiiii.isra.0+0x414>
 800222c:	9b14      	ldr	r3, [sp, #80]	@ 0x50
 800222e:	3101      	adds	r1, #1
 8002230:	ed94 6b00 	vldr	d6, [r4]
 8002234:	4418      	add	r0, r3
 8002236:	eea0 6b07 	vfma.f64	d6, d0, d7
 800223a:	ed84 6b00 	vstr	d6, [r4]
 800223e:	e70f      	b.n	8002060 <_ZN5Eigen8internal11gebp_kernelIddiNS0_16blas_data_mapperIdiLi0ELi0ELi1EEELi1ELi4ELb0ELb0EEclERKS3_PKdS8_iiidiiii.isra.0+0x1d0>
 8002240:	ed12 4b10 	vldr	d4, [r2, #-64]	@ 0xffffffc0
 8002244:	ed13 6b10 	vldr	d6, [r3, #-64]	@ 0xffffffc0
 8002248:	eea4 7b06 	vfma.f64	d7, d4, d6
 800224c:	ed12 4b0e 	vldr	d4, [r2, #-56]	@ 0xffffffc8
 8002250:	ed13 6b0e 	vldr	d6, [r3, #-56]	@ 0xffffffc8
 8002254:	eea4 7b06 	vfma.f64	d7, d4, d6
 8002258:	ed12 4b0c 	vldr	d4, [r2, #-48]	@ 0xffffffd0
 800225c:	ed13 6b0c 	vldr	d6, [r3, #-48]	@ 0xffffffd0
 8002260:	eea4 7b06 	vfma.f64	d7, d4, d6
 8002264:	ed12 4b0a 	vldr	d4, [r2, #-40]	@ 0xffffffd8
 8002268:	ed13 6b0a 	vldr	d6, [r3, #-40]	@ 0xffffffd8
 800226c:	eea4 7b06 	vfma.f64	d7, d4, d6
 8002270:	ed12 4b08 	vldr	d4, [r2, #-32]	@ 0xffffffe0
 8002274:	ed13 6b08 	vldr	d6, [r3, #-32]	@ 0xffffffe0
 8002278:	eea4 7b06 	vfma.f64	d7, d4, d6
 800227c:	ed12 4b06 	vldr	d4, [r2, #-24]	@ 0xffffffe8
 8002280:	ed13 6b06 	vldr	d6, [r3, #-24]	@ 0xffffffe8
 8002284:	eea4 7b06 	vfma.f64	d7, d4, d6
 8002288:	ed12 4b04 	vldr	d4, [r2, #-16]
 800228c:	ed13 6b04 	vldr	d6, [r3, #-16]
 8002290:	eea4 7b06 	vfma.f64	d7, d4, d6
 8002294:	ed12 4b02 	vldr	d4, [r2, #-8]
 8002298:	ed13 6b02 	vldr	d6, [r3, #-8]
 800229c:	eea4 7b06 	vfma.f64	d7, d4, d6
 80022a0:	3508      	adds	r5, #8
 80022a2:	e7b7      	b.n	8002214 <_ZN5Eigen8internal11gebp_kernelIddiNS0_16blas_data_mapperIdiLi0ELi0ELi1EEELi1ELi4ELb0ELb0EEclERKS3_PKdS8_iiidiiii.isra.0+0x384>
 80022a4:	ecb5 4b02 	vldmia	r5!, {d4}
 80022a8:	ecb2 6b02 	vldmia	r2!, {d6}
 80022ac:	eea4 7b06 	vfma.f64	d7, d4, d6
 80022b0:	3301      	adds	r3, #1
 80022b2:	e7b8      	b.n	8002226 <_ZN5Eigen8internal11gebp_kernelIddiNS0_16blas_data_mapperIdiLi0ELi0ELi1EEELi1ELi4ELb0ELb0EEclERKS3_PKdS8_iiidiiii.isra.0+0x396>
 80022b4:	b039      	add	sp, #228	@ 0xe4
 80022b6:	e8bd 8ff0 	ldmia.w	sp!, {r4, r5, r6, r7, r8, r9, sl, fp, pc}
 80022ba:	bf00      	nop

080022bc <_ZNK5Eigen9DenseBaseINS_13CwiseBinaryOpINS_8internal17scalar_product_opIddEEKNS_9TransposeIKNS_5BlockIKNS_6MatrixIdLi4ELi4ELi0ELi4ELi4EEELi1ELi4ELb0EEEEEKNS6_IS9_Li4ELi1ELb1EEEEEE5reduxINS2_13scalar_sum_opIddEEEEdRKT_.isra.0>:
 80022bc:	6803      	ldr	r3, [r0, #0]
 80022be:	6982      	ldr	r2, [r0, #24]
 80022c0:	ed93 7b08 	vldr	d7, [r3, #32]
 80022c4:	ed92 0b02 	vldr	d0, [r2, #8]
 80022c8:	ed92 6b00 	vldr	d6, [r2]
 80022cc:	ed92 5b04 	vldr	d5, [r2, #16]
 80022d0:	ee20 0b07 	vmul.f64	d0, d0, d7
 80022d4:	ed93 7b00 	vldr	d7, [r3]
 80022d8:	eea6 0b07 	vfma.f64	d0, d6, d7
 80022dc:	ed93 6b18 	vldr	d6, [r3, #96]	@ 0x60
 80022e0:	ed92 7b06 	vldr	d7, [r2, #24]
 80022e4:	ee27 7b06 	vmul.f64	d7, d7, d6
 80022e8:	ed93 6b10 	vldr	d6, [r3, #64]	@ 0x40
 80022ec:	eea5 7b06 	vfma.f64	d7, d5, d6
 80022f0:	ee37 0b00 	vadd.f64	d0, d7, d0
 80022f4:	4770      	bx	lr
	...

080022f8 <_ZN5Eigen10MatrixBaseINS_6MatrixIdLi4ELi4ELi0ELi4ELi4EEEE11setIdentityEv.isra.0>:
 80022f8:	2278      	movs	r2, #120	@ 0x78
 80022fa:	2100      	movs	r1, #0
 80022fc:	b510      	push	{r4, lr}
 80022fe:	4604      	mov	r4, r0
 8002300:	3008      	adds	r0, #8
 8002302:	f007 ff15 	bl	800a130 <memset>
 8002306:	2200      	movs	r2, #0
 8002308:	4b04      	ldr	r3, [pc, #16]	@ (800231c <_ZN5Eigen10MatrixBaseINS_6MatrixIdLi4ELi4ELi0ELi4ELi4EEEE11setIdentityEv.isra.0+0x24>)
 800230a:	e9c4 2300 	strd	r2, r3, [r4]
 800230e:	e9c4 230a 	strd	r2, r3, [r4, #40]	@ 0x28
 8002312:	e9c4 2314 	strd	r2, r3, [r4, #80]	@ 0x50
 8002316:	e9c4 231e 	strd	r2, r3, [r4, #120]	@ 0x78
 800231a:	bd10      	pop	{r4, pc}
 800231c:	3ff00000 	.word	0x3ff00000

08002320 <_ZN5Eigen8internal14aligned_mallocEj>:
 8002320:	b508      	push	{r3, lr}
 8002322:	3010      	adds	r0, #16
 8002324:	f007 fd52 	bl	8009dcc <malloc>
 8002328:	b120      	cbz	r0, 8002334 <_ZN5Eigen8internal14aligned_mallocEj+0x14>
 800232a:	f020 030f 	bic.w	r3, r0, #15
 800232e:	60d8      	str	r0, [r3, #12]
 8002330:	3310      	adds	r3, #16
 8002332:	4618      	mov	r0, r3
 8002334:	bd08      	pop	{r3, pc}
	...

08002338 <_ZN5Eigen8internal20manage_caching_sizesENS_6ActionEPiS2_S2_>:
 8002338:	e92d 41f0 	stmdb	sp!, {r4, r5, r6, r7, r8, lr}
 800233c:	f8df 8060 	ldr.w	r8, [pc, #96]	@ 80023a0 <_ZN5Eigen8internal20manage_caching_sizesENS_6ActionEPiS2_S2_+0x68>
 8002340:	461c      	mov	r4, r3
 8002342:	4607      	mov	r7, r0
 8002344:	460e      	mov	r6, r1
 8002346:	f8d8 3000 	ldr.w	r3, [r8]
 800234a:	4615      	mov	r5, r2
 800234c:	f3bf 8f5b 	dmb	ish
 8002350:	07d8      	lsls	r0, r3, #31
 8002352:	d40e      	bmi.n	8002372 <_ZN5Eigen8internal20manage_caching_sizesENS_6ActionEPiS2_S2_+0x3a>
 8002354:	4640      	mov	r0, r8
 8002356:	f006 fbaa 	bl	8008aae <__cxa_guard_acquire>
 800235a:	b150      	cbz	r0, 8002372 <_ZN5Eigen8internal20manage_caching_sizesENS_6ActionEPiS2_S2_+0x3a>
 800235c:	4b0f      	ldr	r3, [pc, #60]	@ (800239c <_ZN5Eigen8internal20manage_caching_sizesENS_6ActionEPiS2_S2_+0x64>)
 800235e:	f44f 2200 	mov.w	r2, #524288	@ 0x80000
 8002362:	f44f 4180 	mov.w	r1, #16384	@ 0x4000
 8002366:	4640      	mov	r0, r8
 8002368:	609a      	str	r2, [r3, #8]
 800236a:	e9c3 1200 	strd	r1, r2, [r3]
 800236e:	f006 fbaa 	bl	8008ac6 <__cxa_guard_release>
 8002372:	2f01      	cmp	r7, #1
 8002374:	d108      	bne.n	8002388 <_ZN5Eigen8internal20manage_caching_sizesENS_6ActionEPiS2_S2_+0x50>
 8002376:	6832      	ldr	r2, [r6, #0]
 8002378:	4b08      	ldr	r3, [pc, #32]	@ (800239c <_ZN5Eigen8internal20manage_caching_sizesENS_6ActionEPiS2_S2_+0x64>)
 800237a:	601a      	str	r2, [r3, #0]
 800237c:	682a      	ldr	r2, [r5, #0]
 800237e:	605a      	str	r2, [r3, #4]
 8002380:	6822      	ldr	r2, [r4, #0]
 8002382:	609a      	str	r2, [r3, #8]
 8002384:	e8bd 81f0 	ldmia.w	sp!, {r4, r5, r6, r7, r8, pc}
 8002388:	2f00      	cmp	r7, #0
 800238a:	d1fb      	bne.n	8002384 <_ZN5Eigen8internal20manage_caching_sizesENS_6ActionEPiS2_S2_+0x4c>
 800238c:	4b03      	ldr	r3, [pc, #12]	@ (800239c <_ZN5Eigen8internal20manage_caching_sizesENS_6ActionEPiS2_S2_+0x64>)
 800238e:	681a      	ldr	r2, [r3, #0]
 8002390:	6032      	str	r2, [r6, #0]
 8002392:	685a      	ldr	r2, [r3, #4]
 8002394:	602a      	str	r2, [r5, #0]
 8002396:	689b      	ldr	r3, [r3, #8]
 8002398:	6023      	str	r3, [r4, #0]
 800239a:	e7f3      	b.n	8002384 <_ZN5Eigen8internal20manage_caching_sizesENS_6ActionEPiS2_S2_+0x4c>
 800239c:	24000240 	.word	0x24000240
 80023a0:	2400023c 	.word	0x2400023c

080023a4 <_ZN15DroneController9mainSetupEv>:
 80023a4:	b513      	push	{r0, r1, r4, lr}
 80023a6:	4604      	mov	r4, r0
 80023a8:	f7ff faa8 	bl	80018fc <_ZN10LogManager11getInstanceEv>
 80023ac:	f504 71e0 	add.w	r1, r4, #448	@ 0x1c0
 80023b0:	f7ff fa9e 	bl	80018f0 <_ZN10LogManager5setupERK20__UART_HandleTypeDef>
 80023b4:	2301      	movs	r3, #1
 80023b6:	2202      	movs	r2, #2
 80023b8:	4669      	mov	r1, sp
 80023ba:	4620      	mov	r0, r4
 80023bc:	e9cd 2300 	strd	r2, r3, [sp]
 80023c0:	aa01      	add	r2, sp, #4
 80023c2:	f7ff f81f 	bl	8001404 <_ZN7MPU92504initERK8AccScaleRK9GyroScale>
 80023c6:	b002      	add	sp, #8
 80023c8:	bd10      	pop	{r4, pc}
	...

080023cc <_ZN5Eigen16CommaInitializerINS_6MatrixIdLi4ELi1ELi0ELi4ELi1EEEEcmERKd>:
 80023cc:	b5f8      	push	{r3, r4, r5, r6, r7, lr}
 80023ce:	6884      	ldr	r4, [r0, #8]
 80023d0:	6802      	ldr	r2, [r0, #0]
 80023d2:	2c01      	cmp	r4, #1
 80023d4:	d10e      	bne.n	80023f4 <_ZN5Eigen16CommaInitializerINS_6MatrixIdLi4ELi1ELi0ELi4ELi1EEEEcmERKd+0x28>
 80023d6:	68c5      	ldr	r5, [r0, #12]
 80023d8:	6843      	ldr	r3, [r0, #4]
 80023da:	442b      	add	r3, r5
 80023dc:	2500      	movs	r5, #0
 80023de:	2b03      	cmp	r3, #3
 80023e0:	6043      	str	r3, [r0, #4]
 80023e2:	e9c0 5402 	strd	r5, r4, [r0, #8]
 80023e6:	dd05      	ble.n	80023f4 <_ZN5Eigen16CommaInitializerINS_6MatrixIdLi4ELi1ELi0ELi4ELi1EEEEcmERKd+0x28>
 80023e8:	4b0f      	ldr	r3, [pc, #60]	@ (8002428 <_ZN5Eigen16CommaInitializerINS_6MatrixIdLi4ELi1ELi0ELi4ELi1EEEEcmERKd+0x5c>)
 80023ea:	2148      	movs	r1, #72	@ 0x48
 80023ec:	4a0f      	ldr	r2, [pc, #60]	@ (800242c <_ZN5Eigen16CommaInitializerINS_6MatrixIdLi4ELi1ELi0ELi4ELi1EEEEcmERKd+0x60>)
 80023ee:	4810      	ldr	r0, [pc, #64]	@ (8002430 <_ZN5Eigen16CommaInitializerINS_6MatrixIdLi4ELi1ELi0ELi4ELi1EEEEcmERKd+0x64>)
 80023f0:	f007 fcce 	bl	8009d90 <__assert_func>
 80023f4:	6884      	ldr	r4, [r0, #8]
 80023f6:	2c00      	cmp	r4, #0
 80023f8:	dd03      	ble.n	8002402 <_ZN5Eigen16CommaInitializerINS_6MatrixIdLi4ELi1ELi0ELi4ELi1EEEEcmERKd+0x36>
 80023fa:	4b0e      	ldr	r3, [pc, #56]	@ (8002434 <_ZN5Eigen16CommaInitializerINS_6MatrixIdLi4ELi1ELi0ELi4ELi1EEEEcmERKd+0x68>)
 80023fc:	214b      	movs	r1, #75	@ 0x4b
 80023fe:	4a0b      	ldr	r2, [pc, #44]	@ (800242c <_ZN5Eigen16CommaInitializerINS_6MatrixIdLi4ELi1ELi0ELi4ELi1EEEEcmERKd+0x60>)
 8002400:	e7f5      	b.n	80023ee <_ZN5Eigen16CommaInitializerINS_6MatrixIdLi4ELi1ELi0ELi4ELi1EEEEcmERKd+0x22>
 8002402:	68c3      	ldr	r3, [r0, #12]
 8002404:	2b01      	cmp	r3, #1
 8002406:	d003      	beq.n	8002410 <_ZN5Eigen16CommaInitializerINS_6MatrixIdLi4ELi1ELi0ELi4ELi1EEEEcmERKd+0x44>
 8002408:	4b0b      	ldr	r3, [pc, #44]	@ (8002438 <_ZN5Eigen16CommaInitializerINS_6MatrixIdLi4ELi1ELi0ELi4ELi1EEEEcmERKd+0x6c>)
 800240a:	214d      	movs	r1, #77	@ 0x4d
 800240c:	4a07      	ldr	r2, [pc, #28]	@ (800242c <_ZN5Eigen16CommaInitializerINS_6MatrixIdLi4ELi1ELi0ELi4ELi1EEEEcmERKd+0x60>)
 800240e:	e7ee      	b.n	80023ee <_ZN5Eigen16CommaInitializerINS_6MatrixIdLi4ELi1ELi0ELi4ELi1EEEEcmERKd+0x22>
 8002410:	6843      	ldr	r3, [r0, #4]
 8002412:	1c65      	adds	r5, r4, #1
 8002414:	eb03 0384 	add.w	r3, r3, r4, lsl #2
 8002418:	6085      	str	r5, [r0, #8]
 800241a:	e9d1 6700 	ldrd	r6, r7, [r1]
 800241e:	eb02 03c3 	add.w	r3, r2, r3, lsl #3
 8002422:	e9c3 6700 	strd	r6, r7, [r3]
 8002426:	bdf8      	pop	{r3, r4, r5, r6, r7, pc}
 8002428:	0800b5d8 	.word	0x0800b5d8
 800242c:	0800b627 	.word	0x0800b627
 8002430:	0800b6c8 	.word	0x0800b6c8
 8002434:	0800b6fc 	.word	0x0800b6fc
 8002438:	0800b753 	.word	0x0800b753

0800243c <_ZN5Eigen16CommaInitializerINS_6MatrixIdLi4ELi4ELi0ELi4ELi4EEEEcmERKd>:
 800243c:	b5f8      	push	{r3, r4, r5, r6, r7, lr}
 800243e:	6883      	ldr	r3, [r0, #8]
 8002440:	6802      	ldr	r2, [r0, #0]
 8002442:	2b04      	cmp	r3, #4
 8002444:	d10f      	bne.n	8002466 <_ZN5Eigen16CommaInitializerINS_6MatrixIdLi4ELi4ELi0ELi4ELi4EEEEcmERKd+0x2a>
 8002446:	68c4      	ldr	r4, [r0, #12]
 8002448:	2500      	movs	r5, #0
 800244a:	6843      	ldr	r3, [r0, #4]
 800244c:	4423      	add	r3, r4
 800244e:	2401      	movs	r4, #1
 8002450:	2b03      	cmp	r3, #3
 8002452:	6043      	str	r3, [r0, #4]
 8002454:	e9c0 5402 	strd	r5, r4, [r0, #8]
 8002458:	dd05      	ble.n	8002466 <_ZN5Eigen16CommaInitializerINS_6MatrixIdLi4ELi4ELi0ELi4ELi4EEEEcmERKd+0x2a>
 800245a:	4b10      	ldr	r3, [pc, #64]	@ (800249c <_ZN5Eigen16CommaInitializerINS_6MatrixIdLi4ELi4ELi0ELi4ELi4EEEEcmERKd+0x60>)
 800245c:	2148      	movs	r1, #72	@ 0x48
 800245e:	4a10      	ldr	r2, [pc, #64]	@ (80024a0 <_ZN5Eigen16CommaInitializerINS_6MatrixIdLi4ELi4ELi0ELi4ELi4EEEEcmERKd+0x64>)
 8002460:	4810      	ldr	r0, [pc, #64]	@ (80024a4 <_ZN5Eigen16CommaInitializerINS_6MatrixIdLi4ELi4ELi0ELi4ELi4EEEEcmERKd+0x68>)
 8002462:	f007 fc95 	bl	8009d90 <__assert_func>
 8002466:	6884      	ldr	r4, [r0, #8]
 8002468:	2c03      	cmp	r4, #3
 800246a:	dd03      	ble.n	8002474 <_ZN5Eigen16CommaInitializerINS_6MatrixIdLi4ELi4ELi0ELi4ELi4EEEEcmERKd+0x38>
 800246c:	4b0e      	ldr	r3, [pc, #56]	@ (80024a8 <_ZN5Eigen16CommaInitializerINS_6MatrixIdLi4ELi4ELi0ELi4ELi4EEEEcmERKd+0x6c>)
 800246e:	214b      	movs	r1, #75	@ 0x4b
 8002470:	4a0b      	ldr	r2, [pc, #44]	@ (80024a0 <_ZN5Eigen16CommaInitializerINS_6MatrixIdLi4ELi4ELi0ELi4ELi4EEEEcmERKd+0x64>)
 8002472:	e7f5      	b.n	8002460 <_ZN5Eigen16CommaInitializerINS_6MatrixIdLi4ELi4ELi0ELi4ELi4EEEEcmERKd+0x24>
 8002474:	68c3      	ldr	r3, [r0, #12]
 8002476:	2b01      	cmp	r3, #1
 8002478:	d003      	beq.n	8002482 <_ZN5Eigen16CommaInitializerINS_6MatrixIdLi4ELi4ELi0ELi4ELi4EEEEcmERKd+0x46>
 800247a:	4b0c      	ldr	r3, [pc, #48]	@ (80024ac <_ZN5Eigen16CommaInitializerINS_6MatrixIdLi4ELi4ELi0ELi4ELi4EEEEcmERKd+0x70>)
 800247c:	214d      	movs	r1, #77	@ 0x4d
 800247e:	4a08      	ldr	r2, [pc, #32]	@ (80024a0 <_ZN5Eigen16CommaInitializerINS_6MatrixIdLi4ELi4ELi0ELi4ELi4EEEEcmERKd+0x64>)
 8002480:	e7ee      	b.n	8002460 <_ZN5Eigen16CommaInitializerINS_6MatrixIdLi4ELi4ELi0ELi4ELi4EEEEcmERKd+0x24>
 8002482:	6843      	ldr	r3, [r0, #4]
 8002484:	1c65      	adds	r5, r4, #1
 8002486:	eb03 0384 	add.w	r3, r3, r4, lsl #2
 800248a:	6085      	str	r5, [r0, #8]
 800248c:	e9d1 6700 	ldrd	r6, r7, [r1]
 8002490:	eb02 03c3 	add.w	r3, r2, r3, lsl #3
 8002494:	e9c3 6700 	strd	r6, r7, [r3]
 8002498:	bdf8      	pop	{r3, r4, r5, r6, r7, pc}
 800249a:	bf00      	nop
 800249c:	0800b5d8 	.word	0x0800b5d8
 80024a0:	0800b769 	.word	0x0800b769
 80024a4:	0800b6c8 	.word	0x0800b6c8
 80024a8:	0800b6fc 	.word	0x0800b6fc
 80024ac:	0800b753 	.word	0x0800b753

080024b0 <_ZN5Eigen16CommaInitializerINS_6MatrixIdLi6ELi4ELi0ELi6ELi4EEEEcmERKd>:
 80024b0:	b5f8      	push	{r3, r4, r5, r6, r7, lr}
 80024b2:	6883      	ldr	r3, [r0, #8]
 80024b4:	6802      	ldr	r2, [r0, #0]
 80024b6:	2b04      	cmp	r3, #4
 80024b8:	d10f      	bne.n	80024da <_ZN5Eigen16CommaInitializerINS_6MatrixIdLi6ELi4ELi0ELi6ELi4EEEEcmERKd+0x2a>
 80024ba:	68c4      	ldr	r4, [r0, #12]
 80024bc:	2500      	movs	r5, #0
 80024be:	6843      	ldr	r3, [r0, #4]
 80024c0:	4423      	add	r3, r4
 80024c2:	2401      	movs	r4, #1
 80024c4:	2b05      	cmp	r3, #5
 80024c6:	6043      	str	r3, [r0, #4]
 80024c8:	e9c0 5402 	strd	r5, r4, [r0, #8]
 80024cc:	dd05      	ble.n	80024da <_ZN5Eigen16CommaInitializerINS_6MatrixIdLi6ELi4ELi0ELi6ELi4EEEEcmERKd+0x2a>
 80024ce:	4b10      	ldr	r3, [pc, #64]	@ (8002510 <_ZN5Eigen16CommaInitializerINS_6MatrixIdLi6ELi4ELi0ELi6ELi4EEEEcmERKd+0x60>)
 80024d0:	2148      	movs	r1, #72	@ 0x48
 80024d2:	4a10      	ldr	r2, [pc, #64]	@ (8002514 <_ZN5Eigen16CommaInitializerINS_6MatrixIdLi6ELi4ELi0ELi6ELi4EEEEcmERKd+0x64>)
 80024d4:	4810      	ldr	r0, [pc, #64]	@ (8002518 <_ZN5Eigen16CommaInitializerINS_6MatrixIdLi6ELi4ELi0ELi6ELi4EEEEcmERKd+0x68>)
 80024d6:	f007 fc5b 	bl	8009d90 <__assert_func>
 80024da:	6884      	ldr	r4, [r0, #8]
 80024dc:	2c03      	cmp	r4, #3
 80024de:	dd03      	ble.n	80024e8 <_ZN5Eigen16CommaInitializerINS_6MatrixIdLi6ELi4ELi0ELi6ELi4EEEEcmERKd+0x38>
 80024e0:	4b0e      	ldr	r3, [pc, #56]	@ (800251c <_ZN5Eigen16CommaInitializerINS_6MatrixIdLi6ELi4ELi0ELi6ELi4EEEEcmERKd+0x6c>)
 80024e2:	214b      	movs	r1, #75	@ 0x4b
 80024e4:	4a0b      	ldr	r2, [pc, #44]	@ (8002514 <_ZN5Eigen16CommaInitializerINS_6MatrixIdLi6ELi4ELi0ELi6ELi4EEEEcmERKd+0x64>)
 80024e6:	e7f5      	b.n	80024d4 <_ZN5Eigen16CommaInitializerINS_6MatrixIdLi6ELi4ELi0ELi6ELi4EEEEcmERKd+0x24>
 80024e8:	68c3      	ldr	r3, [r0, #12]
 80024ea:	2b01      	cmp	r3, #1
 80024ec:	d003      	beq.n	80024f6 <_ZN5Eigen16CommaInitializerINS_6MatrixIdLi6ELi4ELi0ELi6ELi4EEEEcmERKd+0x46>
 80024ee:	4b0c      	ldr	r3, [pc, #48]	@ (8002520 <_ZN5Eigen16CommaInitializerINS_6MatrixIdLi6ELi4ELi0ELi6ELi4EEEEcmERKd+0x70>)
 80024f0:	214d      	movs	r1, #77	@ 0x4d
 80024f2:	4a08      	ldr	r2, [pc, #32]	@ (8002514 <_ZN5Eigen16CommaInitializerINS_6MatrixIdLi6ELi4ELi0ELi6ELi4EEEEcmERKd+0x64>)
 80024f4:	e7ee      	b.n	80024d4 <_ZN5Eigen16CommaInitializerINS_6MatrixIdLi6ELi4ELi0ELi6ELi4EEEEcmERKd+0x24>
 80024f6:	6843      	ldr	r3, [r0, #4]
 80024f8:	1c65      	adds	r5, r4, #1
 80024fa:	e9d1 6700 	ldrd	r6, r7, [r1]
 80024fe:	2106      	movs	r1, #6
 8002500:	6085      	str	r5, [r0, #8]
 8002502:	fb01 3304 	mla	r3, r1, r4, r3
 8002506:	eb02 03c3 	add.w	r3, r2, r3, lsl #3
 800250a:	e9c3 6700 	strd	r6, r7, [r3]
 800250e:	bdf8      	pop	{r3, r4, r5, r6, r7, pc}
 8002510:	0800b5d8 	.word	0x0800b5d8
 8002514:	0800b80a 	.word	0x0800b80a
 8002518:	0800b6c8 	.word	0x0800b6c8
 800251c:	0800b6fc 	.word	0x0800b6fc
 8002520:	0800b753 	.word	0x0800b753

08002524 <_ZN4AHRS11computeAHRSERKN5Eigen6MatrixIdLi3ELi1ELi0ELi3ELi1EEES4_S4_RKd.isra.0>:
 8002524:	b570      	push	{r4, r5, r6, lr}
 8002526:	4605      	mov	r5, r0
 8002528:	b08a      	sub	sp, #40	@ 0x28
 800252a:	b149      	cbz	r1, 8002540 <_ZN4AHRS11computeAHRSERKN5Eigen6MatrixIdLi3ELi1ELi0ELi3ELi1EEES4_S4_RKd.isra.0+0x1c>
 800252c:	9e0f      	ldr	r6, [sp, #60]	@ 0x3c
 800252e:	680c      	ldr	r4, [r1, #0]
 8002530:	9601      	str	r6, [sp, #4]
 8002532:	9e0e      	ldr	r6, [sp, #56]	@ 0x38
 8002534:	9600      	str	r6, [sp, #0]
 8002536:	6824      	ldr	r4, [r4, #0]
 8002538:	47a0      	blx	r4
 800253a:	4628      	mov	r0, r5
 800253c:	b00a      	add	sp, #40	@ 0x28
 800253e:	bd70      	pop	{r4, r5, r6, pc}
 8002540:	2200      	movs	r2, #0
 8002542:	4b09      	ldr	r3, [pc, #36]	@ (8002568 <_ZN4AHRS11computeAHRSERKN5Eigen6MatrixIdLi3ELi1ELi0ELi3ELi1EEES4_S4_RKd.isra.0+0x44>)
 8002544:	a906      	add	r1, sp, #24
 8002546:	e9cd 2308 	strd	r2, r3, [sp, #32]
 800254a:	2200      	movs	r2, #0
 800254c:	2300      	movs	r3, #0
 800254e:	e9cd 2306 	strd	r2, r3, [sp, #24]
 8002552:	e9cd 2304 	strd	r2, r3, [sp, #16]
 8002556:	e9cd 2302 	strd	r2, r3, [sp, #8]
 800255a:	ab08      	add	r3, sp, #32
 800255c:	aa04      	add	r2, sp, #16
 800255e:	9300      	str	r3, [sp, #0]
 8002560:	ab02      	add	r3, sp, #8
 8002562:	f7fe fa1d 	bl	80009a0 <_ZN5Eigen6MatrixIdLi4ELi1ELi0ELi4ELi1EEC1ERKdS3_S3_S3_>
 8002566:	e7e8      	b.n	800253a <_ZN4AHRS11computeAHRSERKN5Eigen6MatrixIdLi3ELi1ELi0ELi3ELi1EEES4_S4_RKd.isra.0+0x16>
 8002568:	3ff00000 	.word	0x3ff00000

0800256c <_ZN15DroneController8mainLoopEd>:
 800256c:	e92d 43f0 	stmdb	sp!, {r4, r5, r6, r7, r8, r9, lr}
 8002570:	b0a5      	sub	sp, #148	@ 0x94
 8002572:	4604      	mov	r4, r0
 8002574:	f10d 0537 	add.w	r5, sp, #55	@ 0x37
 8002578:	f504 76a0 	add.w	r6, r4, #320	@ 0x140
 800257c:	f504 77bc 	add.w	r7, r4, #376	@ 0x178
 8002580:	f10d 0908 	add.w	r9, sp, #8
 8002584:	f025 050f 	bic.w	r5, r5, #15
 8002588:	f10d 0810 	add.w	r8, sp, #16
 800258c:	ed8d 0b02 	vstr	d0, [sp, #8]
 8002590:	f7fe fe2e 	bl	80011f0 <_ZN7MPU925018read_gyro_acc_dataEv>
 8002594:	4620      	mov	r0, r4
 8002596:	f7fe ff43 	bl	8001420 <_ZN7MPU925025filter_and_calibrate_dataEv>
 800259a:	2200      	movs	r2, #0
 800259c:	2300      	movs	r3, #0
 800259e:	2000      	movs	r0, #0
 80025a0:	4916      	ldr	r1, [pc, #88]	@ (80025fc <_ZN15DroneController8mainLoopEd+0x90>)
 80025a2:	f8cd 9004 	str.w	r9, [sp, #4]
 80025a6:	f8cd 8000 	str.w	r8, [sp]
 80025aa:	e9cd 2304 	strd	r2, r3, [sp, #16]
 80025ae:	e9cd 0106 	strd	r0, r1, [sp, #24]
 80025b2:	e9cd 2308 	strd	r2, r3, [sp, #32]
 80025b6:	f8d4 15c0 	ldr.w	r1, [r4, #1472]	@ 0x5c0
 80025ba:	463b      	mov	r3, r7
 80025bc:	4632      	mov	r2, r6
 80025be:	f105 0040 	add.w	r0, r5, #64	@ 0x40
 80025c2:	f7ff ffaf 	bl	8002524 <_ZN4AHRS11computeAHRSERKN5Eigen6MatrixIdLi3ELi1ELi0ELi3ELi1EEES4_S4_RKd.isra.0>
 80025c6:	463b      	mov	r3, r7
 80025c8:	4632      	mov	r2, r6
 80025ca:	f105 0020 	add.w	r0, r5, #32
 80025ce:	e9cd 8900 	strd	r8, r9, [sp]
 80025d2:	f8d4 15c4 	ldr.w	r1, [r4, #1476]	@ 0x5c4
 80025d6:	f7ff ffa5 	bl	8002524 <_ZN4AHRS11computeAHRSERKN5Eigen6MatrixIdLi3ELi1ELi0ELi3ELi1EEES4_S4_RKd.isra.0>
 80025da:	463b      	mov	r3, r7
 80025dc:	4632      	mov	r2, r6
 80025de:	4628      	mov	r0, r5
 80025e0:	e9cd 8900 	strd	r8, r9, [sp]
 80025e4:	f8d4 15c8 	ldr.w	r1, [r4, #1480]	@ 0x5c8
 80025e8:	f7ff ff9c 	bl	8002524 <_ZN4AHRS11computeAHRSERKN5Eigen6MatrixIdLi3ELi1ELi0ELi3ELi1EEES4_S4_RKd.isra.0>
 80025ec:	f7ff f986 	bl	80018fc <_ZN10LogManager11getInstanceEv>
 80025f0:	4629      	mov	r1, r5
 80025f2:	f7ff f999 	bl	8001928 <_ZN10LogManager11serialPrintERKN5Eigen10QuaternionIdLi0EEE>
 80025f6:	b025      	add	sp, #148	@ 0x94
 80025f8:	e8bd 83f0 	ldmia.w	sp!, {r4, r5, r6, r7, r8, r9, pc}
 80025fc:	3ff00000 	.word	0x3ff00000

08002600 <_ZN7IFilterC1Ev>:
 8002600:	b570      	push	{r4, r5, r6, lr}
 8002602:	4b15      	ldr	r3, [pc, #84]	@ (8002658 <_ZN7IFilterC1Ev+0x58>)
 8002604:	4604      	mov	r4, r0
 8002606:	b094      	sub	sp, #80	@ 0x50
 8002608:	4606      	mov	r6, r0
 800260a:	f844 3b10 	str.w	r3, [r4], #16
 800260e:	4620      	mov	r0, r4
 8002610:	f7fe f82e 	bl	8000670 <_ZN5Eigen8internal11plain_arrayIdLi4ELi0ELi16EEC1Ev>
 8002614:	2200      	movs	r2, #0
 8002616:	4b11      	ldr	r3, [pc, #68]	@ (800265c <_ZN7IFilterC1Ev+0x5c>)
 8002618:	f10d 0537 	add.w	r5, sp, #55	@ 0x37
 800261c:	a904      	add	r1, sp, #16
 800261e:	f025 050f 	bic.w	r5, r5, #15
 8002622:	e9cd 2302 	strd	r2, r3, [sp, #8]
 8002626:	2200      	movs	r2, #0
 8002628:	2300      	movs	r3, #0
 800262a:	4628      	mov	r0, r5
 800262c:	e9cd 2304 	strd	r2, r3, [sp, #16]
 8002630:	e9cd 2306 	strd	r2, r3, [sp, #24]
 8002634:	e9cd 2308 	strd	r2, r3, [sp, #32]
 8002638:	ab02      	add	r3, sp, #8
 800263a:	aa06      	add	r2, sp, #24
 800263c:	9300      	str	r3, [sp, #0]
 800263e:	ab08      	add	r3, sp, #32
 8002640:	f7fe f9ae 	bl	80009a0 <_ZN5Eigen6MatrixIdLi4ELi1ELi0ELi4ELi1EEC1ERKdS3_S3_S3_>
 8002644:	cd0f      	ldmia	r5!, {r0, r1, r2, r3}
 8002646:	c40f      	stmia	r4!, {r0, r1, r2, r3}
 8002648:	e895 000f 	ldmia.w	r5, {r0, r1, r2, r3}
 800264c:	e884 000f 	stmia.w	r4, {r0, r1, r2, r3}
 8002650:	4630      	mov	r0, r6
 8002652:	b014      	add	sp, #80	@ 0x50
 8002654:	bd70      	pop	{r4, r5, r6, pc}
 8002656:	bf00      	nop
 8002658:	0800dd38 	.word	0x0800dd38
 800265c:	3ff00000 	.word	0x3ff00000

08002660 <_ZN5Eigen8internal11plain_arrayIdLi16ELi0ELi16EEC1Ev>:
 8002660:	b508      	push	{r3, lr}
 8002662:	0703      	lsls	r3, r0, #28
 8002664:	d005      	beq.n	8002672 <_ZN5Eigen8internal11plain_arrayIdLi16ELi0ELi16EEC1Ev+0x12>
 8002666:	4b03      	ldr	r3, [pc, #12]	@ (8002674 <_ZN5Eigen8internal11plain_arrayIdLi16ELi0ELi16EEC1Ev+0x14>)
 8002668:	216d      	movs	r1, #109	@ 0x6d
 800266a:	4a03      	ldr	r2, [pc, #12]	@ (8002678 <_ZN5Eigen8internal11plain_arrayIdLi16ELi0ELi16EEC1Ev+0x18>)
 800266c:	4803      	ldr	r0, [pc, #12]	@ (800267c <_ZN5Eigen8internal11plain_arrayIdLi16ELi0ELi16EEC1Ev+0x1c>)
 800266e:	f007 fb8f 	bl	8009d90 <__assert_func>
 8002672:	bd08      	pop	{r3, pc}
 8002674:	0800b0a8 	.word	0x0800b0a8
 8002678:	0800b8ab 	.word	0x0800b8ab
 800267c:	0800b224 	.word	0x0800b224

08002680 <_ZN5Eigen8internal11plain_arrayIdLi36ELi0ELi16EEC1Ev>:
 8002680:	b508      	push	{r3, lr}
 8002682:	0703      	lsls	r3, r0, #28
 8002684:	d005      	beq.n	8002692 <_ZN5Eigen8internal11plain_arrayIdLi36ELi0ELi16EEC1Ev+0x12>
 8002686:	4b03      	ldr	r3, [pc, #12]	@ (8002694 <_ZN5Eigen8internal11plain_arrayIdLi36ELi0ELi16EEC1Ev+0x14>)
 8002688:	216d      	movs	r1, #109	@ 0x6d
 800268a:	4a03      	ldr	r2, [pc, #12]	@ (8002698 <_ZN5Eigen8internal11plain_arrayIdLi36ELi0ELi16EEC1Ev+0x18>)
 800268c:	4803      	ldr	r0, [pc, #12]	@ (800269c <_ZN5Eigen8internal11plain_arrayIdLi36ELi0ELi16EEC1Ev+0x1c>)
 800268e:	f007 fb7f 	bl	8009d90 <__assert_func>
 8002692:	bd08      	pop	{r3, pc}
 8002694:	0800b0a8 	.word	0x0800b0a8
 8002698:	0800b939 	.word	0x0800b939
 800269c:	0800b224 	.word	0x0800b224

080026a0 <_ZN5Eigen8internal11plain_arrayIdLi6ELi0ELi16EEC1Ev>:
 80026a0:	b508      	push	{r3, lr}
 80026a2:	0703      	lsls	r3, r0, #28
 80026a4:	d005      	beq.n	80026b2 <_ZN5Eigen8internal11plain_arrayIdLi6ELi0ELi16EEC1Ev+0x12>
 80026a6:	4b03      	ldr	r3, [pc, #12]	@ (80026b4 <_ZN5Eigen8internal11plain_arrayIdLi6ELi0ELi16EEC1Ev+0x14>)
 80026a8:	216d      	movs	r1, #109	@ 0x6d
 80026aa:	4a03      	ldr	r2, [pc, #12]	@ (80026b8 <_ZN5Eigen8internal11plain_arrayIdLi6ELi0ELi16EEC1Ev+0x18>)
 80026ac:	4803      	ldr	r0, [pc, #12]	@ (80026bc <_ZN5Eigen8internal11plain_arrayIdLi6ELi0ELi16EEC1Ev+0x1c>)
 80026ae:	f007 fb6f 	bl	8009d90 <__assert_func>
 80026b2:	bd08      	pop	{r3, pc}
 80026b4:	0800b0a8 	.word	0x0800b0a8
 80026b8:	0800b9c7 	.word	0x0800b9c7
 80026bc:	0800b224 	.word	0x0800b224

080026c0 <_ZN5Eigen8internal11plain_arrayIdLi24ELi0ELi16EEC1Ev>:
 80026c0:	b508      	push	{r3, lr}
 80026c2:	0703      	lsls	r3, r0, #28
 80026c4:	d005      	beq.n	80026d2 <_ZN5Eigen8internal11plain_arrayIdLi24ELi0ELi16EEC1Ev+0x12>
 80026c6:	4b03      	ldr	r3, [pc, #12]	@ (80026d4 <_ZN5Eigen8internal11plain_arrayIdLi24ELi0ELi16EEC1Ev+0x14>)
 80026c8:	216d      	movs	r1, #109	@ 0x6d
 80026ca:	4a03      	ldr	r2, [pc, #12]	@ (80026d8 <_ZN5Eigen8internal11plain_arrayIdLi24ELi0ELi16EEC1Ev+0x18>)
 80026cc:	4803      	ldr	r0, [pc, #12]	@ (80026dc <_ZN5Eigen8internal11plain_arrayIdLi24ELi0ELi16EEC1Ev+0x1c>)
 80026ce:	f007 fb5f 	bl	8009d90 <__assert_func>
 80026d2:	bd08      	pop	{r3, pc}
 80026d4:	0800b0a8 	.word	0x0800b0a8
 80026d8:	0800ba54 	.word	0x0800ba54
 80026dc:	0800b224 	.word	0x0800b224

080026e0 <_ZNK5Eigen10MatrixBaseINS_5BlockIKNS_6MatrixIdLi4ELi1ELi0ELi4ELi1EEELi3ELi1ELb0EEEE5crossINS2_IdLi3ELi1ELi0ELi3ELi1EEEEENS6_25cross_product_return_typeIT_E4typeERKNS0_ISA_EE>:
 80026e0:	b5f0      	push	{r4, r5, r6, r7, lr}
 80026e2:	460c      	mov	r4, r1
 80026e4:	b087      	sub	sp, #28
 80026e6:	4606      	mov	r6, r0
 80026e8:	4617      	mov	r7, r2
 80026ea:	466d      	mov	r5, sp
 80026ec:	cc0f      	ldmia	r4!, {r0, r1, r2, r3}
 80026ee:	c50f      	stmia	r5!, {r0, r1, r2, r3}
 80026f0:	9b00      	ldr	r3, [sp, #0]
 80026f2:	ed97 3b02 	vldr	d3, [r7, #8]
 80026f6:	ed93 1b04 	vldr	d1, [r3, #16]
 80026fa:	ed93 2b02 	vldr	d2, [r3, #8]
 80026fe:	ed97 6b04 	vldr	d6, [r7, #16]
 8002702:	ee23 5b41 	vnmul.f64	d5, d3, d1
 8002706:	ed93 4b00 	vldr	d4, [r3]
 800270a:	ed97 7b00 	vldr	d7, [r7]
 800270e:	eea2 5b06 	vfma.f64	d5, d2, d6
 8002712:	ee24 6b46 	vnmul.f64	d6, d4, d6
 8002716:	e894 0003 	ldmia.w	r4, {r0, r1}
 800271a:	eea1 6b07 	vfma.f64	d6, d1, d7
 800271e:	ee27 7b42 	vnmul.f64	d7, d7, d2
 8002722:	e885 0003 	stmia.w	r5, {r0, r1}
 8002726:	4630      	mov	r0, r6
 8002728:	eea3 7b04 	vfma.f64	d7, d3, d4
 800272c:	ed86 5b00 	vstr	d5, [r6]
 8002730:	ed86 6b02 	vstr	d6, [r6, #8]
 8002734:	ed86 7b04 	vstr	d7, [r6, #16]
 8002738:	b007      	add	sp, #28
 800273a:	bdf0      	pop	{r4, r5, r6, r7, pc}

0800273c <_ZN5Eigen8internal31generic_dense_assignment_kernelINS0_9evaluatorINS_6MatrixIdLi4ELi4ELi0ELi4ELi4EEEEENS2_INS_14CwiseNullaryOpINS0_18scalar_constant_opIdEES4_EEEENS0_13mul_assign_opIddEELi0EE11assignCoeffEi>:
 800273c:	6803      	ldr	r3, [r0, #0]
 800273e:	681b      	ldr	r3, [r3, #0]
 8002740:	eb03 01c1 	add.w	r1, r3, r1, lsl #3
 8002744:	6843      	ldr	r3, [r0, #4]
 8002746:	ed91 7b00 	vldr	d7, [r1]
 800274a:	ed93 6b00 	vldr	d6, [r3]
 800274e:	ee27 7b06 	vmul.f64	d7, d7, d6
 8002752:	ed81 7b00 	vstr	d7, [r1]
 8002756:	4770      	bx	lr

08002758 <_ZN5Eigen8internal31generic_dense_assignment_kernelINS0_9evaluatorINS_6MatrixIdLi6ELi6ELi0ELi6ELi6EEEEENS2_INS_14CwiseNullaryOpINS0_18scalar_constant_opIdEES4_EEEENS0_13mul_assign_opIddEELi0EE11assignCoeffEi>:
 8002758:	6803      	ldr	r3, [r0, #0]
 800275a:	681b      	ldr	r3, [r3, #0]
 800275c:	eb03 01c1 	add.w	r1, r3, r1, lsl #3
 8002760:	6843      	ldr	r3, [r0, #4]
 8002762:	ed91 7b00 	vldr	d7, [r1]
 8002766:	ed93 6b00 	vldr	d6, [r3]
 800276a:	ee27 7b06 	vmul.f64	d7, d7, d6
 800276e:	ed81 7b00 	vstr	d7, [r1]
 8002772:	4770      	bx	lr

08002774 <_ZN5Eigen8internal26call_dense_assignment_loopINS_5BlockINS_6MatrixIdLi6ELi1ELi0ELi6ELi1EEELin1ELin1ELb0EEENS3_IdLi3ELi1ELi0ELi3ELi1EEENS0_9assign_opIddEEEEvRT_RKT0_RKT1_>:
 8002774:	b538      	push	{r3, r4, r5, lr}
 8002776:	6843      	ldr	r3, [r0, #4]
 8002778:	2b03      	cmp	r3, #3
 800277a:	d102      	bne.n	8002782 <_ZN5Eigen8internal26call_dense_assignment_loopINS_5BlockINS_6MatrixIdLi6ELi1ELi0ELi6ELi1EEELin1ELin1ELb0EEENS3_IdLi3ELi1ELi0ELi3ELi1EEENS0_9assign_opIddEEEEvRT_RKT0_RKT1_+0xe>
 800277c:	6883      	ldr	r3, [r0, #8]
 800277e:	2b01      	cmp	r3, #1
 8002780:	d006      	beq.n	8002790 <_ZN5Eigen8internal26call_dense_assignment_loopINS_5BlockINS_6MatrixIdLi6ELi1ELi0ELi6ELi1EEELin1ELin1ELb0EEENS3_IdLi3ELi1ELi0ELi3ELi1EEENS0_9assign_opIddEEEEvRT_RKT0_RKT1_+0x1c>
 8002782:	4b08      	ldr	r3, [pc, #32]	@ (80027a4 <_ZN5Eigen8internal26call_dense_assignment_loopINS_5BlockINS_6MatrixIdLi6ELi1ELi0ELi6ELi1EEELin1ELin1ELb0EEENS3_IdLi3ELi1ELi0ELi3ELi1EEENS0_9assign_opIddEEEEvRT_RKT0_RKT1_+0x30>)
 8002784:	f240 1105 	movw	r1, #261	@ 0x105
 8002788:	4a07      	ldr	r2, [pc, #28]	@ (80027a8 <_ZN5Eigen8internal26call_dense_assignment_loopINS_5BlockINS_6MatrixIdLi6ELi1ELi0ELi6ELi1EEELin1ELin1ELb0EEENS3_IdLi3ELi1ELi0ELi3ELi1EEENS0_9assign_opIddEEEEvRT_RKT0_RKT1_+0x34>)
 800278a:	4808      	ldr	r0, [pc, #32]	@ (80027ac <_ZN5Eigen8internal26call_dense_assignment_loopINS_5BlockINS_6MatrixIdLi6ELi1ELi0ELi6ELi1EEELin1ELin1ELb0EEENS3_IdLi3ELi1ELi0ELi3ELi1EEENS0_9assign_opIddEEEEvRT_RKT0_RKT1_+0x38>)
 800278c:	f007 fb00 	bl	8009d90 <__assert_func>
 8002790:	6803      	ldr	r3, [r0, #0]
 8002792:	f101 0218 	add.w	r2, r1, #24
 8002796:	e8f1 4502 	ldrd	r4, r5, [r1], #8
 800279a:	428a      	cmp	r2, r1
 800279c:	e8e3 4502 	strd	r4, r5, [r3], #8
 80027a0:	d1f9      	bne.n	8002796 <_ZN5Eigen8internal26call_dense_assignment_loopINS_5BlockINS_6MatrixIdLi6ELi1ELi0ELi6ELi1EEELin1ELin1ELb0EEENS3_IdLi3ELi1ELi0ELi3ELi1EEENS0_9assign_opIddEEEEvRT_RKT0_RKT1_+0x22>
 80027a2:	bd38      	pop	{r3, r4, r5, pc}
 80027a4:	0800bae2 	.word	0x0800bae2
 80027a8:	0800bb4b 	.word	0x0800bb4b
 80027ac:	0800bbf5 	.word	0x0800bbf5

080027b0 <_ZN5Eigen8internal31generic_dense_assignment_kernelINS0_9evaluatorINS_5BlockINS_6MatrixIdLi4ELi1ELi0ELi4ELi1EEELi4ELi1ELb0EEEEENS2_INS_14CwiseNullaryOpINS0_18scalar_constant_opIdEES5_EEEENS0_13div_assign_opIddEELi0EE11assignCoeffEi>:
 80027b0:	6803      	ldr	r3, [r0, #0]
 80027b2:	681b      	ldr	r3, [r3, #0]
 80027b4:	eb03 01c1 	add.w	r1, r3, r1, lsl #3
 80027b8:	6843      	ldr	r3, [r0, #4]
 80027ba:	ed91 5b00 	vldr	d5, [r1]
 80027be:	ed93 6b00 	vldr	d6, [r3]
 80027c2:	ee85 7b06 	vdiv.f64	d7, d5, d6
 80027c6:	ed81 7b00 	vstr	d7, [r1]
 80027ca:	4770      	bx	lr

080027cc <_ZN5Eigen10MatrixBaseINS_5BlockINS_6MatrixIdLi4ELi1ELi0ELi4ELi1EEELi4ELi1ELb0EEEE9normalizeEv>:
 80027cc:	b530      	push	{r4, r5, lr}
 80027ce:	6804      	ldr	r4, [r0, #0]
 80027d0:	b08d      	sub	sp, #52	@ 0x34
 80027d2:	4605      	mov	r5, r0
 80027d4:	ed94 7b02 	vldr	d7, [r4, #8]
 80027d8:	ed94 0b06 	vldr	d0, [r4, #24]
 80027dc:	ed94 6b00 	vldr	d6, [r4]
 80027e0:	ee27 7b07 	vmul.f64	d7, d7, d7
 80027e4:	ee20 0b00 	vmul.f64	d0, d0, d0
 80027e8:	eea6 7b06 	vfma.f64	d7, d6, d6
 80027ec:	ed94 6b04 	vldr	d6, [r4, #16]
 80027f0:	eea6 0b06 	vfma.f64	d0, d6, d6
 80027f4:	ee30 0b07 	vadd.f64	d0, d0, d7
 80027f8:	eeb5 0bc0 	vcmpe.f64	d0, #0.0
 80027fc:	eef1 fa10 	vmrs	APSR_nzcv, fpscr
 8002800:	dd1b      	ble.n	800283a <_ZN5Eigen10MatrixBaseINS_5BlockINS_6MatrixIdLi4ELi1ELi0ELi4ELi1EEELi4ELi1ELb0EEEE9normalizeEv+0x6e>
 8002802:	f006 fb85 	bl	8008f10 <sqrt>
 8002806:	ab02      	add	r3, sp, #8
 8002808:	2100      	movs	r1, #0
 800280a:	a808      	add	r0, sp, #32
 800280c:	9308      	str	r3, [sp, #32]
 800280e:	ab04      	add	r3, sp, #16
 8002810:	9402      	str	r4, [sp, #8]
 8002812:	9309      	str	r3, [sp, #36]	@ 0x24
 8002814:	ab01      	add	r3, sp, #4
 8002816:	ed8d 0b04 	vstr	d0, [sp, #16]
 800281a:	e9cd 350a 	strd	r3, r5, [sp, #40]	@ 0x28
 800281e:	f7ff ffc7 	bl	80027b0 <_ZN5Eigen8internal31generic_dense_assignment_kernelINS0_9evaluatorINS_5BlockINS_6MatrixIdLi4ELi1ELi0ELi4ELi1EEELi4ELi1ELb0EEEEENS2_INS_14CwiseNullaryOpINS0_18scalar_constant_opIdEES5_EEEENS0_13div_assign_opIddEELi0EE11assignCoeffEi>
 8002822:	2101      	movs	r1, #1
 8002824:	a808      	add	r0, sp, #32
 8002826:	f7ff ffc3 	bl	80027b0 <_ZN5Eigen8internal31generic_dense_assignment_kernelINS0_9evaluatorINS_5BlockINS_6MatrixIdLi4ELi1ELi0ELi4ELi1EEELi4ELi1ELb0EEEEENS2_INS_14CwiseNullaryOpINS0_18scalar_constant_opIdEES5_EEEENS0_13div_assign_opIddEELi0EE11assignCoeffEi>
 800282a:	2102      	movs	r1, #2
 800282c:	a808      	add	r0, sp, #32
 800282e:	f7ff ffbf 	bl	80027b0 <_ZN5Eigen8internal31generic_dense_assignment_kernelINS0_9evaluatorINS_5BlockINS_6MatrixIdLi4ELi1ELi0ELi4ELi1EEELi4ELi1ELb0EEEEENS2_INS_14CwiseNullaryOpINS0_18scalar_constant_opIdEES5_EEEENS0_13div_assign_opIddEELi0EE11assignCoeffEi>
 8002832:	2103      	movs	r1, #3
 8002834:	a808      	add	r0, sp, #32
 8002836:	f7ff ffbb 	bl	80027b0 <_ZN5Eigen8internal31generic_dense_assignment_kernelINS0_9evaluatorINS_5BlockINS_6MatrixIdLi4ELi1ELi0ELi4ELi1EEELi4ELi1ELb0EEEEENS2_INS_14CwiseNullaryOpINS0_18scalar_constant_opIdEES5_EEEENS0_13div_assign_opIddEELi0EE11assignCoeffEi>
 800283a:	b00d      	add	sp, #52	@ 0x34
 800283c:	bd30      	pop	{r4, r5, pc}

0800283e <_ZN5Eigen8internal31generic_dense_assignment_kernelINS0_9evaluatorINS_6MatrixIdLi6ELi1ELi0ELi6ELi1EEEEENS2_INS_13CwiseBinaryOpINS0_20scalar_difference_opIddEEKS4_S9_EEEENS0_9assign_opIddEELi0EE11assignCoeffEi>:
 800283e:	b510      	push	{r4, lr}
 8002840:	e9d0 3400 	ldrd	r3, r4, [r0]
 8002844:	6862      	ldr	r2, [r4, #4]
 8002846:	681b      	ldr	r3, [r3, #0]
 8002848:	eb02 00c1 	add.w	r0, r2, r1, lsl #3
 800284c:	68a2      	ldr	r2, [r4, #8]
 800284e:	eb03 03c1 	add.w	r3, r3, r1, lsl #3
 8002852:	eb02 02c1 	add.w	r2, r2, r1, lsl #3
 8002856:	ed90 7b00 	vldr	d7, [r0]
 800285a:	ed92 6b00 	vldr	d6, [r2]
 800285e:	ee37 7b46 	vsub.f64	d7, d7, d6
 8002862:	ed83 7b00 	vstr	d7, [r3]
 8002866:	bd10      	pop	{r4, pc}

08002868 <_ZN5Eigen10MatrixBaseINS_6MatrixIdLi3ELi1ELi0ELi3ELi1EEEE9normalizeEv>:
 8002868:	ed90 0b04 	vldr	d0, [r0, #16]
 800286c:	ed90 6b02 	vldr	d6, [r0, #8]
 8002870:	ed90 7b00 	vldr	d7, [r0]
 8002874:	ee20 0b00 	vmul.f64	d0, d0, d0
 8002878:	b510      	push	{r4, lr}
 800287a:	eea6 0b06 	vfma.f64	d0, d6, d6
 800287e:	b08a      	sub	sp, #40	@ 0x28
 8002880:	4604      	mov	r4, r0
 8002882:	eea7 0b07 	vfma.f64	d0, d7, d7
 8002886:	eeb5 0bc0 	vcmpe.f64	d0, #0.0
 800288a:	eef1 fa10 	vmrs	APSR_nzcv, fpscr
 800288e:	dd17      	ble.n	80028c0 <_ZN5Eigen10MatrixBaseINS_6MatrixIdLi3ELi1ELi0ELi3ELi1EEEE9normalizeEv+0x58>
 8002890:	f006 fb3e 	bl	8008f10 <sqrt>
 8002894:	ab01      	add	r3, sp, #4
 8002896:	2100      	movs	r1, #0
 8002898:	a806      	add	r0, sp, #24
 800289a:	9306      	str	r3, [sp, #24]
 800289c:	ab02      	add	r3, sp, #8
 800289e:	9401      	str	r4, [sp, #4]
 80028a0:	9307      	str	r3, [sp, #28]
 80028a2:	f8cd d020 	str.w	sp, [sp, #32]
 80028a6:	9409      	str	r4, [sp, #36]	@ 0x24
 80028a8:	ed8d 0b02 	vstr	d0, [sp, #8]
 80028ac:	f7fe fa43 	bl	8000d36 <_ZN5Eigen8internal31generic_dense_assignment_kernelINS0_9evaluatorINS_6MatrixIdLi3ELi1ELi0ELi3ELi1EEEEENS2_INS_14CwiseNullaryOpINS0_18scalar_constant_opIdEES4_EEEENS0_13div_assign_opIddEELi0EE11assignCoeffEi>
 80028b0:	2101      	movs	r1, #1
 80028b2:	a806      	add	r0, sp, #24
 80028b4:	f7fe fa3f 	bl	8000d36 <_ZN5Eigen8internal31generic_dense_assignment_kernelINS0_9evaluatorINS_6MatrixIdLi3ELi1ELi0ELi3ELi1EEEEENS2_INS_14CwiseNullaryOpINS0_18scalar_constant_opIdEES4_EEEENS0_13div_assign_opIddEELi0EE11assignCoeffEi>
 80028b8:	2102      	movs	r1, #2
 80028ba:	a806      	add	r0, sp, #24
 80028bc:	f7fe fa3b 	bl	8000d36 <_ZN5Eigen8internal31generic_dense_assignment_kernelINS0_9evaluatorINS_6MatrixIdLi3ELi1ELi0ELi3ELi1EEEEENS2_INS_14CwiseNullaryOpINS0_18scalar_constant_opIdEES4_EEEENS0_13div_assign_opIddEELi0EE11assignCoeffEi>
 80028c0:	b00a      	add	sp, #40	@ 0x28
 80028c2:	bd10      	pop	{r4, pc}

080028c4 <_ZN5Eigen8internal31generic_dense_assignment_kernelINS0_9evaluatorINS_6MatrixIdLi4ELi1ELi0ELi4ELi1EEEEES5_NS0_9assign_opIddEELi0EE11assignCoeffEi>:
 80028c4:	6843      	ldr	r3, [r0, #4]
 80028c6:	681b      	ldr	r3, [r3, #0]
 80028c8:	eb03 03c1 	add.w	r3, r3, r1, lsl #3
 80028cc:	b530      	push	{r4, r5, lr}
 80028ce:	e9d3 4500 	ldrd	r4, r5, [r3]
 80028d2:	6803      	ldr	r3, [r0, #0]
 80028d4:	681b      	ldr	r3, [r3, #0]
 80028d6:	eb03 03c1 	add.w	r3, r3, r1, lsl #3
 80028da:	e9c3 4500 	strd	r4, r5, [r3]
 80028de:	bd30      	pop	{r4, r5, pc}

080028e0 <_ZN5Eigen8internal26call_dense_assignment_loopINS_6MatrixIdLi4ELi1ELi0ELi4ELi1EEES3_NS0_9assign_opIddEEEEvRT_RKT0_RKT1_>:
 80028e0:	b57f      	push	{r0, r1, r2, r3, r4, r5, r6, lr}
 80028e2:	ab01      	add	r3, sp, #4
 80028e4:	f8cd d00c 	str.w	sp, [sp, #12]
 80028e8:	e9cd 2004 	strd	r2, r0, [sp, #16]
 80028ec:	e9cd 1000 	strd	r1, r0, [sp]
 80028f0:	a802      	add	r0, sp, #8
 80028f2:	2100      	movs	r1, #0
 80028f4:	9302      	str	r3, [sp, #8]
 80028f6:	f7ff ffe5 	bl	80028c4 <_ZN5Eigen8internal31generic_dense_assignment_kernelINS0_9evaluatorINS_6MatrixIdLi4ELi1ELi0ELi4ELi1EEEEES5_NS0_9assign_opIddEELi0EE11assignCoeffEi>
 80028fa:	a802      	add	r0, sp, #8
 80028fc:	2101      	movs	r1, #1
 80028fe:	f7ff ffe1 	bl	80028c4 <_ZN5Eigen8internal31generic_dense_assignment_kernelINS0_9evaluatorINS_6MatrixIdLi4ELi1ELi0ELi4ELi1EEEEES5_NS0_9assign_opIddEELi0EE11assignCoeffEi>
 8002902:	a802      	add	r0, sp, #8
 8002904:	2102      	movs	r1, #2
 8002906:	f7ff ffdd 	bl	80028c4 <_ZN5Eigen8internal31generic_dense_assignment_kernelINS0_9evaluatorINS_6MatrixIdLi4ELi1ELi0ELi4ELi1EEEEES5_NS0_9assign_opIddEELi0EE11assignCoeffEi>
 800290a:	2103      	movs	r1, #3
 800290c:	a802      	add	r0, sp, #8
 800290e:	f7ff ffd9 	bl	80028c4 <_ZN5Eigen8internal31generic_dense_assignment_kernelINS0_9evaluatorINS_6MatrixIdLi4ELi1ELi0ELi4ELi1EEEEES5_NS0_9assign_opIddEELi0EE11assignCoeffEi>
 8002912:	b007      	add	sp, #28
 8002914:	f85d fb04 	ldr.w	pc, [sp], #4

08002918 <_ZN5Eigen8internal31generic_dense_assignment_kernelINS0_9evaluatorINS_6MatrixIdLi6ELi6ELi0ELi6ELi6EEEEENS2_INS_13CwiseBinaryOpINS0_13scalar_sum_opIddEEKNS_7ProductINS9_INS3_IdLi6ELi4ELi0ELi6ELi4EEENS3_IdLi4ELi4ELi0ELi4ELi4EEELi0EEENS_9TransposeISA_EELi0EEEKS4_EEEENS0_9assign_opIddEELi0EE11assignCoeffEii>:
 8002918:	b570      	push	{r4, r5, r6, lr}
 800291a:	e9d0 3500 	ldrd	r3, r5, [r0]
 800291e:	2606      	movs	r6, #6
 8002920:	681b      	ldr	r3, [r3, #0]
 8002922:	fb06 1402 	mla	r4, r6, r2, r1
 8002926:	fb06 2201 	mla	r2, r6, r1, r2
 800292a:	6929      	ldr	r1, [r5, #16]
 800292c:	eb03 03c4 	add.w	r3, r3, r4, lsl #3
 8002930:	eb01 01c2 	add.w	r1, r1, r2, lsl #3
 8002934:	f8d5 2140 	ldr.w	r2, [r5, #320]	@ 0x140
 8002938:	eb02 02c4 	add.w	r2, r2, r4, lsl #3
 800293c:	ed91 7b00 	vldr	d7, [r1]
 8002940:	ed92 6b00 	vldr	d6, [r2]
 8002944:	ee37 7b06 	vadd.f64	d7, d7, d6
 8002948:	ed83 7b00 	vstr	d7, [r3]
 800294c:	bd70      	pop	{r4, r5, r6, pc}

0800294e <_ZN5Eigen8internal21dense_assignment_loopINS0_31generic_dense_assignment_kernelINS0_9evaluatorINS_6MatrixIdLi6ELi6ELi0ELi6ELi6EEEEENS3_INS_13CwiseBinaryOpINS0_13scalar_sum_opIddEEKNS_7ProductINSA_INS4_IdLi6ELi4ELi0ELi6ELi4EEENS4_IdLi4ELi4ELi0ELi4ELi4EEELi0EEENS_9TransposeISB_EELi0EEEKS5_EEEENS0_9assign_opIddEELi0EEELi0ELi1EE3runERSN_>:
 800294e:	b538      	push	{r3, r4, r5, lr}
 8002950:	4605      	mov	r5, r0
 8002952:	2400      	movs	r4, #0
 8002954:	4622      	mov	r2, r4
 8002956:	2100      	movs	r1, #0
 8002958:	4628      	mov	r0, r5
 800295a:	f7ff ffdd 	bl	8002918 <_ZN5Eigen8internal31generic_dense_assignment_kernelINS0_9evaluatorINS_6MatrixIdLi6ELi6ELi0ELi6ELi6EEEEENS2_INS_13CwiseBinaryOpINS0_13scalar_sum_opIddEEKNS_7ProductINS9_INS3_IdLi6ELi4ELi0ELi6ELi4EEENS3_IdLi4ELi4ELi0ELi4ELi4EEELi0EEENS_9TransposeISA_EELi0EEEKS4_EEEENS0_9assign_opIddEELi0EE11assignCoeffEii>
 800295e:	4622      	mov	r2, r4
 8002960:	2101      	movs	r1, #1
 8002962:	4628      	mov	r0, r5
 8002964:	f7ff ffd8 	bl	8002918 <_ZN5Eigen8internal31generic_dense_assignment_kernelINS0_9evaluatorINS_6MatrixIdLi6ELi6ELi0ELi6ELi6EEEEENS2_INS_13CwiseBinaryOpINS0_13scalar_sum_opIddEEKNS_7ProductINS9_INS3_IdLi6ELi4ELi0ELi6ELi4EEENS3_IdLi4ELi4ELi0ELi4ELi4EEELi0EEENS_9TransposeISA_EELi0EEEKS4_EEEENS0_9assign_opIddEELi0EE11assignCoeffEii>
 8002968:	4622      	mov	r2, r4
 800296a:	2102      	movs	r1, #2
 800296c:	4628      	mov	r0, r5
 800296e:	f7ff ffd3 	bl	8002918 <_ZN5Eigen8internal31generic_dense_assignment_kernelINS0_9evaluatorINS_6MatrixIdLi6ELi6ELi0ELi6ELi6EEEEENS2_INS_13CwiseBinaryOpINS0_13scalar_sum_opIddEEKNS_7ProductINS9_INS3_IdLi6ELi4ELi0ELi6ELi4EEENS3_IdLi4ELi4ELi0ELi4ELi4EEELi0EEENS_9TransposeISA_EELi0EEEKS4_EEEENS0_9assign_opIddEELi0EE11assignCoeffEii>
 8002972:	4622      	mov	r2, r4
 8002974:	2103      	movs	r1, #3
 8002976:	4628      	mov	r0, r5
 8002978:	f7ff ffce 	bl	8002918 <_ZN5Eigen8internal31generic_dense_assignment_kernelINS0_9evaluatorINS_6MatrixIdLi6ELi6ELi0ELi6ELi6EEEEENS2_INS_13CwiseBinaryOpINS0_13scalar_sum_opIddEEKNS_7ProductINS9_INS3_IdLi6ELi4ELi0ELi6ELi4EEENS3_IdLi4ELi4ELi0ELi4ELi4EEELi0EEENS_9TransposeISA_EELi0EEEKS4_EEEENS0_9assign_opIddEELi0EE11assignCoeffEii>
 800297c:	4622      	mov	r2, r4
 800297e:	2104      	movs	r1, #4
 8002980:	4628      	mov	r0, r5
 8002982:	f7ff ffc9 	bl	8002918 <_ZN5Eigen8internal31generic_dense_assignment_kernelINS0_9evaluatorINS_6MatrixIdLi6ELi6ELi0ELi6ELi6EEEEENS2_INS_13CwiseBinaryOpINS0_13scalar_sum_opIddEEKNS_7ProductINS9_INS3_IdLi6ELi4ELi0ELi6ELi4EEENS3_IdLi4ELi4ELi0ELi4ELi4EEELi0EEENS_9TransposeISA_EELi0EEEKS4_EEEENS0_9assign_opIddEELi0EE11assignCoeffEii>
 8002986:	4622      	mov	r2, r4
 8002988:	3401      	adds	r4, #1
 800298a:	2105      	movs	r1, #5
 800298c:	4628      	mov	r0, r5
 800298e:	f7ff ffc3 	bl	8002918 <_ZN5Eigen8internal31generic_dense_assignment_kernelINS0_9evaluatorINS_6MatrixIdLi6ELi6ELi0ELi6ELi6EEEEENS2_INS_13CwiseBinaryOpINS0_13scalar_sum_opIddEEKNS_7ProductINS9_INS3_IdLi6ELi4ELi0ELi6ELi4EEENS3_IdLi4ELi4ELi0ELi4ELi4EEELi0EEENS_9TransposeISA_EELi0EEEKS4_EEEENS0_9assign_opIddEELi0EE11assignCoeffEii>
 8002992:	2c06      	cmp	r4, #6
 8002994:	d1de      	bne.n	8002954 <_ZN5Eigen8internal21dense_assignment_loopINS0_31generic_dense_assignment_kernelINS0_9evaluatorINS_6MatrixIdLi6ELi6ELi0ELi6ELi6EEEEENS3_INS_13CwiseBinaryOpINS0_13scalar_sum_opIddEEKNS_7ProductINSA_INS4_IdLi6ELi4ELi0ELi6ELi4EEENS4_IdLi4ELi4ELi0ELi4ELi4EEELi0EEENS_9TransposeISB_EELi0EEEKS5_EEEENS0_9assign_opIddEELi0EEELi0ELi1EE3runERSN_+0x6>
 8002996:	bd38      	pop	{r3, r4, r5, pc}

08002998 <_ZN5Eigen8internal31generic_dense_assignment_kernelINS0_9evaluatorINS_6MatrixIdLi4ELi6ELi0ELi4ELi6EEEEES5_NS0_9assign_opIddEELi0EE11assignCoeffEi>:
 8002998:	6843      	ldr	r3, [r0, #4]
 800299a:	681b      	ldr	r3, [r3, #0]
 800299c:	eb03 03c1 	add.w	r3, r3, r1, lsl #3
 80029a0:	b530      	push	{r4, r5, lr}
 80029a2:	e9d3 4500 	ldrd	r4, r5, [r3]
 80029a6:	6803      	ldr	r3, [r0, #0]
 80029a8:	681b      	ldr	r3, [r3, #0]
 80029aa:	eb03 03c1 	add.w	r3, r3, r1, lsl #3
 80029ae:	e9c3 4500 	strd	r4, r5, [r3]
 80029b2:	bd30      	pop	{r4, r5, pc}

080029b4 <_ZN5Eigen8internal31generic_dense_assignment_kernelINS0_9evaluatorINS_6MatrixIdLi4ELi4ELi0ELi4ELi4EEEEES5_NS0_9assign_opIddEELi0EE11assignCoeffEi>:
 80029b4:	6843      	ldr	r3, [r0, #4]
 80029b6:	681b      	ldr	r3, [r3, #0]
 80029b8:	eb03 03c1 	add.w	r3, r3, r1, lsl #3
 80029bc:	b530      	push	{r4, r5, lr}
 80029be:	e9d3 4500 	ldrd	r4, r5, [r3]
 80029c2:	6803      	ldr	r3, [r0, #0]
 80029c4:	681b      	ldr	r3, [r3, #0]
 80029c6:	eb03 03c1 	add.w	r3, r3, r1, lsl #3
 80029ca:	e9c3 4500 	strd	r4, r5, [r3]
 80029ce:	bd30      	pop	{r4, r5, pc}

080029d0 <_ZN5Eigen8internal31generic_dense_assignment_kernelINS0_9evaluatorINS_6MatrixIdLi4ELi4ELi0ELi4ELi4EEEEENS2_INS_13CwiseBinaryOpINS0_17scalar_product_opIddEEKNS_14CwiseNullaryOpINS0_18scalar_constant_opIdEEKS4_EESC_EEEENS0_9assign_opIddEELi0EE11assignCoeffEi>:
 80029d0:	b510      	push	{r4, lr}
 80029d2:	e9d0 3400 	ldrd	r3, r4, [r0]
 80029d6:	69a2      	ldr	r2, [r4, #24]
 80029d8:	681b      	ldr	r3, [r3, #0]
 80029da:	eb02 02c1 	add.w	r2, r2, r1, lsl #3
 80029de:	eb03 03c1 	add.w	r3, r3, r1, lsl #3
 80029e2:	ed92 7b00 	vldr	d7, [r2]
 80029e6:	ed94 6b02 	vldr	d6, [r4, #8]
 80029ea:	ee27 7b06 	vmul.f64	d7, d7, d6
 80029ee:	ed83 7b00 	vstr	d7, [r3]
 80029f2:	bd10      	pop	{r4, pc}

080029f4 <_ZN5Eigen8internal26call_dense_assignment_loopINS_6MatrixIdLi4ELi4ELi0ELi4ELi4EEENS_13CwiseBinaryOpINS0_17scalar_product_opIddEEKNS_14CwiseNullaryOpINS0_18scalar_constant_opIdEEKS3_EESA_EENS0_9assign_opIddEEEEvRT_RKT0_RKT1_>:
 80029f4:	b530      	push	{r4, r5, lr}
 80029f6:	698b      	ldr	r3, [r1, #24]
 80029f8:	b08f      	sub	sp, #60	@ 0x3c
 80029fa:	930c      	str	r3, [sp, #48]	@ 0x30
 80029fc:	ab01      	add	r3, sp, #4
 80029fe:	9001      	str	r0, [sp, #4]
 8002a00:	9302      	str	r3, [sp, #8]
 8002a02:	ab06      	add	r3, sp, #24
 8002a04:	9005      	str	r0, [sp, #20]
 8002a06:	a802      	add	r0, sp, #8
 8002a08:	e9d1 4504 	ldrd	r4, r5, [r1, #16]
 8002a0c:	2100      	movs	r1, #0
 8002a0e:	e9cd 3203 	strd	r3, r2, [sp, #12]
 8002a12:	e9cd 4508 	strd	r4, r5, [sp, #32]
 8002a16:	f7ff ffdb 	bl	80029d0 <_ZN5Eigen8internal31generic_dense_assignment_kernelINS0_9evaluatorINS_6MatrixIdLi4ELi4ELi0ELi4ELi4EEEEENS2_INS_13CwiseBinaryOpINS0_17scalar_product_opIddEEKNS_14CwiseNullaryOpINS0_18scalar_constant_opIdEEKS4_EESC_EEEENS0_9assign_opIddEELi0EE11assignCoeffEi>
 8002a1a:	a802      	add	r0, sp, #8
 8002a1c:	2101      	movs	r1, #1
 8002a1e:	f7ff ffd7 	bl	80029d0 <_ZN5Eigen8internal31generic_dense_assignment_kernelINS0_9evaluatorINS_6MatrixIdLi4ELi4ELi0ELi4ELi4EEEEENS2_INS_13CwiseBinaryOpINS0_17scalar_product_opIddEEKNS_14CwiseNullaryOpINS0_18scalar_constant_opIdEEKS4_EESC_EEEENS0_9assign_opIddEELi0EE11assignCoeffEi>
 8002a22:	a802      	add	r0, sp, #8
 8002a24:	2102      	movs	r1, #2
 8002a26:	f7ff ffd3 	bl	80029d0 <_ZN5Eigen8internal31generic_dense_assignment_kernelINS0_9evaluatorINS_6MatrixIdLi4ELi4ELi0ELi4ELi4EEEEENS2_INS_13CwiseBinaryOpINS0_17scalar_product_opIddEEKNS_14CwiseNullaryOpINS0_18scalar_constant_opIdEEKS4_EESC_EEEENS0_9assign_opIddEELi0EE11assignCoeffEi>
 8002a2a:	a802      	add	r0, sp, #8
 8002a2c:	2103      	movs	r1, #3
 8002a2e:	f7ff ffcf 	bl	80029d0 <_ZN5Eigen8internal31generic_dense_assignment_kernelINS0_9evaluatorINS_6MatrixIdLi4ELi4ELi0ELi4ELi4EEEEENS2_INS_13CwiseBinaryOpINS0_17scalar_product_opIddEEKNS_14CwiseNullaryOpINS0_18scalar_constant_opIdEEKS4_EESC_EEEENS0_9assign_opIddEELi0EE11assignCoeffEi>
 8002a32:	a802      	add	r0, sp, #8
 8002a34:	2104      	movs	r1, #4
 8002a36:	f7ff ffcb 	bl	80029d0 <_ZN5Eigen8internal31generic_dense_assignment_kernelINS0_9evaluatorINS_6MatrixIdLi4ELi4ELi0ELi4ELi4EEEEENS2_INS_13CwiseBinaryOpINS0_17scalar_product_opIddEEKNS_14CwiseNullaryOpINS0_18scalar_constant_opIdEEKS4_EESC_EEEENS0_9assign_opIddEELi0EE11assignCoeffEi>
 8002a3a:	a802      	add	r0, sp, #8
 8002a3c:	2105      	movs	r1, #5
 8002a3e:	f7ff ffc7 	bl	80029d0 <_ZN5Eigen8internal31generic_dense_assignment_kernelINS0_9evaluatorINS_6MatrixIdLi4ELi4ELi0ELi4ELi4EEEEENS2_INS_13CwiseBinaryOpINS0_17scalar_product_opIddEEKNS_14CwiseNullaryOpINS0_18scalar_constant_opIdEEKS4_EESC_EEEENS0_9assign_opIddEELi0EE11assignCoeffEi>
 8002a42:	a802      	add	r0, sp, #8
 8002a44:	2106      	movs	r1, #6
 8002a46:	f7ff ffc3 	bl	80029d0 <_ZN5Eigen8internal31generic_dense_assignment_kernelINS0_9evaluatorINS_6MatrixIdLi4ELi4ELi0ELi4ELi4EEEEENS2_INS_13CwiseBinaryOpINS0_17scalar_product_opIddEEKNS_14CwiseNullaryOpINS0_18scalar_constant_opIdEEKS4_EESC_EEEENS0_9assign_opIddEELi0EE11assignCoeffEi>
 8002a4a:	a802      	add	r0, sp, #8
 8002a4c:	2107      	movs	r1, #7
 8002a4e:	f7ff ffbf 	bl	80029d0 <_ZN5Eigen8internal31generic_dense_assignment_kernelINS0_9evaluatorINS_6MatrixIdLi4ELi4ELi0ELi4ELi4EEEEENS2_INS_13CwiseBinaryOpINS0_17scalar_product_opIddEEKNS_14CwiseNullaryOpINS0_18scalar_constant_opIdEEKS4_EESC_EEEENS0_9assign_opIddEELi0EE11assignCoeffEi>
 8002a52:	2108      	movs	r1, #8
 8002a54:	eb0d 0001 	add.w	r0, sp, r1
 8002a58:	f7ff ffba 	bl	80029d0 <_ZN5Eigen8internal31generic_dense_assignment_kernelINS0_9evaluatorINS_6MatrixIdLi4ELi4ELi0ELi4ELi4EEEEENS2_INS_13CwiseBinaryOpINS0_17scalar_product_opIddEEKNS_14CwiseNullaryOpINS0_18scalar_constant_opIdEEKS4_EESC_EEEENS0_9assign_opIddEELi0EE11assignCoeffEi>
 8002a5c:	a802      	add	r0, sp, #8
 8002a5e:	2109      	movs	r1, #9
 8002a60:	f7ff ffb6 	bl	80029d0 <_ZN5Eigen8internal31generic_dense_assignment_kernelINS0_9evaluatorINS_6MatrixIdLi4ELi4ELi0ELi4ELi4EEEEENS2_INS_13CwiseBinaryOpINS0_17scalar_product_opIddEEKNS_14CwiseNullaryOpINS0_18scalar_constant_opIdEEKS4_EESC_EEEENS0_9assign_opIddEELi0EE11assignCoeffEi>
 8002a64:	a802      	add	r0, sp, #8
 8002a66:	210a      	movs	r1, #10
 8002a68:	f7ff ffb2 	bl	80029d0 <_ZN5Eigen8internal31generic_dense_assignment_kernelINS0_9evaluatorINS_6MatrixIdLi4ELi4ELi0ELi4ELi4EEEEENS2_INS_13CwiseBinaryOpINS0_17scalar_product_opIddEEKNS_14CwiseNullaryOpINS0_18scalar_constant_opIdEEKS4_EESC_EEEENS0_9assign_opIddEELi0EE11assignCoeffEi>
 8002a6c:	a802      	add	r0, sp, #8
 8002a6e:	210b      	movs	r1, #11
 8002a70:	f7ff ffae 	bl	80029d0 <_ZN5Eigen8internal31generic_dense_assignment_kernelINS0_9evaluatorINS_6MatrixIdLi4ELi4ELi0ELi4ELi4EEEEENS2_INS_13CwiseBinaryOpINS0_17scalar_product_opIddEEKNS_14CwiseNullaryOpINS0_18scalar_constant_opIdEEKS4_EESC_EEEENS0_9assign_opIddEELi0EE11assignCoeffEi>
 8002a74:	a802      	add	r0, sp, #8
 8002a76:	210c      	movs	r1, #12
 8002a78:	f7ff ffaa 	bl	80029d0 <_ZN5Eigen8internal31generic_dense_assignment_kernelINS0_9evaluatorINS_6MatrixIdLi4ELi4ELi0ELi4ELi4EEEEENS2_INS_13CwiseBinaryOpINS0_17scalar_product_opIddEEKNS_14CwiseNullaryOpINS0_18scalar_constant_opIdEEKS4_EESC_EEEENS0_9assign_opIddEELi0EE11assignCoeffEi>
 8002a7c:	a802      	add	r0, sp, #8
 8002a7e:	210d      	movs	r1, #13
 8002a80:	f7ff ffa6 	bl	80029d0 <_ZN5Eigen8internal31generic_dense_assignment_kernelINS0_9evaluatorINS_6MatrixIdLi4ELi4ELi0ELi4ELi4EEEEENS2_INS_13CwiseBinaryOpINS0_17scalar_product_opIddEEKNS_14CwiseNullaryOpINS0_18scalar_constant_opIdEEKS4_EESC_EEEENS0_9assign_opIddEELi0EE11assignCoeffEi>
 8002a84:	a802      	add	r0, sp, #8
 8002a86:	210e      	movs	r1, #14
 8002a88:	f7ff ffa2 	bl	80029d0 <_ZN5Eigen8internal31generic_dense_assignment_kernelINS0_9evaluatorINS_6MatrixIdLi4ELi4ELi0ELi4ELi4EEEEENS2_INS_13CwiseBinaryOpINS0_17scalar_product_opIddEEKNS_14CwiseNullaryOpINS0_18scalar_constant_opIdEEKS4_EESC_EEEENS0_9assign_opIddEELi0EE11assignCoeffEi>
 8002a8c:	210f      	movs	r1, #15
 8002a8e:	a802      	add	r0, sp, #8
 8002a90:	f7ff ff9e 	bl	80029d0 <_ZN5Eigen8internal31generic_dense_assignment_kernelINS0_9evaluatorINS_6MatrixIdLi4ELi4ELi0ELi4ELi4EEEEENS2_INS_13CwiseBinaryOpINS0_17scalar_product_opIddEEKNS_14CwiseNullaryOpINS0_18scalar_constant_opIdEEKS4_EESC_EEEENS0_9assign_opIddEELi0EE11assignCoeffEi>
 8002a94:	b00f      	add	sp, #60	@ 0x3c
 8002a96:	bd30      	pop	{r4, r5, pc}

08002a98 <_ZN5Eigen8internal31generic_dense_assignment_kernelINS0_9evaluatorINS_6MatrixIdLi4ELi4ELi0ELi4ELi4EEEEENS2_INS_13CwiseBinaryOpINS0_13scalar_sum_opIddEEKNS_14CwiseNullaryOpINS0_18scalar_identity_opIdEES4_EEKNS6_INS0_17scalar_product_opIddEEKS4_KNS9_INS0_18scalar_constant_opIdEESG_EEEEEEEENS0_9assign_opIddEELi0EE11assignCoeffEii>:
 8002a98:	6803      	ldr	r3, [r0, #0]
 8002a9a:	4291      	cmp	r1, r2
 8002a9c:	6840      	ldr	r0, [r0, #4]
 8002a9e:	eeb7 6b00 	vmov.f64	d6, #112	@ 0x3f800000  1.0
 8002aa2:	681b      	ldr	r3, [r3, #0]
 8002aa4:	b510      	push	{r4, lr}
 8002aa6:	eb01 0482 	add.w	r4, r1, r2, lsl #2
 8002aaa:	68c2      	ldr	r2, [r0, #12]
 8002aac:	ed9f 7b08 	vldr	d7, [pc, #32]	@ 8002ad0 <_ZN5Eigen8internal31generic_dense_assignment_kernelINS0_9evaluatorINS_6MatrixIdLi4ELi4ELi0ELi4ELi4EEEEENS2_INS_13CwiseBinaryOpINS0_13scalar_sum_opIddEEKNS_14CwiseNullaryOpINS0_18scalar_identity_opIdEES4_EEKNS6_INS0_17scalar_product_opIddEEKS4_KNS9_INS0_18scalar_constant_opIdEESG_EEEEEEEENS0_9assign_opIddEELi0EE11assignCoeffEii+0x38>
 8002ab0:	eb02 02c4 	add.w	r2, r2, r4, lsl #3
 8002ab4:	eb03 03c4 	add.w	r3, r3, r4, lsl #3
 8002ab8:	fe06 7b07 	vseleq.f64	d7, d6, d7
 8002abc:	ed90 5b04 	vldr	d5, [r0, #16]
 8002ac0:	ed92 6b00 	vldr	d6, [r2]
 8002ac4:	eea5 7b06 	vfma.f64	d7, d5, d6
 8002ac8:	ed83 7b00 	vstr	d7, [r3]
 8002acc:	bd10      	pop	{r4, pc}
 8002ace:	bf00      	nop
	...

08002ad8 <_ZN5Eigen8internal31generic_dense_assignment_kernelINS0_9evaluatorINS_5BlockINS_6MatrixIdLi4ELi4ELi0ELi4ELi4EEELi4ELi4ELb0EEEEENS2_IS5_EENS0_9assign_opIddEELi0EE11assignCoeffEii>:
 8002ad8:	6843      	ldr	r3, [r0, #4]
 8002ada:	eb01 0182 	add.w	r1, r1, r2, lsl #2
 8002ade:	681b      	ldr	r3, [r3, #0]
 8002ae0:	eb03 03c1 	add.w	r3, r3, r1, lsl #3
 8002ae4:	b530      	push	{r4, r5, lr}
 8002ae6:	e9d3 4500 	ldrd	r4, r5, [r3]
 8002aea:	6803      	ldr	r3, [r0, #0]
 8002aec:	681b      	ldr	r3, [r3, #0]
 8002aee:	eb03 03c1 	add.w	r3, r3, r1, lsl #3
 8002af2:	e9c3 4500 	strd	r4, r5, [r3]
 8002af6:	bd30      	pop	{r4, r5, pc}

08002af8 <_ZN5Eigen8internal55copy_using_evaluator_DefaultTraversal_CompleteUnrollingINS0_31generic_dense_assignment_kernelINS0_9evaluatorINS_5BlockINS_6MatrixIdLi4ELi4ELi0ELi4ELi4EEELi3ELi3ELb0EEEEENS3_INS_14CwiseNullaryOpINS0_18scalar_identity_opIdEENS5_IdLi3ELi3ELi0ELi3ELi3EEEEEEENS0_9assign_opIddEELi0EEELi0ELi9EE3runERSH_>:
 8002af8:	6803      	ldr	r3, [r0, #0]
 8002afa:	2100      	movs	r1, #0
 8002afc:	2000      	movs	r0, #0
 8002afe:	681b      	ldr	r3, [r3, #0]
 8002b00:	b530      	push	{r4, r5, lr}
 8002b02:	2400      	movs	r4, #0
 8002b04:	4d09      	ldr	r5, [pc, #36]	@ (8002b2c <_ZN5Eigen8internal55copy_using_evaluator_DefaultTraversal_CompleteUnrollingINS0_31generic_dense_assignment_kernelINS0_9evaluatorINS_5BlockINS_6MatrixIdLi4ELi4ELi0ELi4ELi4EEELi3ELi3ELb0EEEEENS3_INS_14CwiseNullaryOpINS0_18scalar_identity_opIdEENS5_IdLi3ELi3ELi0ELi3ELi3EEEEEEENS0_9assign_opIddEELi0EEELi0ELi9EE3runERSH_+0x34>)
 8002b06:	e9c3 0102 	strd	r0, r1, [r3, #8]
 8002b0a:	e9c3 4500 	strd	r4, r5, [r3]
 8002b0e:	e9c3 0104 	strd	r0, r1, [r3, #16]
 8002b12:	e9c3 0108 	strd	r0, r1, [r3, #32]
 8002b16:	e9c3 450a 	strd	r4, r5, [r3, #40]	@ 0x28
 8002b1a:	e9c3 010c 	strd	r0, r1, [r3, #48]	@ 0x30
 8002b1e:	e9c3 0110 	strd	r0, r1, [r3, #64]	@ 0x40
 8002b22:	e9c3 0112 	strd	r0, r1, [r3, #72]	@ 0x48
 8002b26:	e9c3 4514 	strd	r4, r5, [r3, #80]	@ 0x50
 8002b2a:	bd30      	pop	{r4, r5, pc}
 8002b2c:	3ff00000 	.word	0x3ff00000

08002b30 <_ZN5Eigen8internal31generic_dense_assignment_kernelINS0_9evaluatorINS_6MatrixIdLi6ELi4ELi0ELi6ELi4EEEEENS2_INS_13CwiseBinaryOpINS0_17scalar_product_opIddEEKNS_14CwiseNullaryOpINS0_18scalar_constant_opIdEEKS4_EESC_EEEENS0_9assign_opIddEELi0EE11assignCoeffEi>:
 8002b30:	b510      	push	{r4, lr}
 8002b32:	e9d0 3400 	ldrd	r3, r4, [r0]
 8002b36:	69a2      	ldr	r2, [r4, #24]
 8002b38:	681b      	ldr	r3, [r3, #0]
 8002b3a:	eb02 02c1 	add.w	r2, r2, r1, lsl #3
 8002b3e:	eb03 03c1 	add.w	r3, r3, r1, lsl #3
 8002b42:	ed92 7b00 	vldr	d7, [r2]
 8002b46:	ed94 6b02 	vldr	d6, [r4, #8]
 8002b4a:	ee27 7b06 	vmul.f64	d7, d7, d6
 8002b4e:	ed83 7b00 	vstr	d7, [r3]
 8002b52:	bd10      	pop	{r4, pc}

08002b54 <_ZN5Eigen8internal31generic_dense_assignment_kernelINS0_9evaluatorINS_5BlockINS_6MatrixIdLi6ELi1ELi0ELi6ELi1EEELi3ELi1ELb0EEEEENS2_INS4_IdLi3ELi1ELi0ELi3ELi1EEEEENS0_9assign_opIddEELi0EE11assignCoeffEi>:
 8002b54:	6843      	ldr	r3, [r0, #4]
 8002b56:	681b      	ldr	r3, [r3, #0]
 8002b58:	eb03 03c1 	add.w	r3, r3, r1, lsl #3
 8002b5c:	b530      	push	{r4, r5, lr}
 8002b5e:	e9d3 4500 	ldrd	r4, r5, [r3]
 8002b62:	6803      	ldr	r3, [r0, #0]
 8002b64:	681b      	ldr	r3, [r3, #0]
 8002b66:	eb03 03c1 	add.w	r3, r3, r1, lsl #3
 8002b6a:	e9c3 4500 	strd	r4, r5, [r3]
 8002b6e:	bd30      	pop	{r4, r5, pc}

08002b70 <_ZN5Eigen8internal31generic_dense_assignment_kernelINS0_9evaluatorINS_6MatrixIdLi4ELi4ELi0ELi4ELi4EEEEENS2_INS_13CwiseBinaryOpINS0_13scalar_sum_opIddEEKNS_7ProductINS9_IS4_S4_Li0EEENS_9TransposeIS4_EELi0EEEKS4_EEEENS0_9assign_opIddEELi0EE11assignCoeffEii>:
 8002b70:	b530      	push	{r4, r5, lr}
 8002b72:	e9d0 3500 	ldrd	r3, r5, [r0]
 8002b76:	eb01 0482 	add.w	r4, r1, r2, lsl #2
 8002b7a:	eb02 0281 	add.w	r2, r2, r1, lsl #2
 8002b7e:	6929      	ldr	r1, [r5, #16]
 8002b80:	681b      	ldr	r3, [r3, #0]
 8002b82:	eb01 01c2 	add.w	r1, r1, r2, lsl #3
 8002b86:	f8d5 20a0 	ldr.w	r2, [r5, #160]	@ 0xa0
 8002b8a:	eb03 03c4 	add.w	r3, r3, r4, lsl #3
 8002b8e:	eb02 02c4 	add.w	r2, r2, r4, lsl #3
 8002b92:	ed91 7b00 	vldr	d7, [r1]
 8002b96:	ed92 6b00 	vldr	d6, [r2]
 8002b9a:	ee37 7b06 	vadd.f64	d7, d7, d6
 8002b9e:	ed83 7b00 	vstr	d7, [r3]
 8002ba2:	bd30      	pop	{r4, r5, pc}

08002ba4 <_ZN5Eigen8internal31generic_dense_assignment_kernelINS0_9evaluatorINS_6MatrixIdLi3ELi1ELi0ELi3ELi1EEEEENS2_INS_13CwiseBinaryOpINS0_13scalar_sum_opIddEEKNS6_IS8_KS4_KNS6_INS0_17scalar_product_opIddEEKNS_14CwiseNullaryOpINS0_18scalar_constant_opIdEES9_EES9_EEEES9_EEEENS0_9assign_opIddEELi0EE11assignCoeffEi>:
 8002ba4:	6803      	ldr	r3, [r0, #0]
 8002ba6:	681a      	ldr	r2, [r3, #0]
 8002ba8:	6843      	ldr	r3, [r0, #4]
 8002baa:	eb02 02c1 	add.w	r2, r2, r1, lsl #3
 8002bae:	6a98      	ldr	r0, [r3, #40]	@ 0x28
 8002bb0:	b510      	push	{r4, lr}
 8002bb2:	eb00 04c1 	add.w	r4, r0, r1, lsl #3
 8002bb6:	68d8      	ldr	r0, [r3, #12]
 8002bb8:	eb00 00c1 	add.w	r0, r0, r1, lsl #3
 8002bbc:	ed93 5b06 	vldr	d5, [r3, #24]
 8002bc0:	ed94 7b00 	vldr	d7, [r4]
 8002bc4:	ed90 6b00 	vldr	d6, [r0]
 8002bc8:	6b1b      	ldr	r3, [r3, #48]	@ 0x30
 8002bca:	eea5 6b07 	vfma.f64	d6, d5, d7
 8002bce:	eb03 03c1 	add.w	r3, r3, r1, lsl #3
 8002bd2:	ed93 7b00 	vldr	d7, [r3]
 8002bd6:	ee37 7b06 	vadd.f64	d7, d7, d6
 8002bda:	ed82 7b00 	vstr	d7, [r2]
 8002bde:	bd10      	pop	{r4, pc}

08002be0 <_ZNK5Eigen14QuaternionBaseINS_10QuaternionIdLi0EEEE16_transformVectorERKNS_6MatrixIdLi3ELi1ELi0ELi3ELi1EEE>:
 8002be0:	e92d 4ff0 	stmdb	sp!, {r4, r5, r6, r7, r8, r9, sl, fp, lr}
 8002be4:	ed2d 8b02 	vpush	{d8}
 8002be8:	b0a9      	sub	sp, #164	@ 0xa4
 8002bea:	2304      	movs	r3, #4
 8002bec:	f04f 0a00 	mov.w	sl, #0
 8002bf0:	4606      	mov	r6, r0
 8002bf2:	ad08      	add	r5, sp, #32
 8002bf4:	f10d 0868 	add.w	r8, sp, #104	@ 0x68
 8002bf8:	460c      	mov	r4, r1
 8002bfa:	f10d 0910 	add.w	r9, sp, #16
 8002bfe:	af0e      	add	r7, sp, #56	@ 0x38
 8002c00:	4628      	mov	r0, r5
 8002c02:	f10d 0b50 	add.w	fp, sp, #80	@ 0x50
 8002c06:	911a      	str	r1, [sp, #104]	@ 0x68
 8002c08:	911c      	str	r1, [sp, #112]	@ 0x70
 8002c0a:	4641      	mov	r1, r8
 8002c0c:	9201      	str	r2, [sp, #4]
 8002c0e:	931f      	str	r3, [sp, #124]	@ 0x7c
 8002c10:	f8cd a074 	str.w	sl, [sp, #116]	@ 0x74
 8002c14:	f7ff fd64 	bl	80026e0 <_ZNK5Eigen10MatrixBaseINS_5BlockIKNS_6MatrixIdLi4ELi1ELi0ELi4ELi1EEELi3ELi1ELb0EEEE5crossINS2_IdLi3ELi1ELi0ELi3ELi1EEEEENS6_25cross_product_return_typeIT_E4typeERKNS0_ISA_EE>
 8002c18:	4651      	mov	r1, sl
 8002c1a:	4640      	mov	r0, r8
 8002c1c:	950e      	str	r5, [sp, #56]	@ 0x38
 8002c1e:	9514      	str	r5, [sp, #80]	@ 0x50
 8002c20:	f8cd b068 	str.w	fp, [sp, #104]	@ 0x68
 8002c24:	971b      	str	r7, [sp, #108]	@ 0x6c
 8002c26:	e9cd 951c 	strd	r9, r5, [sp, #112]	@ 0x70
 8002c2a:	f7fe f85b 	bl	8000ce4 <_ZN5Eigen8internal31generic_dense_assignment_kernelINS0_9evaluatorINS_6MatrixIdLi3ELi1ELi0ELi3ELi1EEEEES5_NS0_13add_assign_opIddEELi0EE11assignCoeffEi>
 8002c2e:	4640      	mov	r0, r8
 8002c30:	2101      	movs	r1, #1
 8002c32:	f7fe f857 	bl	8000ce4 <_ZN5Eigen8internal31generic_dense_assignment_kernelINS0_9evaluatorINS_6MatrixIdLi3ELi1ELi0ELi3ELi1EEEEES5_NS0_13add_assign_opIddEELi0EE11assignCoeffEi>
 8002c36:	4640      	mov	r0, r8
 8002c38:	2102      	movs	r1, #2
 8002c3a:	f7fe f853 	bl	8000ce4 <_ZN5Eigen8internal31generic_dense_assignment_kernelINS0_9evaluatorINS_6MatrixIdLi3ELi1ELi0ELi3ELi1EEEEES5_NS0_13add_assign_opIddEELi0EE11assignCoeffEi>
 8002c3e:	2304      	movs	r3, #4
 8002c40:	462a      	mov	r2, r5
 8002c42:	4659      	mov	r1, fp
 8002c44:	4638      	mov	r0, r7
 8002c46:	9319      	str	r3, [sp, #100]	@ 0x64
 8002c48:	9414      	str	r4, [sp, #80]	@ 0x50
 8002c4a:	ed94 8b06 	vldr	d8, [r4, #24]
 8002c4e:	e9cd 4a16 	strd	r4, sl, [sp, #88]	@ 0x58
 8002c52:	f7ff fd45 	bl	80026e0 <_ZNK5Eigen10MatrixBaseINS_5BlockIKNS_6MatrixIdLi4ELi1ELi0ELi4ELi1EEELi3ELi1ELb0EEEE5crossINS2_IdLi3ELi1ELi0ELi3ELi1EEEEENS6_25cross_product_return_typeIT_E4typeERKNS0_ISA_EE>
 8002c56:	9b01      	ldr	r3, [sp, #4]
 8002c58:	4651      	mov	r1, sl
 8002c5a:	4648      	mov	r0, r9
 8002c5c:	931d      	str	r3, [sp, #116]	@ 0x74
 8002c5e:	ab03      	add	r3, sp, #12
 8002c60:	9524      	str	r5, [sp, #144]	@ 0x90
 8002c62:	9726      	str	r7, [sp, #152]	@ 0x98
 8002c64:	9603      	str	r6, [sp, #12]
 8002c66:	e9cd 3804 	strd	r3, r8, [sp, #16]
 8002c6a:	ab02      	add	r3, sp, #8
 8002c6c:	ed8d 8b20 	vstr	d8, [sp, #128]	@ 0x80
 8002c70:	e9cd 3606 	strd	r3, r6, [sp, #24]
 8002c74:	f7ff ff96 	bl	8002ba4 <_ZN5Eigen8internal31generic_dense_assignment_kernelINS0_9evaluatorINS_6MatrixIdLi3ELi1ELi0ELi3ELi1EEEEENS2_INS_13CwiseBinaryOpINS0_13scalar_sum_opIddEEKNS6_IS8_KS4_KNS6_INS0_17scalar_product_opIddEEKNS_14CwiseNullaryOpINS0_18scalar_constant_opIdEES9_EES9_EEEES9_EEEENS0_9assign_opIddEELi0EE11assignCoeffEi>
 8002c78:	4648      	mov	r0, r9
 8002c7a:	2101      	movs	r1, #1
 8002c7c:	f7ff ff92 	bl	8002ba4 <_ZN5Eigen8internal31generic_dense_assignment_kernelINS0_9evaluatorINS_6MatrixIdLi3ELi1ELi0ELi3ELi1EEEEENS2_INS_13CwiseBinaryOpINS0_13scalar_sum_opIddEEKNS6_IS8_KS4_KNS6_INS0_17scalar_product_opIddEEKNS_14CwiseNullaryOpINS0_18scalar_constant_opIdEES9_EES9_EEEES9_EEEENS0_9assign_opIddEELi0EE11assignCoeffEi>
 8002c80:	4648      	mov	r0, r9
 8002c82:	2102      	movs	r1, #2
 8002c84:	f7ff ff8e 	bl	8002ba4 <_ZN5Eigen8internal31generic_dense_assignment_kernelINS0_9evaluatorINS_6MatrixIdLi3ELi1ELi0ELi3ELi1EEEEENS2_INS_13CwiseBinaryOpINS0_13scalar_sum_opIddEEKNS6_IS8_KS4_KNS6_INS0_17scalar_product_opIddEEKNS_14CwiseNullaryOpINS0_18scalar_constant_opIdEES9_EES9_EEEES9_EEEENS0_9assign_opIddEELi0EE11assignCoeffEi>
 8002c88:	4630      	mov	r0, r6
 8002c8a:	b029      	add	sp, #164	@ 0xa4
 8002c8c:	ecbd 8b02 	vpop	{d8}
 8002c90:	e8bd 8ff0 	ldmia.w	sp!, {r4, r5, r6, r7, r8, r9, sl, fp, pc}

08002c94 <_ZN20ExtendedKalmanFilter28computeMeasurementEstimate_hEv>:
 8002c94:	e92d 47f0 	stmdb	sp!, {r4, r5, r6, r7, r8, r9, sl, lr}
 8002c98:	b0b4      	sub	sp, #208	@ 0xd0
 8002c9a:	f101 0330 	add.w	r3, r1, #48	@ 0x30
 8002c9e:	4604      	mov	r4, r0
 8002ca0:	f101 0240 	add.w	r2, r1, #64	@ 0x40
 8002ca4:	f10d 05b7 	add.w	r5, sp, #183	@ 0xb7
 8002ca8:	9300      	str	r3, [sp, #0]
 8002caa:	f101 0348 	add.w	r3, r1, #72	@ 0x48
 8002cae:	3138      	adds	r1, #56	@ 0x38
 8002cb0:	f025 050f 	bic.w	r5, r5, #15
 8002cb4:	ae1c      	add	r6, sp, #112	@ 0x70
 8002cb6:	f10d 088c 	add.w	r8, sp, #140	@ 0x8c
 8002cba:	f04f 0a03 	mov.w	sl, #3
 8002cbe:	4628      	mov	r0, r5
 8002cc0:	2701      	movs	r7, #1
 8002cc2:	f7fd fe6d 	bl	80009a0 <_ZN5Eigen6MatrixIdLi4ELi1ELi0ELi4ELi1EEC1ERKdS3_S3_S3_>
 8002cc6:	2300      	movs	r3, #0
 8002cc8:	2200      	movs	r2, #0
 8002cca:	2000      	movs	r0, #0
 8002ccc:	4927      	ldr	r1, [pc, #156]	@ (8002d6c <_ZN20ExtendedKalmanFilter28computeMeasurementEstimate_hEv+0xd8>)
 8002cce:	f04f 0906 	mov.w	r9, #6
 8002cd2:	e9cd 230a 	strd	r2, r3, [sp, #40]	@ 0x28
 8002cd6:	e9cd 230c 	strd	r2, r3, [sp, #48]	@ 0x30
 8002cda:	e9cd 2310 	strd	r2, r3, [sp, #64]	@ 0x40
 8002cde:	e9cd 2314 	strd	r2, r3, [sp, #80]	@ 0x50
 8002ce2:	e9cd 010e 	strd	r0, r1, [sp, #56]	@ 0x38
 8002ce6:	e9cd 0112 	strd	r0, r1, [sp, #72]	@ 0x48
 8002cea:	aa0a      	add	r2, sp, #40	@ 0x28
 8002cec:	4629      	mov	r1, r5
 8002cee:	a816      	add	r0, sp, #88	@ 0x58
 8002cf0:	f7ff ff76 	bl	8002be0 <_ZNK5Eigen14QuaternionBaseINS_10QuaternionIdLi0EEEE16_transformVectorERKNS_6MatrixIdLi3ELi1ELi0ELi3ELi1EEE>
 8002cf4:	aa10      	add	r2, sp, #64	@ 0x40
 8002cf6:	4629      	mov	r1, r5
 8002cf8:	4630      	mov	r0, r6
 8002cfa:	f7ff ff71 	bl	8002be0 <_ZNK5Eigen14QuaternionBaseINS_10QuaternionIdLi0EEEE16_transformVectorERKNS_6MatrixIdLi3ELi1ELi0ELi3ELi1EEE>
 8002cfe:	a816      	add	r0, sp, #88	@ 0x58
 8002d00:	f7ff fdb2 	bl	8002868 <_ZN5Eigen10MatrixBaseINS_6MatrixIdLi3ELi1ELi0ELi3ELi1EEEE9normalizeEv>
 8002d04:	4630      	mov	r0, r6
 8002d06:	f7ff fdaf 	bl	8002868 <_ZN5Eigen10MatrixBaseINS_6MatrixIdLi3ELi1ELi0ELi3ELi1EEEE9normalizeEv>
 8002d0a:	2500      	movs	r5, #0
 8002d0c:	4620      	mov	r0, r4
 8002d0e:	f7ff fcc7 	bl	80026a0 <_ZN5Eigen8internal11plain_arrayIdLi6ELi0ELi16EEC1Ev>
 8002d12:	aa06      	add	r2, sp, #24
 8002d14:	a916      	add	r1, sp, #88	@ 0x58
 8002d16:	4640      	mov	r0, r8
 8002d18:	9423      	str	r4, [sp, #140]	@ 0x8c
 8002d1a:	9426      	str	r4, [sp, #152]	@ 0x98
 8002d1c:	f8cd 90a4 	str.w	r9, [sp, #164]	@ 0xa4
 8002d20:	e9cd a724 	strd	sl, r7, [sp, #144]	@ 0x90
 8002d24:	e9cd 5527 	strd	r5, r5, [sp, #156]	@ 0x9c
 8002d28:	f7ff fd24 	bl	8002774 <_ZN5Eigen8internal26call_dense_assignment_loopINS_5BlockINS_6MatrixIdLi6ELi1ELi0ELi6ELi1EEELin1ELin1ELb0EEENS3_IdLi3ELi1ELi0ELi3ELi1EEENS0_9assign_opIddEEEEvRT_RKT0_RKT1_>
 8002d2c:	f104 0318 	add.w	r3, r4, #24
 8002d30:	4629      	mov	r1, r5
 8002d32:	a806      	add	r0, sp, #24
 8002d34:	9323      	str	r3, [sp, #140]	@ 0x8c
 8002d36:	f8cd 90a0 	str.w	r9, [sp, #160]	@ 0xa0
 8002d3a:	e9cd 6303 	strd	r6, r3, [sp, #12]
 8002d3e:	ab04      	add	r3, sp, #16
 8002d40:	9306      	str	r3, [sp, #24]
 8002d42:	ab03      	add	r3, sp, #12
 8002d44:	9307      	str	r3, [sp, #28]
 8002d46:	ab02      	add	r3, sp, #8
 8002d48:	e9cd 4a25 	strd	r4, sl, [sp, #148]	@ 0x94
 8002d4c:	e9cd 3808 	strd	r3, r8, [sp, #32]
 8002d50:	f7ff ff00 	bl	8002b54 <_ZN5Eigen8internal31generic_dense_assignment_kernelINS0_9evaluatorINS_5BlockINS_6MatrixIdLi6ELi1ELi0ELi6ELi1EEELi3ELi1ELb0EEEEENS2_INS4_IdLi3ELi1ELi0ELi3ELi1EEEEENS0_9assign_opIddEELi0EE11assignCoeffEi>
 8002d54:	4639      	mov	r1, r7
 8002d56:	a806      	add	r0, sp, #24
 8002d58:	f7ff fefc 	bl	8002b54 <_ZN5Eigen8internal31generic_dense_assignment_kernelINS0_9evaluatorINS_5BlockINS_6MatrixIdLi6ELi1ELi0ELi6ELi1EEELi3ELi1ELb0EEEEENS2_INS4_IdLi3ELi1ELi0ELi3ELi1EEEEENS0_9assign_opIddEELi0EE11assignCoeffEi>
 8002d5c:	a806      	add	r0, sp, #24
 8002d5e:	2102      	movs	r1, #2
 8002d60:	f7ff fef8 	bl	8002b54 <_ZN5Eigen8internal31generic_dense_assignment_kernelINS0_9evaluatorINS_5BlockINS_6MatrixIdLi6ELi1ELi0ELi6ELi1EEELi3ELi1ELb0EEEEENS2_INS4_IdLi3ELi1ELi0ELi3ELi1EEEEENS0_9assign_opIddEELi0EE11assignCoeffEi>
 8002d64:	4620      	mov	r0, r4
 8002d66:	b034      	add	sp, #208	@ 0xd0
 8002d68:	e8bd 87f0 	ldmia.w	sp!, {r4, r5, r6, r7, r8, r9, sl, pc}
 8002d6c:	3ff00000 	.word	0x3ff00000

08002d70 <_ZN5Eigen8internal31generic_dense_assignment_kernelINS0_9evaluatorINS_5BlockINS_6MatrixIdLi4ELi4ELi0ELi4ELi4EEELi4ELi4ELb0EEEEES7_NS0_9assign_opIddEELi0EE11assignCoeffEii>:
 8002d70:	6843      	ldr	r3, [r0, #4]
 8002d72:	eb01 0182 	add.w	r1, r1, r2, lsl #2
 8002d76:	681b      	ldr	r3, [r3, #0]
 8002d78:	eb03 03c1 	add.w	r3, r3, r1, lsl #3
 8002d7c:	b530      	push	{r4, r5, lr}
 8002d7e:	e9d3 4500 	ldrd	r4, r5, [r3]
 8002d82:	6803      	ldr	r3, [r0, #0]
 8002d84:	681b      	ldr	r3, [r3, #0]
 8002d86:	eb03 03c1 	add.w	r3, r3, r1, lsl #3
 8002d8a:	e9c3 4500 	strd	r4, r5, [r3]
 8002d8e:	bd30      	pop	{r4, r5, pc}

08002d90 <_ZN5Eigen8internal55copy_using_evaluator_DefaultTraversal_CompleteUnrollingINS0_31generic_dense_assignment_kernelINS0_9evaluatorINS_6MatrixIdLi4ELi4ELi0ELi4ELi4EEEEENS3_INS_13CwiseBinaryOpINS0_13scalar_sum_opIddEEKNS_7ProductINSA_IS5_S5_Li0EEENS_9TransposeIS5_EELi0EEEKS5_EEEENS0_9assign_opIddEELi0EEELi6ELi16EE3runERSL_>:
 8002d90:	b510      	push	{r4, lr}
 8002d92:	4604      	mov	r4, r0
 8002d94:	2201      	movs	r2, #1
 8002d96:	2102      	movs	r1, #2
 8002d98:	f7ff feea 	bl	8002b70 <_ZN5Eigen8internal31generic_dense_assignment_kernelINS0_9evaluatorINS_6MatrixIdLi4ELi4ELi0ELi4ELi4EEEEENS2_INS_13CwiseBinaryOpINS0_13scalar_sum_opIddEEKNS_7ProductINS9_IS4_S4_Li0EEENS_9TransposeIS4_EELi0EEEKS4_EEEENS0_9assign_opIddEELi0EE11assignCoeffEii>
 8002d9c:	4620      	mov	r0, r4
 8002d9e:	2201      	movs	r2, #1
 8002da0:	2103      	movs	r1, #3
 8002da2:	f7ff fee5 	bl	8002b70 <_ZN5Eigen8internal31generic_dense_assignment_kernelINS0_9evaluatorINS_6MatrixIdLi4ELi4ELi0ELi4ELi4EEEEENS2_INS_13CwiseBinaryOpINS0_13scalar_sum_opIddEEKNS_7ProductINS9_IS4_S4_Li0EEENS_9TransposeIS4_EELi0EEEKS4_EEEENS0_9assign_opIddEELi0EE11assignCoeffEii>
 8002da6:	4620      	mov	r0, r4
 8002da8:	2202      	movs	r2, #2
 8002daa:	2100      	movs	r1, #0
 8002dac:	f7ff fee0 	bl	8002b70 <_ZN5Eigen8internal31generic_dense_assignment_kernelINS0_9evaluatorINS_6MatrixIdLi4ELi4ELi0ELi4ELi4EEEEENS2_INS_13CwiseBinaryOpINS0_13scalar_sum_opIddEEKNS_7ProductINS9_IS4_S4_Li0EEENS_9TransposeIS4_EELi0EEEKS4_EEEENS0_9assign_opIddEELi0EE11assignCoeffEii>
 8002db0:	4620      	mov	r0, r4
 8002db2:	2202      	movs	r2, #2
 8002db4:	2101      	movs	r1, #1
 8002db6:	f7ff fedb 	bl	8002b70 <_ZN5Eigen8internal31generic_dense_assignment_kernelINS0_9evaluatorINS_6MatrixIdLi4ELi4ELi0ELi4ELi4EEEEENS2_INS_13CwiseBinaryOpINS0_13scalar_sum_opIddEEKNS_7ProductINS9_IS4_S4_Li0EEENS_9TransposeIS4_EELi0EEEKS4_EEEENS0_9assign_opIddEELi0EE11assignCoeffEii>
 8002dba:	2202      	movs	r2, #2
 8002dbc:	4620      	mov	r0, r4
 8002dbe:	4611      	mov	r1, r2
 8002dc0:	f7ff fed6 	bl	8002b70 <_ZN5Eigen8internal31generic_dense_assignment_kernelINS0_9evaluatorINS_6MatrixIdLi4ELi4ELi0ELi4ELi4EEEEENS2_INS_13CwiseBinaryOpINS0_13scalar_sum_opIddEEKNS_7ProductINS9_IS4_S4_Li0EEENS_9TransposeIS4_EELi0EEEKS4_EEEENS0_9assign_opIddEELi0EE11assignCoeffEii>
 8002dc4:	4620      	mov	r0, r4
 8002dc6:	2202      	movs	r2, #2
 8002dc8:	2103      	movs	r1, #3
 8002dca:	f7ff fed1 	bl	8002b70 <_ZN5Eigen8internal31generic_dense_assignment_kernelINS0_9evaluatorINS_6MatrixIdLi4ELi4ELi0ELi4ELi4EEEEENS2_INS_13CwiseBinaryOpINS0_13scalar_sum_opIddEEKNS_7ProductINS9_IS4_S4_Li0EEENS_9TransposeIS4_EELi0EEEKS4_EEEENS0_9assign_opIddEELi0EE11assignCoeffEii>
 8002dce:	4620      	mov	r0, r4
 8002dd0:	2203      	movs	r2, #3
 8002dd2:	2100      	movs	r1, #0
 8002dd4:	f7ff fecc 	bl	8002b70 <_ZN5Eigen8internal31generic_dense_assignment_kernelINS0_9evaluatorINS_6MatrixIdLi4ELi4ELi0ELi4ELi4EEEEENS2_INS_13CwiseBinaryOpINS0_13scalar_sum_opIddEEKNS_7ProductINS9_IS4_S4_Li0EEENS_9TransposeIS4_EELi0EEEKS4_EEEENS0_9assign_opIddEELi0EE11assignCoeffEii>
 8002dd8:	4620      	mov	r0, r4
 8002dda:	2203      	movs	r2, #3
 8002ddc:	2101      	movs	r1, #1
 8002dde:	f7ff fec7 	bl	8002b70 <_ZN5Eigen8internal31generic_dense_assignment_kernelINS0_9evaluatorINS_6MatrixIdLi4ELi4ELi0ELi4ELi4EEEEENS2_INS_13CwiseBinaryOpINS0_13scalar_sum_opIddEEKNS_7ProductINS9_IS4_S4_Li0EEENS_9TransposeIS4_EELi0EEEKS4_EEEENS0_9assign_opIddEELi0EE11assignCoeffEii>
 8002de2:	4620      	mov	r0, r4
 8002de4:	2203      	movs	r2, #3
 8002de6:	2102      	movs	r1, #2
 8002de8:	f7ff fec2 	bl	8002b70 <_ZN5Eigen8internal31generic_dense_assignment_kernelINS0_9evaluatorINS_6MatrixIdLi4ELi4ELi0ELi4ELi4EEEEENS2_INS_13CwiseBinaryOpINS0_13scalar_sum_opIddEEKNS_7ProductINS9_IS4_S4_Li0EEENS_9TransposeIS4_EELi0EEEKS4_EEEENS0_9assign_opIddEELi0EE11assignCoeffEii>
 8002dec:	2203      	movs	r2, #3
 8002dee:	4620      	mov	r0, r4
 8002df0:	4611      	mov	r1, r2
 8002df2:	f7ff febd 	bl	8002b70 <_ZN5Eigen8internal31generic_dense_assignment_kernelINS0_9evaluatorINS_6MatrixIdLi4ELi4ELi0ELi4ELi4EEEEENS2_INS_13CwiseBinaryOpINS0_13scalar_sum_opIddEEKNS_7ProductINS9_IS4_S4_Li0EEENS_9TransposeIS4_EELi0EEEKS4_EEEENS0_9assign_opIddEELi0EE11assignCoeffEii>
 8002df6:	bd10      	pop	{r4, pc}

08002df8 <_ZN5Eigen8internal54copy_using_evaluator_LinearTraversal_CompleteUnrollingINS0_31generic_dense_assignment_kernelINS0_9evaluatorINS_6MatrixIdLi4ELi4ELi0ELi4ELi4EEEEES6_NS0_9assign_opIddEELi0EEELi6ELi16EE3runERS9_>:
 8002df8:	b510      	push	{r4, lr}
 8002dfa:	4604      	mov	r4, r0
 8002dfc:	2106      	movs	r1, #6
 8002dfe:	f7ff fdd9 	bl	80029b4 <_ZN5Eigen8internal31generic_dense_assignment_kernelINS0_9evaluatorINS_6MatrixIdLi4ELi4ELi0ELi4ELi4EEEEES5_NS0_9assign_opIddEELi0EE11assignCoeffEi>
 8002e02:	2107      	movs	r1, #7
 8002e04:	4620      	mov	r0, r4
 8002e06:	f7ff fdd5 	bl	80029b4 <_ZN5Eigen8internal31generic_dense_assignment_kernelINS0_9evaluatorINS_6MatrixIdLi4ELi4ELi0ELi4ELi4EEEEES5_NS0_9assign_opIddEELi0EE11assignCoeffEi>
 8002e0a:	4620      	mov	r0, r4
 8002e0c:	2108      	movs	r1, #8
 8002e0e:	f7ff fdd1 	bl	80029b4 <_ZN5Eigen8internal31generic_dense_assignment_kernelINS0_9evaluatorINS_6MatrixIdLi4ELi4ELi0ELi4ELi4EEEEES5_NS0_9assign_opIddEELi0EE11assignCoeffEi>
 8002e12:	4620      	mov	r0, r4
 8002e14:	2109      	movs	r1, #9
 8002e16:	f7ff fdcd 	bl	80029b4 <_ZN5Eigen8internal31generic_dense_assignment_kernelINS0_9evaluatorINS_6MatrixIdLi4ELi4ELi0ELi4ELi4EEEEES5_NS0_9assign_opIddEELi0EE11assignCoeffEi>
 8002e1a:	4620      	mov	r0, r4
 8002e1c:	210a      	movs	r1, #10
 8002e1e:	f7ff fdc9 	bl	80029b4 <_ZN5Eigen8internal31generic_dense_assignment_kernelINS0_9evaluatorINS_6MatrixIdLi4ELi4ELi0ELi4ELi4EEEEES5_NS0_9assign_opIddEELi0EE11assignCoeffEi>
 8002e22:	4620      	mov	r0, r4
 8002e24:	210b      	movs	r1, #11
 8002e26:	f7ff fdc5 	bl	80029b4 <_ZN5Eigen8internal31generic_dense_assignment_kernelINS0_9evaluatorINS_6MatrixIdLi4ELi4ELi0ELi4ELi4EEEEES5_NS0_9assign_opIddEELi0EE11assignCoeffEi>
 8002e2a:	4620      	mov	r0, r4
 8002e2c:	210c      	movs	r1, #12
 8002e2e:	f7ff fdc1 	bl	80029b4 <_ZN5Eigen8internal31generic_dense_assignment_kernelINS0_9evaluatorINS_6MatrixIdLi4ELi4ELi0ELi4ELi4EEEEES5_NS0_9assign_opIddEELi0EE11assignCoeffEi>
 8002e32:	4620      	mov	r0, r4
 8002e34:	210d      	movs	r1, #13
 8002e36:	f7ff fdbd 	bl	80029b4 <_ZN5Eigen8internal31generic_dense_assignment_kernelINS0_9evaluatorINS_6MatrixIdLi4ELi4ELi0ELi4ELi4EEEEES5_NS0_9assign_opIddEELi0EE11assignCoeffEi>
 8002e3a:	4620      	mov	r0, r4
 8002e3c:	210e      	movs	r1, #14
 8002e3e:	f7ff fdb9 	bl	80029b4 <_ZN5Eigen8internal31generic_dense_assignment_kernelINS0_9evaluatorINS_6MatrixIdLi4ELi4ELi0ELi4ELi4EEEEES5_NS0_9assign_opIddEELi0EE11assignCoeffEi>
 8002e42:	210f      	movs	r1, #15
 8002e44:	4620      	mov	r0, r4
 8002e46:	f7ff fdb5 	bl	80029b4 <_ZN5Eigen8internal31generic_dense_assignment_kernelINS0_9evaluatorINS_6MatrixIdLi4ELi4ELi0ELi4ELi4EEEEES5_NS0_9assign_opIddEELi0EE11assignCoeffEi>
 8002e4a:	bd10      	pop	{r4, pc}

08002e4c <_ZN5Eigen8internal26call_dense_assignment_loopINS_6MatrixIdLi4ELi4ELi0ELi4ELi4EEES3_NS0_9assign_opIddEEEEvRT_RKT0_RKT1_>:
 8002e4c:	b57f      	push	{r0, r1, r2, r3, r4, r5, r6, lr}
 8002e4e:	ab01      	add	r3, sp, #4
 8002e50:	f8cd d00c 	str.w	sp, [sp, #12]
 8002e54:	e9cd 2004 	strd	r2, r0, [sp, #16]
 8002e58:	e9cd 1000 	strd	r1, r0, [sp]
 8002e5c:	a802      	add	r0, sp, #8
 8002e5e:	2100      	movs	r1, #0
 8002e60:	9302      	str	r3, [sp, #8]
 8002e62:	f7ff fda7 	bl	80029b4 <_ZN5Eigen8internal31generic_dense_assignment_kernelINS0_9evaluatorINS_6MatrixIdLi4ELi4ELi0ELi4ELi4EEEEES5_NS0_9assign_opIddEELi0EE11assignCoeffEi>
 8002e66:	a802      	add	r0, sp, #8
 8002e68:	2101      	movs	r1, #1
 8002e6a:	f7ff fda3 	bl	80029b4 <_ZN5Eigen8internal31generic_dense_assignment_kernelINS0_9evaluatorINS_6MatrixIdLi4ELi4ELi0ELi4ELi4EEEEES5_NS0_9assign_opIddEELi0EE11assignCoeffEi>
 8002e6e:	a802      	add	r0, sp, #8
 8002e70:	2102      	movs	r1, #2
 8002e72:	f7ff fd9f 	bl	80029b4 <_ZN5Eigen8internal31generic_dense_assignment_kernelINS0_9evaluatorINS_6MatrixIdLi4ELi4ELi0ELi4ELi4EEEEES5_NS0_9assign_opIddEELi0EE11assignCoeffEi>
 8002e76:	a802      	add	r0, sp, #8
 8002e78:	2103      	movs	r1, #3
 8002e7a:	f7ff fd9b 	bl	80029b4 <_ZN5Eigen8internal31generic_dense_assignment_kernelINS0_9evaluatorINS_6MatrixIdLi4ELi4ELi0ELi4ELi4EEEEES5_NS0_9assign_opIddEELi0EE11assignCoeffEi>
 8002e7e:	a802      	add	r0, sp, #8
 8002e80:	2104      	movs	r1, #4
 8002e82:	f7ff fd97 	bl	80029b4 <_ZN5Eigen8internal31generic_dense_assignment_kernelINS0_9evaluatorINS_6MatrixIdLi4ELi4ELi0ELi4ELi4EEEEES5_NS0_9assign_opIddEELi0EE11assignCoeffEi>
 8002e86:	2105      	movs	r1, #5
 8002e88:	a802      	add	r0, sp, #8
 8002e8a:	f7ff fd93 	bl	80029b4 <_ZN5Eigen8internal31generic_dense_assignment_kernelINS0_9evaluatorINS_6MatrixIdLi4ELi4ELi0ELi4ELi4EEEEES5_NS0_9assign_opIddEELi0EE11assignCoeffEi>
 8002e8e:	a802      	add	r0, sp, #8
 8002e90:	f7ff ffb2 	bl	8002df8 <_ZN5Eigen8internal54copy_using_evaluator_LinearTraversal_CompleteUnrollingINS0_31generic_dense_assignment_kernelINS0_9evaluatorINS_6MatrixIdLi4ELi4ELi0ELi4ELi4EEEEES6_NS0_9assign_opIddEELi0EEELi6ELi16EE3runERS9_>
 8002e94:	b007      	add	sp, #28
 8002e96:	f85d fb04 	ldr.w	pc, [sp], #4

08002e9a <_ZN5Eigen8internal55copy_using_evaluator_DefaultTraversal_CompleteUnrollingINS0_31generic_dense_assignment_kernelINS0_9evaluatorINS_6MatrixIdLi4ELi4ELi0ELi4ELi4EEEEENS3_INS_13CwiseBinaryOpINS0_13scalar_sum_opIddEEKNS_14CwiseNullaryOpINS0_18scalar_identity_opIdEES5_EEKNS7_INS0_17scalar_product_opIddEEKS5_KNSA_INS0_18scalar_constant_opIdEESH_EEEEEEEENS0_9assign_opIddEELi0EEELi8ELi16EE3runERSS_>:
 8002e9a:	b510      	push	{r4, lr}
 8002e9c:	4604      	mov	r4, r0
 8002e9e:	2202      	movs	r2, #2
 8002ea0:	2100      	movs	r1, #0
 8002ea2:	f7ff fdf9 	bl	8002a98 <_ZN5Eigen8internal31generic_dense_assignment_kernelINS0_9evaluatorINS_6MatrixIdLi4ELi4ELi0ELi4ELi4EEEEENS2_INS_13CwiseBinaryOpINS0_13scalar_sum_opIddEEKNS_14CwiseNullaryOpINS0_18scalar_identity_opIdEES4_EEKNS6_INS0_17scalar_product_opIddEEKS4_KNS9_INS0_18scalar_constant_opIdEESG_EEEEEEEENS0_9assign_opIddEELi0EE11assignCoeffEii>
 8002ea6:	4620      	mov	r0, r4
 8002ea8:	2202      	movs	r2, #2
 8002eaa:	2101      	movs	r1, #1
 8002eac:	f7ff fdf4 	bl	8002a98 <_ZN5Eigen8internal31generic_dense_assignment_kernelINS0_9evaluatorINS_6MatrixIdLi4ELi4ELi0ELi4ELi4EEEEENS2_INS_13CwiseBinaryOpINS0_13scalar_sum_opIddEEKNS_14CwiseNullaryOpINS0_18scalar_identity_opIdEES4_EEKNS6_INS0_17scalar_product_opIddEEKS4_KNS9_INS0_18scalar_constant_opIdEESG_EEEEEEEENS0_9assign_opIddEELi0EE11assignCoeffEii>
 8002eb0:	2202      	movs	r2, #2
 8002eb2:	4620      	mov	r0, r4
 8002eb4:	4611      	mov	r1, r2
 8002eb6:	f7ff fdef 	bl	8002a98 <_ZN5Eigen8internal31generic_dense_assignment_kernelINS0_9evaluatorINS_6MatrixIdLi4ELi4ELi0ELi4ELi4EEEEENS2_INS_13CwiseBinaryOpINS0_13scalar_sum_opIddEEKNS_14CwiseNullaryOpINS0_18scalar_identity_opIdEES4_EEKNS6_INS0_17scalar_product_opIddEEKS4_KNS9_INS0_18scalar_constant_opIdEESG_EEEEEEEENS0_9assign_opIddEELi0EE11assignCoeffEii>
 8002eba:	4620      	mov	r0, r4
 8002ebc:	2202      	movs	r2, #2
 8002ebe:	2103      	movs	r1, #3
 8002ec0:	f7ff fdea 	bl	8002a98 <_ZN5Eigen8internal31generic_dense_assignment_kernelINS0_9evaluatorINS_6MatrixIdLi4ELi4ELi0ELi4ELi4EEEEENS2_INS_13CwiseBinaryOpINS0_13scalar_sum_opIddEEKNS_14CwiseNullaryOpINS0_18scalar_identity_opIdEES4_EEKNS6_INS0_17scalar_product_opIddEEKS4_KNS9_INS0_18scalar_constant_opIdEESG_EEEEEEEENS0_9assign_opIddEELi0EE11assignCoeffEii>
 8002ec4:	4620      	mov	r0, r4
 8002ec6:	2203      	movs	r2, #3
 8002ec8:	2100      	movs	r1, #0
 8002eca:	f7ff fde5 	bl	8002a98 <_ZN5Eigen8internal31generic_dense_assignment_kernelINS0_9evaluatorINS_6MatrixIdLi4ELi4ELi0ELi4ELi4EEEEENS2_INS_13CwiseBinaryOpINS0_13scalar_sum_opIddEEKNS_14CwiseNullaryOpINS0_18scalar_identity_opIdEES4_EEKNS6_INS0_17scalar_product_opIddEEKS4_KNS9_INS0_18scalar_constant_opIdEESG_EEEEEEEENS0_9assign_opIddEELi0EE11assignCoeffEii>
 8002ece:	4620      	mov	r0, r4
 8002ed0:	2203      	movs	r2, #3
 8002ed2:	2101      	movs	r1, #1
 8002ed4:	f7ff fde0 	bl	8002a98 <_ZN5Eigen8internal31generic_dense_assignment_kernelINS0_9evaluatorINS_6MatrixIdLi4ELi4ELi0ELi4ELi4EEEEENS2_INS_13CwiseBinaryOpINS0_13scalar_sum_opIddEEKNS_14CwiseNullaryOpINS0_18scalar_identity_opIdEES4_EEKNS6_INS0_17scalar_product_opIddEEKS4_KNS9_INS0_18scalar_constant_opIdEESG_EEEEEEEENS0_9assign_opIddEELi0EE11assignCoeffEii>
 8002ed8:	4620      	mov	r0, r4
 8002eda:	2203      	movs	r2, #3
 8002edc:	2102      	movs	r1, #2
 8002ede:	f7ff fddb 	bl	8002a98 <_ZN5Eigen8internal31generic_dense_assignment_kernelINS0_9evaluatorINS_6MatrixIdLi4ELi4ELi0ELi4ELi4EEEEENS2_INS_13CwiseBinaryOpINS0_13scalar_sum_opIddEEKNS_14CwiseNullaryOpINS0_18scalar_identity_opIdEES4_EEKNS6_INS0_17scalar_product_opIddEEKS4_KNS9_INS0_18scalar_constant_opIdEESG_EEEEEEEENS0_9assign_opIddEELi0EE11assignCoeffEii>
 8002ee2:	2203      	movs	r2, #3
 8002ee4:	4620      	mov	r0, r4
 8002ee6:	4611      	mov	r1, r2
 8002ee8:	f7ff fdd6 	bl	8002a98 <_ZN5Eigen8internal31generic_dense_assignment_kernelINS0_9evaluatorINS_6MatrixIdLi4ELi4ELi0ELi4ELi4EEEEENS2_INS_13CwiseBinaryOpINS0_13scalar_sum_opIddEEKNS_14CwiseNullaryOpINS0_18scalar_identity_opIdEES4_EEKNS6_INS0_17scalar_product_opIddEEKS4_KNS9_INS0_18scalar_constant_opIdEESG_EEEEEEEENS0_9assign_opIddEELi0EE11assignCoeffEii>
 8002eec:	bd10      	pop	{r4, pc}

08002eee <_ZN5Eigen15PlainObjectBaseINS_6MatrixIdLi4ELi4ELi0ELi4ELi4EEEEC1INS_13CwiseBinaryOpINS_8internal13scalar_sum_opIddEEKNS_14CwiseNullaryOpINS6_18scalar_identity_opIdEES2_EEKNS5_INS6_17scalar_product_opIddEEKS2_KNS9_INS6_18scalar_constant_opIdEESG_EEEEEEEERKNS_9DenseBaseIT_EE>:
 8002eee:	b530      	push	{r4, r5, lr}
 8002ef0:	460d      	mov	r5, r1
 8002ef2:	b08f      	sub	sp, #60	@ 0x3c
 8002ef4:	4604      	mov	r4, r0
 8002ef6:	f7ff fbb3 	bl	8002660 <_ZN5Eigen8internal11plain_arrayIdLi16ELi0ELi16EEC1Ev>
 8002efa:	68ab      	ldr	r3, [r5, #8]
 8002efc:	a802      	add	r0, sp, #8
 8002efe:	9401      	str	r4, [sp, #4]
 8002f00:	9309      	str	r3, [sp, #36]	@ 0x24
 8002f02:	f8cd d010 	str.w	sp, [sp, #16]
 8002f06:	9405      	str	r4, [sp, #20]
 8002f08:	e9d5 2306 	ldrd	r2, r3, [r5, #24]
 8002f0c:	e9cd 230a 	strd	r2, r3, [sp, #40]	@ 0x28
 8002f10:	ab01      	add	r3, sp, #4
 8002f12:	2200      	movs	r2, #0
 8002f14:	9302      	str	r3, [sp, #8]
 8002f16:	ab06      	add	r3, sp, #24
 8002f18:	4611      	mov	r1, r2
 8002f1a:	9303      	str	r3, [sp, #12]
 8002f1c:	f7ff fdbc 	bl	8002a98 <_ZN5Eigen8internal31generic_dense_assignment_kernelINS0_9evaluatorINS_6MatrixIdLi4ELi4ELi0ELi4ELi4EEEEENS2_INS_13CwiseBinaryOpINS0_13scalar_sum_opIddEEKNS_14CwiseNullaryOpINS0_18scalar_identity_opIdEES4_EEKNS6_INS0_17scalar_product_opIddEEKS4_KNS9_INS0_18scalar_constant_opIdEESG_EEEEEEEENS0_9assign_opIddEELi0EE11assignCoeffEii>
 8002f20:	a802      	add	r0, sp, #8
 8002f22:	2200      	movs	r2, #0
 8002f24:	2101      	movs	r1, #1
 8002f26:	f7ff fdb7 	bl	8002a98 <_ZN5Eigen8internal31generic_dense_assignment_kernelINS0_9evaluatorINS_6MatrixIdLi4ELi4ELi0ELi4ELi4EEEEENS2_INS_13CwiseBinaryOpINS0_13scalar_sum_opIddEEKNS_14CwiseNullaryOpINS0_18scalar_identity_opIdEES4_EEKNS6_INS0_17scalar_product_opIddEEKS4_KNS9_INS0_18scalar_constant_opIdEESG_EEEEEEEENS0_9assign_opIddEELi0EE11assignCoeffEii>
 8002f2a:	a802      	add	r0, sp, #8
 8002f2c:	2200      	movs	r2, #0
 8002f2e:	2102      	movs	r1, #2
 8002f30:	f7ff fdb2 	bl	8002a98 <_ZN5Eigen8internal31generic_dense_assignment_kernelINS0_9evaluatorINS_6MatrixIdLi4ELi4ELi0ELi4ELi4EEEEENS2_INS_13CwiseBinaryOpINS0_13scalar_sum_opIddEEKNS_14CwiseNullaryOpINS0_18scalar_identity_opIdEES4_EEKNS6_INS0_17scalar_product_opIddEEKS4_KNS9_INS0_18scalar_constant_opIdEESG_EEEEEEEENS0_9assign_opIddEELi0EE11assignCoeffEii>
 8002f34:	a802      	add	r0, sp, #8
 8002f36:	2200      	movs	r2, #0
 8002f38:	2103      	movs	r1, #3
 8002f3a:	f7ff fdad 	bl	8002a98 <_ZN5Eigen8internal31generic_dense_assignment_kernelINS0_9evaluatorINS_6MatrixIdLi4ELi4ELi0ELi4ELi4EEEEENS2_INS_13CwiseBinaryOpINS0_13scalar_sum_opIddEEKNS_14CwiseNullaryOpINS0_18scalar_identity_opIdEES4_EEKNS6_INS0_17scalar_product_opIddEEKS4_KNS9_INS0_18scalar_constant_opIdEESG_EEEEEEEENS0_9assign_opIddEELi0EE11assignCoeffEii>
 8002f3e:	a802      	add	r0, sp, #8
 8002f40:	2201      	movs	r2, #1
 8002f42:	2100      	movs	r1, #0
 8002f44:	f7ff fda8 	bl	8002a98 <_ZN5Eigen8internal31generic_dense_assignment_kernelINS0_9evaluatorINS_6MatrixIdLi4ELi4ELi0ELi4ELi4EEEEENS2_INS_13CwiseBinaryOpINS0_13scalar_sum_opIddEEKNS_14CwiseNullaryOpINS0_18scalar_identity_opIdEES4_EEKNS6_INS0_17scalar_product_opIddEEKS4_KNS9_INS0_18scalar_constant_opIdEESG_EEEEEEEENS0_9assign_opIddEELi0EE11assignCoeffEii>
 8002f48:	2201      	movs	r2, #1
 8002f4a:	a802      	add	r0, sp, #8
 8002f4c:	4611      	mov	r1, r2
 8002f4e:	f7ff fda3 	bl	8002a98 <_ZN5Eigen8internal31generic_dense_assignment_kernelINS0_9evaluatorINS_6MatrixIdLi4ELi4ELi0ELi4ELi4EEEEENS2_INS_13CwiseBinaryOpINS0_13scalar_sum_opIddEEKNS_14CwiseNullaryOpINS0_18scalar_identity_opIdEES4_EEKNS6_INS0_17scalar_product_opIddEEKS4_KNS9_INS0_18scalar_constant_opIdEESG_EEEEEEEENS0_9assign_opIddEELi0EE11assignCoeffEii>
 8002f52:	a802      	add	r0, sp, #8
 8002f54:	2201      	movs	r2, #1
 8002f56:	2102      	movs	r1, #2
 8002f58:	f7ff fd9e 	bl	8002a98 <_ZN5Eigen8internal31generic_dense_assignment_kernelINS0_9evaluatorINS_6MatrixIdLi4ELi4ELi0ELi4ELi4EEEEENS2_INS_13CwiseBinaryOpINS0_13scalar_sum_opIddEEKNS_14CwiseNullaryOpINS0_18scalar_identity_opIdEES4_EEKNS6_INS0_17scalar_product_opIddEEKS4_KNS9_INS0_18scalar_constant_opIdEESG_EEEEEEEENS0_9assign_opIddEELi0EE11assignCoeffEii>
 8002f5c:	2201      	movs	r2, #1
 8002f5e:	2103      	movs	r1, #3
 8002f60:	a802      	add	r0, sp, #8
 8002f62:	f7ff fd99 	bl	8002a98 <_ZN5Eigen8internal31generic_dense_assignment_kernelINS0_9evaluatorINS_6MatrixIdLi4ELi4ELi0ELi4ELi4EEEEENS2_INS_13CwiseBinaryOpINS0_13scalar_sum_opIddEEKNS_14CwiseNullaryOpINS0_18scalar_identity_opIdEES4_EEKNS6_INS0_17scalar_product_opIddEEKS4_KNS9_INS0_18scalar_constant_opIdEESG_EEEEEEEENS0_9assign_opIddEELi0EE11assignCoeffEii>
 8002f66:	a802      	add	r0, sp, #8
 8002f68:	f7ff ff97 	bl	8002e9a <_ZN5Eigen8internal55copy_using_evaluator_DefaultTraversal_CompleteUnrollingINS0_31generic_dense_assignment_kernelINS0_9evaluatorINS_6MatrixIdLi4ELi4ELi0ELi4ELi4EEEEENS3_INS_13CwiseBinaryOpINS0_13scalar_sum_opIddEEKNS_14CwiseNullaryOpINS0_18scalar_identity_opIdEES5_EEKNS7_INS0_17scalar_product_opIddEEKS5_KNSA_INS0_18scalar_constant_opIdEESH_EEEEEEEENS0_9assign_opIddEELi0EEELi8ELi16EE3runERSS_>
 8002f6c:	4620      	mov	r0, r4
 8002f6e:	b00f      	add	sp, #60	@ 0x3c
 8002f70:	bd30      	pop	{r4, r5, pc}

08002f72 <_ZN5Eigen8internal55copy_using_evaluator_DefaultTraversal_CompleteUnrollingINS0_31generic_dense_assignment_kernelINS0_9evaluatorINS_5BlockINS_6MatrixIdLi4ELi4ELi0ELi4ELi4EEELi4ELi4ELb0EEEEENS3_IS6_EENS0_9assign_opIddEELi0EEELi8ELi16EE3runERSC_>:
 8002f72:	b510      	push	{r4, lr}
 8002f74:	4604      	mov	r4, r0
 8002f76:	2202      	movs	r2, #2
 8002f78:	2100      	movs	r1, #0
 8002f7a:	f7ff fdad 	bl	8002ad8 <_ZN5Eigen8internal31generic_dense_assignment_kernelINS0_9evaluatorINS_5BlockINS_6MatrixIdLi4ELi4ELi0ELi4ELi4EEELi4ELi4ELb0EEEEENS2_IS5_EENS0_9assign_opIddEELi0EE11assignCoeffEii>
 8002f7e:	4620      	mov	r0, r4
 8002f80:	2202      	movs	r2, #2
 8002f82:	2101      	movs	r1, #1
 8002f84:	f7ff fda8 	bl	8002ad8 <_ZN5Eigen8internal31generic_dense_assignment_kernelINS0_9evaluatorINS_5BlockINS_6MatrixIdLi4ELi4ELi0ELi4ELi4EEELi4ELi4ELb0EEEEENS2_IS5_EENS0_9assign_opIddEELi0EE11assignCoeffEii>
 8002f88:	2202      	movs	r2, #2
 8002f8a:	4620      	mov	r0, r4
 8002f8c:	4611      	mov	r1, r2
 8002f8e:	f7ff fda3 	bl	8002ad8 <_ZN5Eigen8internal31generic_dense_assignment_kernelINS0_9evaluatorINS_5BlockINS_6MatrixIdLi4ELi4ELi0ELi4ELi4EEELi4ELi4ELb0EEEEENS2_IS5_EENS0_9assign_opIddEELi0EE11assignCoeffEii>
 8002f92:	4620      	mov	r0, r4
 8002f94:	2202      	movs	r2, #2
 8002f96:	2103      	movs	r1, #3
 8002f98:	f7ff fd9e 	bl	8002ad8 <_ZN5Eigen8internal31generic_dense_assignment_kernelINS0_9evaluatorINS_5BlockINS_6MatrixIdLi4ELi4ELi0ELi4ELi4EEELi4ELi4ELb0EEEEENS2_IS5_EENS0_9assign_opIddEELi0EE11assignCoeffEii>
 8002f9c:	4620      	mov	r0, r4
 8002f9e:	2203      	movs	r2, #3
 8002fa0:	2100      	movs	r1, #0
 8002fa2:	f7ff fd99 	bl	8002ad8 <_ZN5Eigen8internal31generic_dense_assignment_kernelINS0_9evaluatorINS_5BlockINS_6MatrixIdLi4ELi4ELi0ELi4ELi4EEELi4ELi4ELb0EEEEENS2_IS5_EENS0_9assign_opIddEELi0EE11assignCoeffEii>
 8002fa6:	4620      	mov	r0, r4
 8002fa8:	2203      	movs	r2, #3
 8002faa:	2101      	movs	r1, #1
 8002fac:	f7ff fd94 	bl	8002ad8 <_ZN5Eigen8internal31generic_dense_assignment_kernelINS0_9evaluatorINS_5BlockINS_6MatrixIdLi4ELi4ELi0ELi4ELi4EEELi4ELi4ELb0EEEEENS2_IS5_EENS0_9assign_opIddEELi0EE11assignCoeffEii>
 8002fb0:	4620      	mov	r0, r4
 8002fb2:	2203      	movs	r2, #3
 8002fb4:	2102      	movs	r1, #2
 8002fb6:	f7ff fd8f 	bl	8002ad8 <_ZN5Eigen8internal31generic_dense_assignment_kernelINS0_9evaluatorINS_5BlockINS_6MatrixIdLi4ELi4ELi0ELi4ELi4EEELi4ELi4ELb0EEEEENS2_IS5_EENS0_9assign_opIddEELi0EE11assignCoeffEii>
 8002fba:	2203      	movs	r2, #3
 8002fbc:	4620      	mov	r0, r4
 8002fbe:	4611      	mov	r1, r2
 8002fc0:	f7ff fd8a 	bl	8002ad8 <_ZN5Eigen8internal31generic_dense_assignment_kernelINS0_9evaluatorINS_5BlockINS_6MatrixIdLi4ELi4ELi0ELi4ELi4EEELi4ELi4ELb0EEEEENS2_IS5_EENS0_9assign_opIddEELi0EE11assignCoeffEii>
 8002fc4:	bd10      	pop	{r4, pc}

08002fc6 <_ZN5Eigen8internal15call_assignmentINS_5BlockINS_6MatrixIdLi4ELi4ELi0ELi4ELi4EEELi4ELi4ELb0EEES4_EEvRT_RKT0_>:
 8002fc6:	b500      	push	{lr}
 8002fc8:	6803      	ldr	r3, [r0, #0]
 8002fca:	b089      	sub	sp, #36	@ 0x24
 8002fcc:	2200      	movs	r2, #0
 8002fce:	9302      	str	r3, [sp, #8]
 8002fd0:	ab02      	add	r3, sp, #8
 8002fd2:	9101      	str	r1, [sp, #4]
 8002fd4:	4611      	mov	r1, r2
 8002fd6:	9304      	str	r3, [sp, #16]
 8002fd8:	ab01      	add	r3, sp, #4
 8002fda:	9007      	str	r0, [sp, #28]
 8002fdc:	a804      	add	r0, sp, #16
 8002fde:	9305      	str	r3, [sp, #20]
 8002fe0:	f8cd d018 	str.w	sp, [sp, #24]
 8002fe4:	f7ff fd78 	bl	8002ad8 <_ZN5Eigen8internal31generic_dense_assignment_kernelINS0_9evaluatorINS_5BlockINS_6MatrixIdLi4ELi4ELi0ELi4ELi4EEELi4ELi4ELb0EEEEENS2_IS5_EENS0_9assign_opIddEELi0EE11assignCoeffEii>
 8002fe8:	a804      	add	r0, sp, #16
 8002fea:	2200      	movs	r2, #0
 8002fec:	2101      	movs	r1, #1
 8002fee:	f7ff fd73 	bl	8002ad8 <_ZN5Eigen8internal31generic_dense_assignment_kernelINS0_9evaluatorINS_5BlockINS_6MatrixIdLi4ELi4ELi0ELi4ELi4EEELi4ELi4ELb0EEEEENS2_IS5_EENS0_9assign_opIddEELi0EE11assignCoeffEii>
 8002ff2:	a804      	add	r0, sp, #16
 8002ff4:	2200      	movs	r2, #0
 8002ff6:	2102      	movs	r1, #2
 8002ff8:	f7ff fd6e 	bl	8002ad8 <_ZN5Eigen8internal31generic_dense_assignment_kernelINS0_9evaluatorINS_5BlockINS_6MatrixIdLi4ELi4ELi0ELi4ELi4EEELi4ELi4ELb0EEEEENS2_IS5_EENS0_9assign_opIddEELi0EE11assignCoeffEii>
 8002ffc:	a804      	add	r0, sp, #16
 8002ffe:	2200      	movs	r2, #0
 8003000:	2103      	movs	r1, #3
 8003002:	f7ff fd69 	bl	8002ad8 <_ZN5Eigen8internal31generic_dense_assignment_kernelINS0_9evaluatorINS_5BlockINS_6MatrixIdLi4ELi4ELi0ELi4ELi4EEELi4ELi4ELb0EEEEENS2_IS5_EENS0_9assign_opIddEELi0EE11assignCoeffEii>
 8003006:	a804      	add	r0, sp, #16
 8003008:	2201      	movs	r2, #1
 800300a:	2100      	movs	r1, #0
 800300c:	f7ff fd64 	bl	8002ad8 <_ZN5Eigen8internal31generic_dense_assignment_kernelINS0_9evaluatorINS_5BlockINS_6MatrixIdLi4ELi4ELi0ELi4ELi4EEELi4ELi4ELb0EEEEENS2_IS5_EENS0_9assign_opIddEELi0EE11assignCoeffEii>
 8003010:	2201      	movs	r2, #1
 8003012:	a804      	add	r0, sp, #16
 8003014:	4611      	mov	r1, r2
 8003016:	f7ff fd5f 	bl	8002ad8 <_ZN5Eigen8internal31generic_dense_assignment_kernelINS0_9evaluatorINS_5BlockINS_6MatrixIdLi4ELi4ELi0ELi4ELi4EEELi4ELi4ELb0EEEEENS2_IS5_EENS0_9assign_opIddEELi0EE11assignCoeffEii>
 800301a:	a804      	add	r0, sp, #16
 800301c:	2201      	movs	r2, #1
 800301e:	2102      	movs	r1, #2
 8003020:	f7ff fd5a 	bl	8002ad8 <_ZN5Eigen8internal31generic_dense_assignment_kernelINS0_9evaluatorINS_5BlockINS_6MatrixIdLi4ELi4ELi0ELi4ELi4EEELi4ELi4ELb0EEEEENS2_IS5_EENS0_9assign_opIddEELi0EE11assignCoeffEii>
 8003024:	2201      	movs	r2, #1
 8003026:	2103      	movs	r1, #3
 8003028:	a804      	add	r0, sp, #16
 800302a:	f7ff fd55 	bl	8002ad8 <_ZN5Eigen8internal31generic_dense_assignment_kernelINS0_9evaluatorINS_5BlockINS_6MatrixIdLi4ELi4ELi0ELi4ELi4EEELi4ELi4ELb0EEEEENS2_IS5_EENS0_9assign_opIddEELi0EE11assignCoeffEii>
 800302e:	a804      	add	r0, sp, #16
 8003030:	f7ff ff9f 	bl	8002f72 <_ZN5Eigen8internal55copy_using_evaluator_DefaultTraversal_CompleteUnrollingINS0_31generic_dense_assignment_kernelINS0_9evaluatorINS_5BlockINS_6MatrixIdLi4ELi4ELi0ELi4ELi4EEELi4ELi4ELb0EEEEENS3_IS6_EENS0_9assign_opIddEELi0EEELi8ELi16EE3runERSC_>
 8003034:	b009      	add	sp, #36	@ 0x24
 8003036:	f85d fb04 	ldr.w	pc, [sp], #4
	...

0800303c <_ZN20ExtendedKalmanFilter28computeStateTransitionMatrixERKN5Eigen6MatrixIdLi3ELi1ELi0ELi3ELi1EEERKd>:
 800303c:	e92d 47f0 	stmdb	sp!, {r4, r5, r6, r7, r8, r9, sl, lr}
 8003040:	ed2d 8b06 	vpush	{d8-d10}
 8003044:	b0e6      	sub	sp, #408	@ 0x198
 8003046:	4604      	mov	r4, r0
 8003048:	f04f 0800 	mov.w	r8, #0
 800304c:	f04f 0900 	mov.w	r9, #0
 8003050:	f10d 059f 	add.w	r5, sp, #159	@ 0x9f
 8003054:	469a      	mov	sl, r3
 8003056:	2700      	movs	r7, #0
 8003058:	f025 050f 	bic.w	r5, r5, #15
 800305c:	ed92 8b00 	vldr	d8, [r2]
 8003060:	ed92 ab02 	vldr	d10, [r2, #8]
 8003064:	ed92 9b04 	vldr	d9, [r2, #16]
 8003068:	f105 0680 	add.w	r6, r5, #128	@ 0x80
 800306c:	ed8d 8b00 	vstr	d8, [sp]
 8003070:	4630      	mov	r0, r6
 8003072:	eeb1 8b48 	vneg.f64	d8, d8
 8003076:	ed8d ab02 	vstr	d10, [sp, #8]
 800307a:	ed8d 9b04 	vstr	d9, [sp, #16]
 800307e:	eeb1 ab4a 	vneg.f64	d10, d10
 8003082:	f7ff faed 	bl	8002660 <_ZN5Eigen8internal11plain_arrayIdLi16ELi0ELi16EEC1Ev>
 8003086:	2301      	movs	r3, #1
 8003088:	eeb1 9b49 	vneg.f64	d9, d9
 800308c:	a906      	add	r1, sp, #24
 800308e:	a818      	add	r0, sp, #96	@ 0x60
 8003090:	931b      	str	r3, [sp, #108]	@ 0x6c
 8003092:	9618      	str	r6, [sp, #96]	@ 0x60
 8003094:	e9cd 7319 	strd	r7, r3, [sp, #100]	@ 0x64
 8003098:	e9c5 8920 	strd	r8, r9, [r5, #128]	@ 0x80
 800309c:	ed8d 8b06 	vstr	d8, [sp, #24]
 80030a0:	f7ff f9cc 	bl	800243c <_ZN5Eigen16CommaInitializerINS_6MatrixIdLi4ELi4ELi0ELi4ELi4EEEEcmERKd>
 80030a4:	a908      	add	r1, sp, #32
 80030a6:	ed8d ab08 	vstr	d10, [sp, #32]
 80030aa:	f7ff f9c7 	bl	800243c <_ZN5Eigen16CommaInitializerINS_6MatrixIdLi4ELi4ELi0ELi4ELi4EEEEcmERKd>
 80030ae:	a90a      	add	r1, sp, #40	@ 0x28
 80030b0:	ed8d 9b0a 	vstr	d9, [sp, #40]	@ 0x28
 80030b4:	f7ff f9c2 	bl	800243c <_ZN5Eigen16CommaInitializerINS_6MatrixIdLi4ELi4ELi0ELi4ELi4EEEEcmERKd>
 80030b8:	4669      	mov	r1, sp
 80030ba:	f7ff f9bf 	bl	800243c <_ZN5Eigen16CommaInitializerINS_6MatrixIdLi4ELi4ELi0ELi4ELi4EEEEcmERKd>
 80030be:	a90c      	add	r1, sp, #48	@ 0x30
 80030c0:	e9cd 890c 	strd	r8, r9, [sp, #48]	@ 0x30
 80030c4:	f7ff f9ba 	bl	800243c <_ZN5Eigen16CommaInitializerINS_6MatrixIdLi4ELi4ELi0ELi4ELi4EEEEcmERKd>
 80030c8:	a904      	add	r1, sp, #16
 80030ca:	f7ff f9b7 	bl	800243c <_ZN5Eigen16CommaInitializerINS_6MatrixIdLi4ELi4ELi0ELi4ELi4EEEEcmERKd>
 80030ce:	a90e      	add	r1, sp, #56	@ 0x38
 80030d0:	ed8d ab0e 	vstr	d10, [sp, #56]	@ 0x38
 80030d4:	f7ff f9b2 	bl	800243c <_ZN5Eigen16CommaInitializerINS_6MatrixIdLi4ELi4ELi0ELi4ELi4EEEEcmERKd>
 80030d8:	a902      	add	r1, sp, #8
 80030da:	f7ff f9af 	bl	800243c <_ZN5Eigen16CommaInitializerINS_6MatrixIdLi4ELi4ELi0ELi4ELi4EEEEcmERKd>
 80030de:	a910      	add	r1, sp, #64	@ 0x40
 80030e0:	ed8d 9b10 	vstr	d9, [sp, #64]	@ 0x40
 80030e4:	f7ff f9aa 	bl	800243c <_ZN5Eigen16CommaInitializerINS_6MatrixIdLi4ELi4ELi0ELi4ELi4EEEEcmERKd>
 80030e8:	a912      	add	r1, sp, #72	@ 0x48
 80030ea:	e9cd 8912 	strd	r8, r9, [sp, #72]	@ 0x48
 80030ee:	f7ff f9a5 	bl	800243c <_ZN5Eigen16CommaInitializerINS_6MatrixIdLi4ELi4ELi0ELi4ELi4EEEEcmERKd>
 80030f2:	4669      	mov	r1, sp
 80030f4:	f7ff f9a2 	bl	800243c <_ZN5Eigen16CommaInitializerINS_6MatrixIdLi4ELi4ELi0ELi4ELi4EEEEcmERKd>
 80030f8:	a904      	add	r1, sp, #16
 80030fa:	f7ff f99f 	bl	800243c <_ZN5Eigen16CommaInitializerINS_6MatrixIdLi4ELi4ELi0ELi4ELi4EEEEcmERKd>
 80030fe:	a902      	add	r1, sp, #8
 8003100:	f7ff f99c 	bl	800243c <_ZN5Eigen16CommaInitializerINS_6MatrixIdLi4ELi4ELi0ELi4ELi4EEEEcmERKd>
 8003104:	a914      	add	r1, sp, #80	@ 0x50
 8003106:	ed8d 8b14 	vstr	d8, [sp, #80]	@ 0x50
 800310a:	f7ff f997 	bl	800243c <_ZN5Eigen16CommaInitializerINS_6MatrixIdLi4ELi4ELi0ELi4ELi4EEEEcmERKd>
 800310e:	a916      	add	r1, sp, #88	@ 0x58
 8003110:	e9cd 8916 	strd	r8, r9, [sp, #88]	@ 0x58
 8003114:	f7ff f992 	bl	800243c <_ZN5Eigen16CommaInitializerINS_6MatrixIdLi4ELi4ELi0ELi4ELi4EEEEcmERKd>
 8003118:	9b19      	ldr	r3, [sp, #100]	@ 0x64
 800311a:	9a1b      	ldr	r2, [sp, #108]	@ 0x6c
 800311c:	4413      	add	r3, r2
 800311e:	2b04      	cmp	r3, #4
 8003120:	d104      	bne.n	800312c <_ZN20ExtendedKalmanFilter28computeStateTransitionMatrixERKN5Eigen6MatrixIdLi3ELi1ELi0ELi3ELi1EEERKd+0xf0>
 8003122:	f8dd 8068 	ldr.w	r8, [sp, #104]	@ 0x68
 8003126:	f1b8 0f04 	cmp.w	r8, #4
 800312a:	d005      	beq.n	8003138 <_ZN20ExtendedKalmanFilter28computeStateTransitionMatrixERKN5Eigen6MatrixIdLi3ELi1ELi0ELi3ELi1EEERKd+0xfc>
 800312c:	4b16      	ldr	r3, [pc, #88]	@ (8003188 <_ZN20ExtendedKalmanFilter28computeStateTransitionMatrixERKN5Eigen6MatrixIdLi3ELi1ELi0ELi3ELi1EEERKd+0x14c>)
 800312e:	217a      	movs	r1, #122	@ 0x7a
 8003130:	4a16      	ldr	r2, [pc, #88]	@ (800318c <_ZN20ExtendedKalmanFilter28computeStateTransitionMatrixERKN5Eigen6MatrixIdLi3ELi1ELi0ELi3ELi1EEERKd+0x150>)
 8003132:	4817      	ldr	r0, [pc, #92]	@ (8003190 <_ZN20ExtendedKalmanFilter28computeStateTransitionMatrixERKN5Eigen6MatrixIdLi3ELi1ELi0ELi3ELi1EEERKd+0x154>)
 8003134:	f006 fe2c 	bl	8009d90 <__assert_func>
 8003138:	4b16      	ldr	r3, [pc, #88]	@ (8003194 <_ZN20ExtendedKalmanFilter28computeStateTransitionMatrixERKN5Eigen6MatrixIdLi3ELi1ELi0ELi3ELi1EEERKd+0x158>)
 800313a:	2200      	movs	r2, #0
 800313c:	a918      	add	r1, sp, #96	@ 0x60
 800313e:	4630      	mov	r0, r6
 8003140:	961e      	str	r6, [sp, #120]	@ 0x78
 8003142:	e9cd 231c 	strd	r2, r3, [sp, #112]	@ 0x70
 8003146:	aa16      	add	r2, sp, #88	@ 0x58
 8003148:	f7ff fc54 	bl	80029f4 <_ZN5Eigen8internal26call_dense_assignment_loopINS_6MatrixIdLi4ELi4ELi0ELi4ELi4EEENS_13CwiseBinaryOpINS0_17scalar_product_opIddEEKNS_14CwiseNullaryOpINS0_18scalar_constant_opIdEEKS3_EESA_EENS0_9assign_opIddEEEEvRT_RKT0_RKT1_>
 800314c:	a918      	add	r1, sp, #96	@ 0x60
 800314e:	4628      	mov	r0, r5
 8003150:	961a      	str	r6, [sp, #104]	@ 0x68
 8003152:	e9da 2300 	ldrd	r2, r3, [sl]
 8003156:	e9cd 231e 	strd	r2, r3, [sp, #120]	@ 0x78
 800315a:	f7ff fec8 	bl	8002eee <_ZN5Eigen15PlainObjectBaseINS_6MatrixIdLi4ELi4ELi0ELi4ELi4EEEEC1INS_13CwiseBinaryOpINS_8internal13scalar_sum_opIddEEKNS_14CwiseNullaryOpINS6_18scalar_identity_opIdEES2_EEKNS5_INS6_17scalar_product_opIddEEKS2_KNS9_INS6_18scalar_constant_opIdEESG_EEEEEEEERKNS_9DenseBaseIT_EE>
 800315e:	4620      	mov	r0, r4
 8003160:	f7ff fa7e 	bl	8002660 <_ZN5Eigen8internal11plain_arrayIdLi16ELi0ELi16EEC1Ev>
 8003164:	4620      	mov	r0, r4
 8003166:	f7ff f8c7 	bl	80022f8 <_ZN5Eigen10MatrixBaseINS_6MatrixIdLi4ELi4ELi0ELi4ELi4EEEE11setIdentityEv.isra.0>
 800316a:	a818      	add	r0, sp, #96	@ 0x60
 800316c:	4629      	mov	r1, r5
 800316e:	9418      	str	r4, [sp, #96]	@ 0x60
 8003170:	e9cd 471a 	strd	r4, r7, [sp, #104]	@ 0x68
 8003174:	e9cd 781c 	strd	r7, r8, [sp, #112]	@ 0x70
 8003178:	f7ff ff25 	bl	8002fc6 <_ZN5Eigen8internal15call_assignmentINS_5BlockINS_6MatrixIdLi4ELi4ELi0ELi4ELi4EEELi4ELi4ELb0EEES4_EEvRT_RKT0_>
 800317c:	4620      	mov	r0, r4
 800317e:	b066      	add	sp, #408	@ 0x198
 8003180:	ecbd 8b06 	vpop	{d8-d10}
 8003184:	e8bd 87f0 	ldmia.w	sp!, {r4, r5, r6, r7, r8, r9, sl, pc}
 8003188:	0800bc22 	.word	0x0800bc22
 800318c:	0800bcc0 	.word	0x0800bcc0
 8003190:	0800b6c8 	.word	0x0800b6c8
 8003194:	3fe00000 	.word	0x3fe00000

08003198 <_ZN5Eigen5BlockIKNS_6MatrixIdLi4ELi4ELi0ELi4ELi4EEELi1ELi4ELb0EEC1ERS3_i>:
 8003198:	b510      	push	{r4, lr}
 800319a:	eb01 04c2 	add.w	r4, r1, r2, lsl #3
 800319e:	2a03      	cmp	r2, #3
 80031a0:	6004      	str	r4, [r0, #0]
 80031a2:	f04f 0400 	mov.w	r4, #0
 80031a6:	e9c0 1202 	strd	r1, r2, [r0, #8]
 80031aa:	f04f 0101 	mov.w	r1, #1
 80031ae:	e9c0 4104 	strd	r4, r1, [r0, #16]
 80031b2:	d905      	bls.n	80031c0 <_ZN5Eigen5BlockIKNS_6MatrixIdLi4ELi4ELi0ELi4ELi4EEELi1ELi4ELb0EEC1ERS3_i+0x28>
 80031b4:	4b03      	ldr	r3, [pc, #12]	@ (80031c4 <_ZN5Eigen5BlockIKNS_6MatrixIdLi4ELi4ELi0ELi4ELi4EEELi1ELi4ELb0EEC1ERS3_i+0x2c>)
 80031b6:	2178      	movs	r1, #120	@ 0x78
 80031b8:	4a03      	ldr	r2, [pc, #12]	@ (80031c8 <_ZN5Eigen5BlockIKNS_6MatrixIdLi4ELi4ELi0ELi4ELi4EEELi1ELi4ELb0EEC1ERS3_i+0x30>)
 80031ba:	4804      	ldr	r0, [pc, #16]	@ (80031cc <_ZN5Eigen5BlockIKNS_6MatrixIdLi4ELi4ELi0ELi4ELi4EEELi1ELi4ELb0EEC1ERS3_i+0x34>)
 80031bc:	f006 fde8 	bl	8009d90 <__assert_func>
 80031c0:	bd10      	pop	{r4, pc}
 80031c2:	bf00      	nop
 80031c4:	0800bd26 	.word	0x0800bd26
 80031c8:	0800bdcd 	.word	0x0800bdcd
 80031cc:	0800beaa 	.word	0x0800beaa

080031d0 <_ZN5Eigen8internal31generic_dense_assignment_kernelINS0_9evaluatorINS_6MatrixIdLi4ELi1ELi0ELi4ELi1EEEEENS2_INS_7ProductINS3_IdLi4ELi4ELi0ELi4ELi4EEES4_Li1EEEEENS0_9assign_opIddEELi0EE11assignCoeffEi>:
 80031d0:	6803      	ldr	r3, [r0, #0]
 80031d2:	460a      	mov	r2, r1
 80031d4:	b5f0      	push	{r4, r5, r6, r7, lr}
 80031d6:	b08d      	sub	sp, #52	@ 0x34
 80031d8:	6847      	ldr	r7, [r0, #4]
 80031da:	681e      	ldr	r6, [r3, #0]
 80031dc:	466c      	mov	r4, sp
 80031de:	4668      	mov	r0, sp
 80031e0:	eb06 06c1 	add.w	r6, r6, r1, lsl #3
 80031e4:	6839      	ldr	r1, [r7, #0]
 80031e6:	f7ff ffd7 	bl	8003198 <_ZN5Eigen5BlockIKNS_6MatrixIdLi4ELi4ELi0ELi4ELi4EEELi1ELi4ELb0EEC1ERS3_i>
 80031ea:	ad06      	add	r5, sp, #24
 80031ec:	cc0f      	ldmia	r4!, {r0, r1, r2, r3}
 80031ee:	c50f      	stmia	r5!, {r0, r1, r2, r3}
 80031f0:	687a      	ldr	r2, [r7, #4]
 80031f2:	9b06      	ldr	r3, [sp, #24]
 80031f4:	ed92 7b02 	vldr	d7, [r2, #8]
 80031f8:	ed93 6b08 	vldr	d6, [r3, #32]
 80031fc:	ed92 5b00 	vldr	d5, [r2]
 8003200:	ed92 4b04 	vldr	d4, [r2, #16]
 8003204:	ee27 6b06 	vmul.f64	d6, d7, d6
 8003208:	ed93 7b00 	vldr	d7, [r3]
 800320c:	e894 0003 	ldmia.w	r4, {r0, r1}
 8003210:	eea5 6b07 	vfma.f64	d6, d5, d7
 8003214:	ed93 5b18 	vldr	d5, [r3, #96]	@ 0x60
 8003218:	ed92 7b06 	vldr	d7, [r2, #24]
 800321c:	e885 0003 	stmia.w	r5, {r0, r1}
 8003220:	ee27 7b05 	vmul.f64	d7, d7, d5
 8003224:	ed93 5b10 	vldr	d5, [r3, #64]	@ 0x40
 8003228:	eea4 7b05 	vfma.f64	d7, d4, d5
 800322c:	ee37 7b06 	vadd.f64	d7, d7, d6
 8003230:	ed86 7b00 	vstr	d7, [r6]
 8003234:	b00d      	add	sp, #52	@ 0x34
 8003236:	bdf0      	pop	{r4, r5, r6, r7, pc}

08003238 <_ZN5Eigen8internal15call_assignmentINS_6MatrixIdLi4ELi1ELi0ELi4ELi1EEENS_7ProductINS2_IdLi4ELi4ELi0ELi4ELi4EEES3_Li0EEEEEvRT_RKT0_>:
 8003238:	b570      	push	{r4, r5, r6, lr}
 800323a:	b096      	sub	sp, #88	@ 0x58
 800323c:	460d      	mov	r5, r1
 800323e:	4606      	mov	r6, r0
 8003240:	f10d 043f 	add.w	r4, sp, #63	@ 0x3f
 8003244:	f024 040f 	bic.w	r4, r4, #15
 8003248:	4620      	mov	r0, r4
 800324a:	f7fd fa11 	bl	8000670 <_ZN5Eigen8internal11plain_arrayIdLi4ELi0ELi16EEC1Ev>
 800324e:	a803      	add	r0, sp, #12
 8003250:	2100      	movs	r1, #0
 8003252:	9402      	str	r4, [sp, #8]
 8003254:	e9d5 2300 	ldrd	r2, r3, [r5]
 8003258:	ad07      	add	r5, sp, #28
 800325a:	e9cd 2307 	strd	r2, r3, [sp, #28]
 800325e:	e9cd 2309 	strd	r2, r3, [sp, #36]	@ 0x24
 8003262:	2304      	movs	r3, #4
 8003264:	9504      	str	r5, [sp, #16]
 8003266:	930b      	str	r3, [sp, #44]	@ 0x2c
 8003268:	ab02      	add	r3, sp, #8
 800326a:	9303      	str	r3, [sp, #12]
 800326c:	ab01      	add	r3, sp, #4
 800326e:	e9cd 3405 	strd	r3, r4, [sp, #20]
 8003272:	f7ff ffad 	bl	80031d0 <_ZN5Eigen8internal31generic_dense_assignment_kernelINS0_9evaluatorINS_6MatrixIdLi4ELi1ELi0ELi4ELi1EEEEENS2_INS_7ProductINS3_IdLi4ELi4ELi0ELi4ELi4EEES4_Li1EEEEENS0_9assign_opIddEELi0EE11assignCoeffEi>
 8003276:	a803      	add	r0, sp, #12
 8003278:	2101      	movs	r1, #1
 800327a:	f7ff ffa9 	bl	80031d0 <_ZN5Eigen8internal31generic_dense_assignment_kernelINS0_9evaluatorINS_6MatrixIdLi4ELi1ELi0ELi4ELi1EEEEENS2_INS_7ProductINS3_IdLi4ELi4ELi0ELi4ELi4EEES4_Li1EEEEENS0_9assign_opIddEELi0EE11assignCoeffEi>
 800327e:	a803      	add	r0, sp, #12
 8003280:	2102      	movs	r1, #2
 8003282:	f7ff ffa5 	bl	80031d0 <_ZN5Eigen8internal31generic_dense_assignment_kernelINS0_9evaluatorINS_6MatrixIdLi4ELi1ELi0ELi4ELi1EEEEENS2_INS_7ProductINS3_IdLi4ELi4ELi0ELi4ELi4EEES4_Li1EEEEENS0_9assign_opIddEELi0EE11assignCoeffEi>
 8003286:	a803      	add	r0, sp, #12
 8003288:	2103      	movs	r1, #3
 800328a:	f7ff ffa1 	bl	80031d0 <_ZN5Eigen8internal31generic_dense_assignment_kernelINS0_9evaluatorINS_6MatrixIdLi4ELi1ELi0ELi4ELi1EEEEENS2_INS_7ProductINS3_IdLi4ELi4ELi0ELi4ELi4EEES4_Li1EEEEENS0_9assign_opIddEELi0EE11assignCoeffEi>
 800328e:	462a      	mov	r2, r5
 8003290:	4621      	mov	r1, r4
 8003292:	4630      	mov	r0, r6
 8003294:	f7ff fb24 	bl	80028e0 <_ZN5Eigen8internal26call_dense_assignment_loopINS_6MatrixIdLi4ELi1ELi0ELi4ELi1EEES3_NS0_9assign_opIddEEEEvRT_RKT0_RKT1_>
 8003298:	b016      	add	sp, #88	@ 0x58
 800329a:	bd70      	pop	{r4, r5, r6, pc}

0800329c <_ZN5Eigen8internal54copy_using_evaluator_LinearTraversal_CompleteUnrollingINS0_31generic_dense_assignment_kernelINS0_9evaluatorINS_6MatrixIdLi4ELi6ELi0ELi4ELi6EEEEES6_NS0_9assign_opIddEELi0EEELi10ELi24EE3runERS9_>:
 800329c:	b510      	push	{r4, lr}
 800329e:	4604      	mov	r4, r0
 80032a0:	210a      	movs	r1, #10
 80032a2:	f7ff fb79 	bl	8002998 <_ZN5Eigen8internal31generic_dense_assignment_kernelINS0_9evaluatorINS_6MatrixIdLi4ELi6ELi0ELi4ELi6EEEEES5_NS0_9assign_opIddEELi0EE11assignCoeffEi>
 80032a6:	210b      	movs	r1, #11
 80032a8:	4620      	mov	r0, r4
 80032aa:	f7ff fb75 	bl	8002998 <_ZN5Eigen8internal31generic_dense_assignment_kernelINS0_9evaluatorINS_6MatrixIdLi4ELi6ELi0ELi4ELi6EEEEES5_NS0_9assign_opIddEELi0EE11assignCoeffEi>
 80032ae:	4620      	mov	r0, r4
 80032b0:	210c      	movs	r1, #12
 80032b2:	f7ff fb71 	bl	8002998 <_ZN5Eigen8internal31generic_dense_assignment_kernelINS0_9evaluatorINS_6MatrixIdLi4ELi6ELi0ELi4ELi6EEEEES5_NS0_9assign_opIddEELi0EE11assignCoeffEi>
 80032b6:	4620      	mov	r0, r4
 80032b8:	210d      	movs	r1, #13
 80032ba:	f7ff fb6d 	bl	8002998 <_ZN5Eigen8internal31generic_dense_assignment_kernelINS0_9evaluatorINS_6MatrixIdLi4ELi6ELi0ELi4ELi6EEEEES5_NS0_9assign_opIddEELi0EE11assignCoeffEi>
 80032be:	4620      	mov	r0, r4
 80032c0:	210e      	movs	r1, #14
 80032c2:	f7ff fb69 	bl	8002998 <_ZN5Eigen8internal31generic_dense_assignment_kernelINS0_9evaluatorINS_6MatrixIdLi4ELi6ELi0ELi4ELi6EEEEES5_NS0_9assign_opIddEELi0EE11assignCoeffEi>
 80032c6:	4620      	mov	r0, r4
 80032c8:	210f      	movs	r1, #15
 80032ca:	f7ff fb65 	bl	8002998 <_ZN5Eigen8internal31generic_dense_assignment_kernelINS0_9evaluatorINS_6MatrixIdLi4ELi6ELi0ELi4ELi6EEEEES5_NS0_9assign_opIddEELi0EE11assignCoeffEi>
 80032ce:	4620      	mov	r0, r4
 80032d0:	2110      	movs	r1, #16
 80032d2:	f7ff fb61 	bl	8002998 <_ZN5Eigen8internal31generic_dense_assignment_kernelINS0_9evaluatorINS_6MatrixIdLi4ELi6ELi0ELi4ELi6EEEEES5_NS0_9assign_opIddEELi0EE11assignCoeffEi>
 80032d6:	4620      	mov	r0, r4
 80032d8:	2111      	movs	r1, #17
 80032da:	f7ff fb5d 	bl	8002998 <_ZN5Eigen8internal31generic_dense_assignment_kernelINS0_9evaluatorINS_6MatrixIdLi4ELi6ELi0ELi4ELi6EEEEES5_NS0_9assign_opIddEELi0EE11assignCoeffEi>
 80032de:	4620      	mov	r0, r4
 80032e0:	2112      	movs	r1, #18
 80032e2:	f7ff fb59 	bl	8002998 <_ZN5Eigen8internal31generic_dense_assignment_kernelINS0_9evaluatorINS_6MatrixIdLi4ELi6ELi0ELi4ELi6EEEEES5_NS0_9assign_opIddEELi0EE11assignCoeffEi>
 80032e6:	4620      	mov	r0, r4
 80032e8:	2113      	movs	r1, #19
 80032ea:	f7ff fb55 	bl	8002998 <_ZN5Eigen8internal31generic_dense_assignment_kernelINS0_9evaluatorINS_6MatrixIdLi4ELi6ELi0ELi4ELi6EEEEES5_NS0_9assign_opIddEELi0EE11assignCoeffEi>
 80032ee:	4620      	mov	r0, r4
 80032f0:	2114      	movs	r1, #20
 80032f2:	f7ff fb51 	bl	8002998 <_ZN5Eigen8internal31generic_dense_assignment_kernelINS0_9evaluatorINS_6MatrixIdLi4ELi6ELi0ELi4ELi6EEEEES5_NS0_9assign_opIddEELi0EE11assignCoeffEi>
 80032f6:	4620      	mov	r0, r4
 80032f8:	2115      	movs	r1, #21
 80032fa:	f7ff fb4d 	bl	8002998 <_ZN5Eigen8internal31generic_dense_assignment_kernelINS0_9evaluatorINS_6MatrixIdLi4ELi6ELi0ELi4ELi6EEEEES5_NS0_9assign_opIddEELi0EE11assignCoeffEi>
 80032fe:	4620      	mov	r0, r4
 8003300:	2116      	movs	r1, #22
 8003302:	f7ff fb49 	bl	8002998 <_ZN5Eigen8internal31generic_dense_assignment_kernelINS0_9evaluatorINS_6MatrixIdLi4ELi6ELi0ELi4ELi6EEEEES5_NS0_9assign_opIddEELi0EE11assignCoeffEi>
 8003306:	2117      	movs	r1, #23
 8003308:	4620      	mov	r0, r4
 800330a:	f7ff fb45 	bl	8002998 <_ZN5Eigen8internal31generic_dense_assignment_kernelINS0_9evaluatorINS_6MatrixIdLi4ELi6ELi0ELi4ELi6EEEEES5_NS0_9assign_opIddEELi0EE11assignCoeffEi>
 800330e:	bd10      	pop	{r4, pc}

08003310 <_ZN5Eigen5BlockIKNS_6MatrixIdLi4ELi6ELi0ELi4ELi6EEELi1ELi6ELb0EEC1ERS3_i>:
 8003310:	b510      	push	{r4, lr}
 8003312:	eb01 04c2 	add.w	r4, r1, r2, lsl #3
 8003316:	2a03      	cmp	r2, #3
 8003318:	6004      	str	r4, [r0, #0]
 800331a:	f04f 0400 	mov.w	r4, #0
 800331e:	e9c0 1202 	strd	r1, r2, [r0, #8]
 8003322:	f04f 0101 	mov.w	r1, #1
 8003326:	e9c0 4104 	strd	r4, r1, [r0, #16]
 800332a:	d905      	bls.n	8003338 <_ZN5Eigen5BlockIKNS_6MatrixIdLi4ELi6ELi0ELi4ELi6EEELi1ELi6ELb0EEC1ERS3_i+0x28>
 800332c:	4b03      	ldr	r3, [pc, #12]	@ (800333c <_ZN5Eigen5BlockIKNS_6MatrixIdLi4ELi6ELi0ELi4ELi6EEELi1ELi6ELb0EEC1ERS3_i+0x2c>)
 800332e:	2178      	movs	r1, #120	@ 0x78
 8003330:	4a03      	ldr	r2, [pc, #12]	@ (8003340 <_ZN5Eigen5BlockIKNS_6MatrixIdLi4ELi6ELi0ELi4ELi6EEELi1ELi6ELb0EEC1ERS3_i+0x30>)
 8003332:	4804      	ldr	r0, [pc, #16]	@ (8003344 <_ZN5Eigen5BlockIKNS_6MatrixIdLi4ELi6ELi0ELi4ELi6EEELi1ELi6ELb0EEC1ERS3_i+0x34>)
 8003334:	f006 fd2c 	bl	8009d90 <__assert_func>
 8003338:	bd10      	pop	{r4, pc}
 800333a:	bf00      	nop
 800333c:	0800bd26 	.word	0x0800bd26
 8003340:	0800bed3 	.word	0x0800bed3
 8003344:	0800beaa 	.word	0x0800beaa

08003348 <_ZN5Eigen8internal31generic_dense_assignment_kernelINS0_9evaluatorINS_6MatrixIdLi4ELi6ELi0ELi4ELi6EEEEENS2_INS_7ProductINS6_INS3_IdLi4ELi4ELi0ELi4ELi4EEENS_9TransposeINS3_IdLi6ELi4ELi0ELi6ELi4EEEEELi0EEENS_7InverseINS3_IdLi6ELi6ELi0ELi6ELi6EEEEELi1EEEEENS0_9assign_opIddEELi0EE11assignCoeffEii>:
 8003348:	6803      	ldr	r3, [r0, #0]
 800334a:	e92d 41f0 	stmdb	sp!, {r4, r5, r6, r7, r8, lr}
 800334e:	b08c      	sub	sp, #48	@ 0x30
 8003350:	6844      	ldr	r4, [r0, #4]
 8003352:	4617      	mov	r7, r2
 8003354:	681b      	ldr	r3, [r3, #0]
 8003356:	eb01 0282 	add.w	r2, r1, r2, lsl #2
 800335a:	466d      	mov	r5, sp
 800335c:	4668      	mov	r0, sp
 800335e:	ae06      	add	r6, sp, #24
 8003360:	eb03 08c2 	add.w	r8, r3, r2, lsl #3
 8003364:	460a      	mov	r2, r1
 8003366:	4621      	mov	r1, r4
 8003368:	f7ff ffd2 	bl	8003310 <_ZN5Eigen5BlockIKNS_6MatrixIdLi4ELi6ELi0ELi4ELi6EEELi1ELi6ELb0EEC1ERS3_i>
 800336c:	2f05      	cmp	r7, #5
 800336e:	cd0f      	ldmia	r5!, {r0, r1, r2, r3}
 8003370:	c60f      	stmia	r6!, {r0, r1, r2, r3}
 8003372:	e895 0003 	ldmia.w	r5, {r0, r1}
 8003376:	f04f 0306 	mov.w	r3, #6
 800337a:	e886 0003 	stmia.w	r6, {r0, r1}
 800337e:	fb07 f303 	mul.w	r3, r7, r3
 8003382:	f104 01c0 	add.w	r1, r4, #192	@ 0xc0
 8003386:	eb01 01c3 	add.w	r1, r1, r3, lsl #3
 800338a:	d905      	bls.n	8003398 <_ZN5Eigen8internal31generic_dense_assignment_kernelINS0_9evaluatorINS_6MatrixIdLi4ELi6ELi0ELi4ELi6EEEEENS2_INS_7ProductINS6_INS3_IdLi4ELi4ELi0ELi4ELi4EEENS_9TransposeINS3_IdLi6ELi4ELi0ELi6ELi4EEEEELi0EEENS_7InverseINS3_IdLi6ELi6ELi0ELi6ELi6EEEEELi1EEEEENS0_9assign_opIddEELi0EE11assignCoeffEii+0x50>
 800338c:	4b18      	ldr	r3, [pc, #96]	@ (80033f0 <_ZN5Eigen8internal31generic_dense_assignment_kernelINS0_9evaluatorINS_6MatrixIdLi4ELi6ELi0ELi4ELi6EEEEENS2_INS_7ProductINS6_INS3_IdLi4ELi4ELi0ELi4ELi4EEENS_9TransposeINS3_IdLi6ELi4ELi0ELi6ELi4EEEEELi0EEENS_7InverseINS3_IdLi6ELi6ELi0ELi6ELi6EEEEELi1EEEEENS0_9assign_opIddEELi0EE11assignCoeffEii+0xa8>)
 800338e:	2178      	movs	r1, #120	@ 0x78
 8003390:	4a18      	ldr	r2, [pc, #96]	@ (80033f4 <_ZN5Eigen8internal31generic_dense_assignment_kernelINS0_9evaluatorINS_6MatrixIdLi4ELi6ELi0ELi4ELi6EEEEENS2_INS_7ProductINS6_INS3_IdLi4ELi4ELi0ELi4ELi4EEENS_9TransposeINS3_IdLi6ELi4ELi0ELi6ELi4EEEEELi0EEENS_7InverseINS3_IdLi6ELi6ELi0ELi6ELi6EEEEELi1EEEEENS0_9assign_opIddEELi0EE11assignCoeffEii+0xac>)
 8003392:	4819      	ldr	r0, [pc, #100]	@ (80033f8 <_ZN5Eigen8internal31generic_dense_assignment_kernelINS0_9evaluatorINS_6MatrixIdLi4ELi6ELi0ELi4ELi6EEEEENS2_INS_7ProductINS6_INS3_IdLi4ELi4ELi0ELi4ELi4EEENS_9TransposeINS3_IdLi6ELi4ELi0ELi6ELi4EEEEELi0EEENS_7InverseINS3_IdLi6ELi6ELi0ELi6ELi6EEEEELi1EEEEENS0_9assign_opIddEELi0EE11assignCoeffEii+0xb0>)
 8003394:	f006 fcfc 	bl	8009d90 <__assert_func>
 8003398:	9b06      	ldr	r3, [sp, #24]
 800339a:	ed91 7b04 	vldr	d7, [r1, #16]
 800339e:	ed93 6b10 	vldr	d6, [r3, #64]	@ 0x40
 80033a2:	ed91 2b02 	vldr	d2, [r1, #8]
 80033a6:	ed93 3b08 	vldr	d3, [r3, #32]
 80033aa:	ee27 6b06 	vmul.f64	d6, d7, d6
 80033ae:	ed91 7b0a 	vldr	d7, [r1, #40]	@ 0x28
 80033b2:	ed93 5b00 	vldr	d5, [r3]
 80033b6:	eea2 6b03 	vfma.f64	d6, d2, d3
 80033ba:	ed93 3b28 	vldr	d3, [r3, #160]	@ 0xa0
 80033be:	ed91 2b08 	vldr	d2, [r1, #32]
 80033c2:	ed91 4b00 	vldr	d4, [r1]
 80033c6:	ee27 7b03 	vmul.f64	d7, d7, d3
 80033ca:	eea4 6b05 	vfma.f64	d6, d4, d5
 80033ce:	ed93 3b20 	vldr	d3, [r3, #128]	@ 0x80
 80033d2:	ed93 5b18 	vldr	d5, [r3, #96]	@ 0x60
 80033d6:	ed91 4b06 	vldr	d4, [r1, #24]
 80033da:	eea2 7b03 	vfma.f64	d7, d2, d3
 80033de:	eea4 7b05 	vfma.f64	d7, d4, d5
 80033e2:	ee37 7b06 	vadd.f64	d7, d7, d6
 80033e6:	ed88 7b00 	vstr	d7, [r8]
 80033ea:	b00c      	add	sp, #48	@ 0x30
 80033ec:	e8bd 81f0 	ldmia.w	sp!, {r4, r5, r6, r7, r8, pc}
 80033f0:	0800bd26 	.word	0x0800bd26
 80033f4:	0800bfb0 	.word	0x0800bfb0
 80033f8:	0800beaa 	.word	0x0800beaa

080033fc <_ZN5Eigen8internal31generic_dense_assignment_kernelINS0_9evaluatorINS_6MatrixIdLi4ELi1ELi0ELi4ELi1EEEEENS2_INS_7ProductINS3_IdLi4ELi6ELi0ELi4ELi6EEENS3_IdLi6ELi1ELi0ELi6ELi1EEELi1EEEEENS0_13add_assign_opIddEELi0EE11assignCoeffEi>:
 80033fc:	6803      	ldr	r3, [r0, #0]
 80033fe:	460a      	mov	r2, r1
 8003400:	b5f0      	push	{r4, r5, r6, r7, lr}
 8003402:	b08d      	sub	sp, #52	@ 0x34
 8003404:	6847      	ldr	r7, [r0, #4]
 8003406:	681e      	ldr	r6, [r3, #0]
 8003408:	466c      	mov	r4, sp
 800340a:	4668      	mov	r0, sp
 800340c:	eb06 06c1 	add.w	r6, r6, r1, lsl #3
 8003410:	6839      	ldr	r1, [r7, #0]
 8003412:	f7ff ff7d 	bl	8003310 <_ZN5Eigen5BlockIKNS_6MatrixIdLi4ELi6ELi0ELi4ELi6EEELi1ELi6ELb0EEC1ERS3_i>
 8003416:	ad06      	add	r5, sp, #24
 8003418:	cc0f      	ldmia	r4!, {r0, r1, r2, r3}
 800341a:	c50f      	stmia	r5!, {r0, r1, r2, r3}
 800341c:	687a      	ldr	r2, [r7, #4]
 800341e:	9b06      	ldr	r3, [sp, #24]
 8003420:	ed92 7b04 	vldr	d7, [r2, #16]
 8003424:	ed93 6b10 	vldr	d6, [r3, #64]	@ 0x40
 8003428:	ed92 2b02 	vldr	d2, [r2, #8]
 800342c:	ed93 3b08 	vldr	d3, [r3, #32]
 8003430:	ee27 6b06 	vmul.f64	d6, d7, d6
 8003434:	ed92 7b0a 	vldr	d7, [r2, #40]	@ 0x28
 8003438:	ed93 5b00 	vldr	d5, [r3]
 800343c:	eea2 6b03 	vfma.f64	d6, d2, d3
 8003440:	ed93 3b28 	vldr	d3, [r3, #160]	@ 0xa0
 8003444:	ed92 2b08 	vldr	d2, [r2, #32]
 8003448:	ed92 4b00 	vldr	d4, [r2]
 800344c:	ee27 7b03 	vmul.f64	d7, d7, d3
 8003450:	eea4 6b05 	vfma.f64	d6, d4, d5
 8003454:	ed93 3b20 	vldr	d3, [r3, #128]	@ 0x80
 8003458:	ed93 5b18 	vldr	d5, [r3, #96]	@ 0x60
 800345c:	ed92 4b06 	vldr	d4, [r2, #24]
 8003460:	eea2 7b03 	vfma.f64	d7, d2, d3
 8003464:	e894 0003 	ldmia.w	r4, {r0, r1}
 8003468:	e885 0003 	stmia.w	r5, {r0, r1}
 800346c:	eea4 7b05 	vfma.f64	d7, d4, d5
 8003470:	ee37 7b06 	vadd.f64	d7, d7, d6
 8003474:	ed96 6b00 	vldr	d6, [r6]
 8003478:	ee36 6b07 	vadd.f64	d6, d6, d7
 800347c:	ed86 6b00 	vstr	d6, [r6]
 8003480:	b00d      	add	sp, #52	@ 0x34
 8003482:	bdf0      	pop	{r4, r5, r6, r7, pc}

08003484 <_ZN5Eigen8internal15call_assignmentINS_6MatrixIdLi4ELi1ELi0ELi4ELi1EEENS_13CwiseBinaryOpINS0_13scalar_sum_opIddEEKS3_KNS_7ProductINS2_IdLi4ELi6ELi0ELi4ELi6EEENS2_IdLi6ELi1ELi0ELi6ELi1EEELi0EEEEEEEvRT_RKT0_>:
 8003484:	b5f0      	push	{r4, r5, r6, r7, lr}
 8003486:	b097      	sub	sp, #92	@ 0x5c
 8003488:	460d      	mov	r5, r1
 800348a:	4606      	mov	r6, r0
 800348c:	f10d 043f 	add.w	r4, sp, #63	@ 0x3f
 8003490:	af07      	add	r7, sp, #28
 8003492:	f024 040f 	bic.w	r4, r4, #15
 8003496:	4620      	mov	r0, r4
 8003498:	f7fd f8ea 	bl	8000670 <_ZN5Eigen8internal11plain_arrayIdLi4ELi0ELi16EEC1Ev>
 800349c:	463a      	mov	r2, r7
 800349e:	6829      	ldr	r1, [r5, #0]
 80034a0:	4620      	mov	r0, r4
 80034a2:	f7ff fa1d 	bl	80028e0 <_ZN5Eigen8internal26call_dense_assignment_loopINS_6MatrixIdLi4ELi1ELi0ELi4ELi1EEES3_NS0_9assign_opIddEEEEvRT_RKT0_RKT1_>
 80034a6:	a803      	add	r0, sp, #12
 80034a8:	2100      	movs	r1, #0
 80034aa:	9402      	str	r4, [sp, #8]
 80034ac:	e9d5 2301 	ldrd	r2, r3, [r5, #4]
 80034b0:	e9cd 2307 	strd	r2, r3, [sp, #28]
 80034b4:	e9cd 2309 	strd	r2, r3, [sp, #36]	@ 0x24
 80034b8:	2306      	movs	r3, #6
 80034ba:	930b      	str	r3, [sp, #44]	@ 0x2c
 80034bc:	ab02      	add	r3, sp, #8
 80034be:	e9cd 3703 	strd	r3, r7, [sp, #12]
 80034c2:	ab01      	add	r3, sp, #4
 80034c4:	e9cd 3405 	strd	r3, r4, [sp, #20]
 80034c8:	f7ff ff98 	bl	80033fc <_ZN5Eigen8internal31generic_dense_assignment_kernelINS0_9evaluatorINS_6MatrixIdLi4ELi1ELi0ELi4ELi1EEEEENS2_INS_7ProductINS3_IdLi4ELi6ELi0ELi4ELi6EEENS3_IdLi6ELi1ELi0ELi6ELi1EEELi1EEEEENS0_13add_assign_opIddEELi0EE11assignCoeffEi>
 80034cc:	a803      	add	r0, sp, #12
 80034ce:	2101      	movs	r1, #1
 80034d0:	f7ff ff94 	bl	80033fc <_ZN5Eigen8internal31generic_dense_assignment_kernelINS0_9evaluatorINS_6MatrixIdLi4ELi1ELi0ELi4ELi1EEEEENS2_INS_7ProductINS3_IdLi4ELi6ELi0ELi4ELi6EEENS3_IdLi6ELi1ELi0ELi6ELi1EEELi1EEEEENS0_13add_assign_opIddEELi0EE11assignCoeffEi>
 80034d4:	a803      	add	r0, sp, #12
 80034d6:	2102      	movs	r1, #2
 80034d8:	f7ff ff90 	bl	80033fc <_ZN5Eigen8internal31generic_dense_assignment_kernelINS0_9evaluatorINS_6MatrixIdLi4ELi1ELi0ELi4ELi1EEEEENS2_INS_7ProductINS3_IdLi4ELi6ELi0ELi4ELi6EEENS3_IdLi6ELi1ELi0ELi6ELi1EEELi1EEEEENS0_13add_assign_opIddEELi0EE11assignCoeffEi>
 80034dc:	a803      	add	r0, sp, #12
 80034de:	2103      	movs	r1, #3
 80034e0:	f7ff ff8c 	bl	80033fc <_ZN5Eigen8internal31generic_dense_assignment_kernelINS0_9evaluatorINS_6MatrixIdLi4ELi1ELi0ELi4ELi1EEEEENS2_INS_7ProductINS3_IdLi4ELi6ELi0ELi4ELi6EEENS3_IdLi6ELi1ELi0ELi6ELi1EEELi1EEEEENS0_13add_assign_opIddEELi0EE11assignCoeffEi>
 80034e4:	463a      	mov	r2, r7
 80034e6:	4621      	mov	r1, r4
 80034e8:	4630      	mov	r0, r6
 80034ea:	f7ff f9f9 	bl	80028e0 <_ZN5Eigen8internal26call_dense_assignment_loopINS_6MatrixIdLi4ELi1ELi0ELi4ELi1EEES3_NS0_9assign_opIddEEEEvRT_RKT0_RKT1_>
 80034ee:	b017      	add	sp, #92	@ 0x5c
 80034f0:	bdf0      	pop	{r4, r5, r6, r7, pc}
	...

080034f4 <_ZN5Eigen5BlockIKNS_6MatrixIdLi4ELi4ELi0ELi4ELi4EEELi4ELi1ELb1EEC1ERS3_i>:
 80034f4:	b510      	push	{r4, lr}
 80034f6:	eb01 1442 	add.w	r4, r1, r2, lsl #5
 80034fa:	6081      	str	r1, [r0, #8]
 80034fc:	2100      	movs	r1, #0
 80034fe:	2a03      	cmp	r2, #3
 8003500:	6004      	str	r4, [r0, #0]
 8003502:	e9c0 1203 	strd	r1, r2, [r0, #12]
 8003506:	f04f 0104 	mov.w	r1, #4
 800350a:	6141      	str	r1, [r0, #20]
 800350c:	d905      	bls.n	800351a <_ZN5Eigen5BlockIKNS_6MatrixIdLi4ELi4ELi0ELi4ELi4EEELi4ELi1ELb1EEC1ERS3_i+0x26>
 800350e:	4b03      	ldr	r3, [pc, #12]	@ (800351c <_ZN5Eigen5BlockIKNS_6MatrixIdLi4ELi4ELi0ELi4ELi4EEELi4ELi1ELb1EEC1ERS3_i+0x28>)
 8003510:	2178      	movs	r1, #120	@ 0x78
 8003512:	4a03      	ldr	r2, [pc, #12]	@ (8003520 <_ZN5Eigen5BlockIKNS_6MatrixIdLi4ELi4ELi0ELi4ELi4EEELi4ELi1ELb1EEC1ERS3_i+0x2c>)
 8003514:	4803      	ldr	r0, [pc, #12]	@ (8003524 <_ZN5Eigen5BlockIKNS_6MatrixIdLi4ELi4ELi0ELi4ELi4EEELi4ELi1ELb1EEC1ERS3_i+0x30>)
 8003516:	f006 fc3b 	bl	8009d90 <__assert_func>
 800351a:	bd10      	pop	{r4, pc}
 800351c:	0800bd26 	.word	0x0800bd26
 8003520:	0800c08c 	.word	0x0800c08c
 8003524:	0800beaa 	.word	0x0800beaa

08003528 <_ZN5Eigen8internal31generic_dense_assignment_kernelINS0_9evaluatorINS_6MatrixIdLi4ELi4ELi0ELi4ELi4EEEEENS2_INS_7ProductINS_13CwiseBinaryOpINS0_20scalar_difference_opIddEEKS4_KNS6_INS3_IdLi4ELi6ELi0ELi4ELi6EEENS3_IdLi6ELi4ELi0ELi6ELi4EEELi0EEEEES4_Li1EEEEENS0_9assign_opIddEELi0EE11assignCoeffEii>:
 8003528:	e92d 41f0 	stmdb	sp!, {r4, r5, r6, r7, r8, lr}
 800352c:	4616      	mov	r6, r2
 800352e:	b0a0      	sub	sp, #128	@ 0x80
 8003530:	6802      	ldr	r2, [r0, #0]
 8003532:	f8d0 8004 	ldr.w	r8, [r0, #4]
 8003536:	eb01 0386 	add.w	r3, r1, r6, lsl #2
 800353a:	6817      	ldr	r7, [r2, #0]
 800353c:	ac07      	add	r4, sp, #28
 800353e:	460a      	mov	r2, r1
 8003540:	a807      	add	r0, sp, #28
 8003542:	4641      	mov	r1, r8
 8003544:	eb07 07c3 	add.w	r7, r7, r3, lsl #3
 8003548:	ad0d      	add	r5, sp, #52	@ 0x34
 800354a:	f7ff fe25 	bl	8003198 <_ZN5Eigen5BlockIKNS_6MatrixIdLi4ELi4ELi0ELi4ELi4EEELi1ELi4ELb0EEC1ERS3_i>
 800354e:	cc0f      	ldmia	r4!, {r0, r1, r2, r3}
 8003550:	c50f      	stmia	r5!, {r0, r1, r2, r3}
 8003552:	e894 0003 	ldmia.w	r4, {r0, r1}
 8003556:	4632      	mov	r2, r6
 8003558:	ac13      	add	r4, sp, #76	@ 0x4c
 800355a:	e885 0003 	stmia.w	r5, {r0, r1}
 800355e:	ad0d      	add	r5, sp, #52	@ 0x34
 8003560:	f8d8 1080 	ldr.w	r1, [r8, #128]	@ 0x80
 8003564:	a801      	add	r0, sp, #4
 8003566:	f7ff ffc5 	bl	80034f4 <_ZN5Eigen5BlockIKNS_6MatrixIdLi4ELi4ELi0ELi4ELi4EEELi4ELi1ELb1EEC1ERS3_i>
 800356a:	cd0f      	ldmia	r5!, {r0, r1, r2, r3}
 800356c:	c40f      	stmia	r4!, {r0, r1, r2, r3}
 800356e:	e895 0003 	ldmia.w	r5, {r0, r1}
 8003572:	ad19      	add	r5, sp, #100	@ 0x64
 8003574:	e884 0003 	stmia.w	r4, {r0, r1}
 8003578:	ac01      	add	r4, sp, #4
 800357a:	cc0f      	ldmia	r4!, {r0, r1, r2, r3}
 800357c:	c50f      	stmia	r5!, {r0, r1, r2, r3}
 800357e:	e894 0003 	ldmia.w	r4, {r0, r1}
 8003582:	e885 0003 	stmia.w	r5, {r0, r1}
 8003586:	a813      	add	r0, sp, #76	@ 0x4c
 8003588:	f7fe fe98 	bl	80022bc <_ZNK5Eigen9DenseBaseINS_13CwiseBinaryOpINS_8internal17scalar_product_opIddEEKNS_9TransposeIKNS_5BlockIKNS_6MatrixIdLi4ELi4ELi0ELi4ELi4EEELi1ELi4ELb0EEEEEKNS6_IS9_Li4ELi1ELb1EEEEEE5reduxINS2_13scalar_sum_opIddEEEEdRKT_.isra.0>
 800358c:	ed87 0b00 	vstr	d0, [r7]
 8003590:	b020      	add	sp, #128	@ 0x80
 8003592:	e8bd 81f0 	ldmia.w	sp!, {r4, r5, r6, r7, r8, pc}

08003596 <_ZN5Eigen8internal55copy_using_evaluator_DefaultTraversal_CompleteUnrollingINS0_31generic_dense_assignment_kernelINS0_9evaluatorINS_5BlockINS_6MatrixIdLi4ELi4ELi0ELi4ELi4EEELi4ELi4ELb0EEEEES8_NS0_9assign_opIddEELi0EEELi8ELi16EE3runERSB_>:
 8003596:	b510      	push	{r4, lr}
 8003598:	4604      	mov	r4, r0
 800359a:	2202      	movs	r2, #2
 800359c:	2100      	movs	r1, #0
 800359e:	f7ff fbe7 	bl	8002d70 <_ZN5Eigen8internal31generic_dense_assignment_kernelINS0_9evaluatorINS_5BlockINS_6MatrixIdLi4ELi4ELi0ELi4ELi4EEELi4ELi4ELb0EEEEES7_NS0_9assign_opIddEELi0EE11assignCoeffEii>
 80035a2:	4620      	mov	r0, r4
 80035a4:	2202      	movs	r2, #2
 80035a6:	2101      	movs	r1, #1
 80035a8:	f7ff fbe2 	bl	8002d70 <_ZN5Eigen8internal31generic_dense_assignment_kernelINS0_9evaluatorINS_5BlockINS_6MatrixIdLi4ELi4ELi0ELi4ELi4EEELi4ELi4ELb0EEEEES7_NS0_9assign_opIddEELi0EE11assignCoeffEii>
 80035ac:	2202      	movs	r2, #2
 80035ae:	4620      	mov	r0, r4
 80035b0:	4611      	mov	r1, r2
 80035b2:	f7ff fbdd 	bl	8002d70 <_ZN5Eigen8internal31generic_dense_assignment_kernelINS0_9evaluatorINS_5BlockINS_6MatrixIdLi4ELi4ELi0ELi4ELi4EEELi4ELi4ELb0EEEEES7_NS0_9assign_opIddEELi0EE11assignCoeffEii>
 80035b6:	4620      	mov	r0, r4
 80035b8:	2202      	movs	r2, #2
 80035ba:	2103      	movs	r1, #3
 80035bc:	f7ff fbd8 	bl	8002d70 <_ZN5Eigen8internal31generic_dense_assignment_kernelINS0_9evaluatorINS_5BlockINS_6MatrixIdLi4ELi4ELi0ELi4ELi4EEELi4ELi4ELb0EEEEES7_NS0_9assign_opIddEELi0EE11assignCoeffEii>
 80035c0:	4620      	mov	r0, r4
 80035c2:	2203      	movs	r2, #3
 80035c4:	2100      	movs	r1, #0
 80035c6:	f7ff fbd3 	bl	8002d70 <_ZN5Eigen8internal31generic_dense_assignment_kernelINS0_9evaluatorINS_5BlockINS_6MatrixIdLi4ELi4ELi0ELi4ELi4EEELi4ELi4ELb0EEEEES7_NS0_9assign_opIddEELi0EE11assignCoeffEii>
 80035ca:	4620      	mov	r0, r4
 80035cc:	2203      	movs	r2, #3
 80035ce:	2101      	movs	r1, #1
 80035d0:	f7ff fbce 	bl	8002d70 <_ZN5Eigen8internal31generic_dense_assignment_kernelINS0_9evaluatorINS_5BlockINS_6MatrixIdLi4ELi4ELi0ELi4ELi4EEELi4ELi4ELb0EEEEES7_NS0_9assign_opIddEELi0EE11assignCoeffEii>
 80035d4:	4620      	mov	r0, r4
 80035d6:	2203      	movs	r2, #3
 80035d8:	2102      	movs	r1, #2
 80035da:	f7ff fbc9 	bl	8002d70 <_ZN5Eigen8internal31generic_dense_assignment_kernelINS0_9evaluatorINS_5BlockINS_6MatrixIdLi4ELi4ELi0ELi4ELi4EEELi4ELi4ELb0EEEEES7_NS0_9assign_opIddEELi0EE11assignCoeffEii>
 80035de:	2203      	movs	r2, #3
 80035e0:	4620      	mov	r0, r4
 80035e2:	4611      	mov	r1, r2
 80035e4:	f7ff fbc4 	bl	8002d70 <_ZN5Eigen8internal31generic_dense_assignment_kernelINS0_9evaluatorINS_5BlockINS_6MatrixIdLi4ELi4ELi0ELi4ELi4EEELi4ELi4ELb0EEEEES7_NS0_9assign_opIddEELi0EE11assignCoeffEii>
 80035e8:	bd10      	pop	{r4, pc}

080035ea <_ZN5Eigen8internal26call_dense_assignment_loopINS_5BlockINS_6MatrixIdLi4ELi4ELi0ELi4ELi4EEELi4ELi4ELb0EEES5_NS0_9assign_opIddEEEEvRT_RKT0_RKT1_>:
 80035ea:	b500      	push	{lr}
 80035ec:	680b      	ldr	r3, [r1, #0]
 80035ee:	b089      	sub	sp, #36	@ 0x24
 80035f0:	9300      	str	r3, [sp, #0]
 80035f2:	6803      	ldr	r3, [r0, #0]
 80035f4:	f8cd d014 	str.w	sp, [sp, #20]
 80035f8:	9302      	str	r3, [sp, #8]
 80035fa:	ab02      	add	r3, sp, #8
 80035fc:	e9cd 2006 	strd	r2, r0, [sp, #24]
 8003600:	2200      	movs	r2, #0
 8003602:	a804      	add	r0, sp, #16
 8003604:	9304      	str	r3, [sp, #16]
 8003606:	4611      	mov	r1, r2
 8003608:	f7ff fbb2 	bl	8002d70 <_ZN5Eigen8internal31generic_dense_assignment_kernelINS0_9evaluatorINS_5BlockINS_6MatrixIdLi4ELi4ELi0ELi4ELi4EEELi4ELi4ELb0EEEEES7_NS0_9assign_opIddEELi0EE11assignCoeffEii>
 800360c:	a804      	add	r0, sp, #16
 800360e:	2200      	movs	r2, #0
 8003610:	2101      	movs	r1, #1
 8003612:	f7ff fbad 	bl	8002d70 <_ZN5Eigen8internal31generic_dense_assignment_kernelINS0_9evaluatorINS_5BlockINS_6MatrixIdLi4ELi4ELi0ELi4ELi4EEELi4ELi4ELb0EEEEES7_NS0_9assign_opIddEELi0EE11assignCoeffEii>
 8003616:	a804      	add	r0, sp, #16
 8003618:	2200      	movs	r2, #0
 800361a:	2102      	movs	r1, #2
 800361c:	f7ff fba8 	bl	8002d70 <_ZN5Eigen8internal31generic_dense_assignment_kernelINS0_9evaluatorINS_5BlockINS_6MatrixIdLi4ELi4ELi0ELi4ELi4EEELi4ELi4ELb0EEEEES7_NS0_9assign_opIddEELi0EE11assignCoeffEii>
 8003620:	a804      	add	r0, sp, #16
 8003622:	2200      	movs	r2, #0
 8003624:	2103      	movs	r1, #3
 8003626:	f7ff fba3 	bl	8002d70 <_ZN5Eigen8internal31generic_dense_assignment_kernelINS0_9evaluatorINS_5BlockINS_6MatrixIdLi4ELi4ELi0ELi4ELi4EEELi4ELi4ELb0EEEEES7_NS0_9assign_opIddEELi0EE11assignCoeffEii>
 800362a:	a804      	add	r0, sp, #16
 800362c:	2201      	movs	r2, #1
 800362e:	2100      	movs	r1, #0
 8003630:	f7ff fb9e 	bl	8002d70 <_ZN5Eigen8internal31generic_dense_assignment_kernelINS0_9evaluatorINS_5BlockINS_6MatrixIdLi4ELi4ELi0ELi4ELi4EEELi4ELi4ELb0EEEEES7_NS0_9assign_opIddEELi0EE11assignCoeffEii>
 8003634:	2201      	movs	r2, #1
 8003636:	a804      	add	r0, sp, #16
 8003638:	4611      	mov	r1, r2
 800363a:	f7ff fb99 	bl	8002d70 <_ZN5Eigen8internal31generic_dense_assignment_kernelINS0_9evaluatorINS_5BlockINS_6MatrixIdLi4ELi4ELi0ELi4ELi4EEELi4ELi4ELb0EEEEES7_NS0_9assign_opIddEELi0EE11assignCoeffEii>
 800363e:	a804      	add	r0, sp, #16
 8003640:	2201      	movs	r2, #1
 8003642:	2102      	movs	r1, #2
 8003644:	f7ff fb94 	bl	8002d70 <_ZN5Eigen8internal31generic_dense_assignment_kernelINS0_9evaluatorINS_5BlockINS_6MatrixIdLi4ELi4ELi0ELi4ELi4EEELi4ELi4ELb0EEEEES7_NS0_9assign_opIddEELi0EE11assignCoeffEii>
 8003648:	2201      	movs	r2, #1
 800364a:	2103      	movs	r1, #3
 800364c:	a804      	add	r0, sp, #16
 800364e:	f7ff fb8f 	bl	8002d70 <_ZN5Eigen8internal31generic_dense_assignment_kernelINS0_9evaluatorINS_5BlockINS_6MatrixIdLi4ELi4ELi0ELi4ELi4EEELi4ELi4ELb0EEEEES7_NS0_9assign_opIddEELi0EE11assignCoeffEii>
 8003652:	a804      	add	r0, sp, #16
 8003654:	f7ff ff9f 	bl	8003596 <_ZN5Eigen8internal55copy_using_evaluator_DefaultTraversal_CompleteUnrollingINS0_31generic_dense_assignment_kernelINS0_9evaluatorINS_5BlockINS_6MatrixIdLi4ELi4ELi0ELi4ELi4EEELi4ELi4ELb0EEEEES8_NS0_9assign_opIddEELi0EEELi8ELi16EE3runERSB_>
 8003658:	b009      	add	sp, #36	@ 0x24
 800365a:	f85d fb04 	ldr.w	pc, [sp], #4

0800365e <_ZN20ExtendedKalmanFilter35computeJacobianStateTransitionModelEv>:
 800365e:	b5f0      	push	{r4, r5, r6, r7, lr}
 8003660:	4604      	mov	r4, r0
 8003662:	b091      	sub	sp, #68	@ 0x44
 8003664:	460d      	mov	r5, r1
 8003666:	f7fe fffb 	bl	8002660 <_ZN5Eigen8internal11plain_arrayIdLi16ELi0ELi16EEC1Ev>
 800366a:	4620      	mov	r0, r4
 800366c:	af02      	add	r7, sp, #8
 800366e:	f7fe fe43 	bl	80022f8 <_ZN5Eigen10MatrixBaseINS_6MatrixIdLi4ELi4ELi0ELi4ELi4EEEE11setIdentityEv.isra.0>
 8003672:	f505 75a8 	add.w	r5, r5, #336	@ 0x150
 8003676:	2300      	movs	r3, #0
 8003678:	2604      	movs	r6, #4
 800367a:	950a      	str	r5, [sp, #40]	@ 0x28
 800367c:	463a      	mov	r2, r7
 800367e:	a804      	add	r0, sp, #16
 8003680:	9404      	str	r4, [sp, #16]
 8003682:	9406      	str	r4, [sp, #24]
 8003684:	9609      	str	r6, [sp, #36]	@ 0x24
 8003686:	e9cd 530c 	strd	r5, r3, [sp, #48]	@ 0x30
 800368a:	ad0a      	add	r5, sp, #40	@ 0x28
 800368c:	4629      	mov	r1, r5
 800368e:	e9cd 3307 	strd	r3, r3, [sp, #28]
 8003692:	e9cd 360e 	strd	r3, r6, [sp, #56]	@ 0x38
 8003696:	f7ff ffa8 	bl	80035ea <_ZN5Eigen8internal26call_dense_assignment_loopINS_5BlockINS_6MatrixIdLi4ELi4ELi0ELi4ELi4EEELi4ELi4ELb0EEES5_NS0_9assign_opIddEEEEvRT_RKT0_RKT1_>
 800369a:	f104 0328 	add.w	r3, r4, #40	@ 0x28
 800369e:	2201      	movs	r2, #1
 80036a0:	a804      	add	r0, sp, #16
 80036a2:	930a      	str	r3, [sp, #40]	@ 0x28
 80036a4:	9302      	str	r3, [sp, #8]
 80036a6:	eb0d 0306 	add.w	r3, sp, r6
 80036aa:	940c      	str	r4, [sp, #48]	@ 0x30
 80036ac:	960f      	str	r6, [sp, #60]	@ 0x3c
 80036ae:	9704      	str	r7, [sp, #16]
 80036b0:	9305      	str	r3, [sp, #20]
 80036b2:	f8cd d018 	str.w	sp, [sp, #24]
 80036b6:	9507      	str	r5, [sp, #28]
 80036b8:	e9cd 220d 	strd	r2, r2, [sp, #52]	@ 0x34
 80036bc:	f7ff fa1c 	bl	8002af8 <_ZN5Eigen8internal55copy_using_evaluator_DefaultTraversal_CompleteUnrollingINS0_31generic_dense_assignment_kernelINS0_9evaluatorINS_5BlockINS_6MatrixIdLi4ELi4ELi0ELi4ELi4EEELi3ELi3ELb0EEEEENS3_INS_14CwiseNullaryOpINS0_18scalar_identity_opIdEENS5_IdLi3ELi3ELi0ELi3ELi3EEEEEEENS0_9assign_opIddEELi0EEELi0ELi9EE3runERSH_>
 80036c0:	4620      	mov	r0, r4
 80036c2:	b011      	add	sp, #68	@ 0x44
 80036c4:	bdf0      	pop	{r4, r5, r6, r7, pc}
	...

080036c8 <_ZN5Eigen8internal31generic_dense_assignment_kernelINS0_9evaluatorINS_6MatrixIdLi4ELi4ELi1ELi4ELi4EEEEENS2_INS_7ProductINS6_INS3_IdLi4ELi4ELi0ELi4ELi4EEES7_Li0EEENS_9TransposeIS7_EELi1EEEEENS0_9assign_opIddEELi0EE11assignCoeffEii>:
 80036c8:	e92d 41f0 	stmdb	sp!, {r4, r5, r6, r7, r8, lr}
 80036cc:	4616      	mov	r6, r2
 80036ce:	b08c      	sub	sp, #48	@ 0x30
 80036d0:	6802      	ldr	r2, [r0, #0]
 80036d2:	f8d0 8004 	ldr.w	r8, [r0, #4]
 80036d6:	eb06 0381 	add.w	r3, r6, r1, lsl #2
 80036da:	6817      	ldr	r7, [r2, #0]
 80036dc:	466c      	mov	r4, sp
 80036de:	460a      	mov	r2, r1
 80036e0:	4668      	mov	r0, sp
 80036e2:	4641      	mov	r1, r8
 80036e4:	eb07 07c3 	add.w	r7, r7, r3, lsl #3
 80036e8:	ad06      	add	r5, sp, #24
 80036ea:	f7ff fd55 	bl	8003198 <_ZN5Eigen5BlockIKNS_6MatrixIdLi4ELi4ELi0ELi4ELi4EEELi1ELi4ELb0EEC1ERS3_i>
 80036ee:	2e03      	cmp	r6, #3
 80036f0:	cc0f      	ldmia	r4!, {r0, r1, r2, r3}
 80036f2:	c50f      	stmia	r5!, {r0, r1, r2, r3}
 80036f4:	e894 0003 	ldmia.w	r4, {r0, r1}
 80036f8:	f8d8 3080 	ldr.w	r3, [r8, #128]	@ 0x80
 80036fc:	e885 0003 	stmia.w	r5, {r0, r1}
 8003700:	eb03 03c6 	add.w	r3, r3, r6, lsl #3
 8003704:	d905      	bls.n	8003712 <_ZN5Eigen8internal31generic_dense_assignment_kernelINS0_9evaluatorINS_6MatrixIdLi4ELi4ELi1ELi4ELi4EEEEENS2_INS_7ProductINS6_INS3_IdLi4ELi4ELi0ELi4ELi4EEES7_Li0EEENS_9TransposeIS7_EELi1EEEEENS0_9assign_opIddEELi0EE11assignCoeffEii+0x4a>
 8003706:	4b13      	ldr	r3, [pc, #76]	@ (8003754 <_ZN5Eigen8internal31generic_dense_assignment_kernelINS0_9evaluatorINS_6MatrixIdLi4ELi4ELi1ELi4ELi4EEEEENS2_INS_7ProductINS6_INS3_IdLi4ELi4ELi0ELi4ELi4EEES7_Li0EEENS_9TransposeIS7_EELi1EEEEENS0_9assign_opIddEELi0EE11assignCoeffEii+0x8c>)
 8003708:	2178      	movs	r1, #120	@ 0x78
 800370a:	4a13      	ldr	r2, [pc, #76]	@ (8003758 <_ZN5Eigen8internal31generic_dense_assignment_kernelINS0_9evaluatorINS_6MatrixIdLi4ELi4ELi1ELi4ELi4EEEEENS2_INS_7ProductINS6_INS3_IdLi4ELi4ELi0ELi4ELi4EEES7_Li0EEENS_9TransposeIS7_EELi1EEEEENS0_9assign_opIddEELi0EE11assignCoeffEii+0x90>)
 800370c:	4813      	ldr	r0, [pc, #76]	@ (800375c <_ZN5Eigen8internal31generic_dense_assignment_kernelINS0_9evaluatorINS_6MatrixIdLi4ELi4ELi1ELi4ELi4EEEEENS2_INS_7ProductINS6_INS3_IdLi4ELi4ELi0ELi4ELi4EEES7_Li0EEENS_9TransposeIS7_EELi1EEEEENS0_9assign_opIddEELi0EE11assignCoeffEii+0x94>)
 800370e:	f006 fb3f 	bl	8009d90 <__assert_func>
 8003712:	9a06      	ldr	r2, [sp, #24]
 8003714:	ed93 7b08 	vldr	d7, [r3, #32]
 8003718:	ed92 6b08 	vldr	d6, [r2, #32]
 800371c:	ed93 5b00 	vldr	d5, [r3]
 8003720:	ed93 4b10 	vldr	d4, [r3, #64]	@ 0x40
 8003724:	ee27 6b06 	vmul.f64	d6, d7, d6
 8003728:	ed92 7b00 	vldr	d7, [r2]
 800372c:	eea5 6b07 	vfma.f64	d6, d5, d7
 8003730:	ed92 5b18 	vldr	d5, [r2, #96]	@ 0x60
 8003734:	ed93 7b18 	vldr	d7, [r3, #96]	@ 0x60
 8003738:	ee27 7b05 	vmul.f64	d7, d7, d5
 800373c:	ed92 5b10 	vldr	d5, [r2, #64]	@ 0x40
 8003740:	eea4 7b05 	vfma.f64	d7, d4, d5
 8003744:	ee37 7b06 	vadd.f64	d7, d7, d6
 8003748:	ed87 7b00 	vstr	d7, [r7]
 800374c:	b00c      	add	sp, #48	@ 0x30
 800374e:	e8bd 81f0 	ldmia.w	sp!, {r4, r5, r6, r7, r8, pc}
 8003752:	bf00      	nop
 8003754:	0800bd26 	.word	0x0800bd26
 8003758:	0800c168 	.word	0x0800c168
 800375c:	0800beaa 	.word	0x0800beaa

08003760 <_ZN5Eigen8internal54copy_using_evaluator_LinearTraversal_CompleteUnrollingINS0_31generic_dense_assignment_kernelINS0_9evaluatorINS_6MatrixIdLi6ELi4ELi0ELi6ELi4EEEEENS3_INS_13CwiseBinaryOpINS0_17scalar_product_opIddEEKNS_14CwiseNullaryOpINS0_18scalar_constant_opIdEEKS5_EESD_EEEENS0_9assign_opIddEELi0EEELi13ELi24EE3runERSK_>:
 8003760:	b510      	push	{r4, lr}
 8003762:	4604      	mov	r4, r0
 8003764:	210d      	movs	r1, #13
 8003766:	f7ff f9e3 	bl	8002b30 <_ZN5Eigen8internal31generic_dense_assignment_kernelINS0_9evaluatorINS_6MatrixIdLi6ELi4ELi0ELi6ELi4EEEEENS2_INS_13CwiseBinaryOpINS0_17scalar_product_opIddEEKNS_14CwiseNullaryOpINS0_18scalar_constant_opIdEEKS4_EESC_EEEENS0_9assign_opIddEELi0EE11assignCoeffEi>
 800376a:	210e      	movs	r1, #14
 800376c:	4620      	mov	r0, r4
 800376e:	f7ff f9df 	bl	8002b30 <_ZN5Eigen8internal31generic_dense_assignment_kernelINS0_9evaluatorINS_6MatrixIdLi6ELi4ELi0ELi6ELi4EEEEENS2_INS_13CwiseBinaryOpINS0_17scalar_product_opIddEEKNS_14CwiseNullaryOpINS0_18scalar_constant_opIdEEKS4_EESC_EEEENS0_9assign_opIddEELi0EE11assignCoeffEi>
 8003772:	4620      	mov	r0, r4
 8003774:	210f      	movs	r1, #15
 8003776:	f7ff f9db 	bl	8002b30 <_ZN5Eigen8internal31generic_dense_assignment_kernelINS0_9evaluatorINS_6MatrixIdLi6ELi4ELi0ELi6ELi4EEEEENS2_INS_13CwiseBinaryOpINS0_17scalar_product_opIddEEKNS_14CwiseNullaryOpINS0_18scalar_constant_opIdEEKS4_EESC_EEEENS0_9assign_opIddEELi0EE11assignCoeffEi>
 800377a:	4620      	mov	r0, r4
 800377c:	2110      	movs	r1, #16
 800377e:	f7ff f9d7 	bl	8002b30 <_ZN5Eigen8internal31generic_dense_assignment_kernelINS0_9evaluatorINS_6MatrixIdLi6ELi4ELi0ELi6ELi4EEEEENS2_INS_13CwiseBinaryOpINS0_17scalar_product_opIddEEKNS_14CwiseNullaryOpINS0_18scalar_constant_opIdEEKS4_EESC_EEEENS0_9assign_opIddEELi0EE11assignCoeffEi>
 8003782:	4620      	mov	r0, r4
 8003784:	2111      	movs	r1, #17
 8003786:	f7ff f9d3 	bl	8002b30 <_ZN5Eigen8internal31generic_dense_assignment_kernelINS0_9evaluatorINS_6MatrixIdLi6ELi4ELi0ELi6ELi4EEEEENS2_INS_13CwiseBinaryOpINS0_17scalar_product_opIddEEKNS_14CwiseNullaryOpINS0_18scalar_constant_opIdEEKS4_EESC_EEEENS0_9assign_opIddEELi0EE11assignCoeffEi>
 800378a:	4620      	mov	r0, r4
 800378c:	2112      	movs	r1, #18
 800378e:	f7ff f9cf 	bl	8002b30 <_ZN5Eigen8internal31generic_dense_assignment_kernelINS0_9evaluatorINS_6MatrixIdLi6ELi4ELi0ELi6ELi4EEEEENS2_INS_13CwiseBinaryOpINS0_17scalar_product_opIddEEKNS_14CwiseNullaryOpINS0_18scalar_constant_opIdEEKS4_EESC_EEEENS0_9assign_opIddEELi0EE11assignCoeffEi>
 8003792:	4620      	mov	r0, r4
 8003794:	2113      	movs	r1, #19
 8003796:	f7ff f9cb 	bl	8002b30 <_ZN5Eigen8internal31generic_dense_assignment_kernelINS0_9evaluatorINS_6MatrixIdLi6ELi4ELi0ELi6ELi4EEEEENS2_INS_13CwiseBinaryOpINS0_17scalar_product_opIddEEKNS_14CwiseNullaryOpINS0_18scalar_constant_opIdEEKS4_EESC_EEEENS0_9assign_opIddEELi0EE11assignCoeffEi>
 800379a:	4620      	mov	r0, r4
 800379c:	2114      	movs	r1, #20
 800379e:	f7ff f9c7 	bl	8002b30 <_ZN5Eigen8internal31generic_dense_assignment_kernelINS0_9evaluatorINS_6MatrixIdLi6ELi4ELi0ELi6ELi4EEEEENS2_INS_13CwiseBinaryOpINS0_17scalar_product_opIddEEKNS_14CwiseNullaryOpINS0_18scalar_constant_opIdEEKS4_EESC_EEEENS0_9assign_opIddEELi0EE11assignCoeffEi>
 80037a2:	4620      	mov	r0, r4
 80037a4:	2115      	movs	r1, #21
 80037a6:	f7ff f9c3 	bl	8002b30 <_ZN5Eigen8internal31generic_dense_assignment_kernelINS0_9evaluatorINS_6MatrixIdLi6ELi4ELi0ELi6ELi4EEEEENS2_INS_13CwiseBinaryOpINS0_17scalar_product_opIddEEKNS_14CwiseNullaryOpINS0_18scalar_constant_opIdEEKS4_EESC_EEEENS0_9assign_opIddEELi0EE11assignCoeffEi>
 80037aa:	4620      	mov	r0, r4
 80037ac:	2116      	movs	r1, #22
 80037ae:	f7ff f9bf 	bl	8002b30 <_ZN5Eigen8internal31generic_dense_assignment_kernelINS0_9evaluatorINS_6MatrixIdLi6ELi4ELi0ELi6ELi4EEEEENS2_INS_13CwiseBinaryOpINS0_17scalar_product_opIddEEKNS_14CwiseNullaryOpINS0_18scalar_constant_opIdEEKS4_EESC_EEEENS0_9assign_opIddEELi0EE11assignCoeffEi>
 80037b2:	2117      	movs	r1, #23
 80037b4:	4620      	mov	r0, r4
 80037b6:	f7ff f9bb 	bl	8002b30 <_ZN5Eigen8internal31generic_dense_assignment_kernelINS0_9evaluatorINS_6MatrixIdLi6ELi4ELi0ELi6ELi4EEEEENS2_INS_13CwiseBinaryOpINS0_17scalar_product_opIddEEKNS_14CwiseNullaryOpINS0_18scalar_constant_opIdEEKS4_EESC_EEEENS0_9assign_opIddEELi0EE11assignCoeffEi>
 80037ba:	bd10      	pop	{r4, pc}

080037bc <_ZN5Eigen8internal54copy_using_evaluator_LinearTraversal_CompleteUnrollingINS0_31generic_dense_assignment_kernelINS0_9evaluatorINS_6MatrixIdLi6ELi4ELi0ELi6ELi4EEEEENS3_INS_13CwiseBinaryOpINS0_17scalar_product_opIddEEKNS_14CwiseNullaryOpINS0_18scalar_constant_opIdEEKS5_EESD_EEEENS0_9assign_opIddEELi0EEELi1ELi24EE3runERSK_>:
 80037bc:	b510      	push	{r4, lr}
 80037be:	4604      	mov	r4, r0
 80037c0:	2101      	movs	r1, #1
 80037c2:	f7ff f9b5 	bl	8002b30 <_ZN5Eigen8internal31generic_dense_assignment_kernelINS0_9evaluatorINS_6MatrixIdLi6ELi4ELi0ELi6ELi4EEEEENS2_INS_13CwiseBinaryOpINS0_17scalar_product_opIddEEKNS_14CwiseNullaryOpINS0_18scalar_constant_opIdEEKS4_EESC_EEEENS0_9assign_opIddEELi0EE11assignCoeffEi>
 80037c6:	2102      	movs	r1, #2
 80037c8:	4620      	mov	r0, r4
 80037ca:	f7ff f9b1 	bl	8002b30 <_ZN5Eigen8internal31generic_dense_assignment_kernelINS0_9evaluatorINS_6MatrixIdLi6ELi4ELi0ELi6ELi4EEEEENS2_INS_13CwiseBinaryOpINS0_17scalar_product_opIddEEKNS_14CwiseNullaryOpINS0_18scalar_constant_opIdEEKS4_EESC_EEEENS0_9assign_opIddEELi0EE11assignCoeffEi>
 80037ce:	4620      	mov	r0, r4
 80037d0:	2103      	movs	r1, #3
 80037d2:	f7ff f9ad 	bl	8002b30 <_ZN5Eigen8internal31generic_dense_assignment_kernelINS0_9evaluatorINS_6MatrixIdLi6ELi4ELi0ELi6ELi4EEEEENS2_INS_13CwiseBinaryOpINS0_17scalar_product_opIddEEKNS_14CwiseNullaryOpINS0_18scalar_constant_opIdEEKS4_EESC_EEEENS0_9assign_opIddEELi0EE11assignCoeffEi>
 80037d6:	4620      	mov	r0, r4
 80037d8:	2104      	movs	r1, #4
 80037da:	f7ff f9a9 	bl	8002b30 <_ZN5Eigen8internal31generic_dense_assignment_kernelINS0_9evaluatorINS_6MatrixIdLi6ELi4ELi0ELi6ELi4EEEEENS2_INS_13CwiseBinaryOpINS0_17scalar_product_opIddEEKNS_14CwiseNullaryOpINS0_18scalar_constant_opIdEEKS4_EESC_EEEENS0_9assign_opIddEELi0EE11assignCoeffEi>
 80037de:	4620      	mov	r0, r4
 80037e0:	2105      	movs	r1, #5
 80037e2:	f7ff f9a5 	bl	8002b30 <_ZN5Eigen8internal31generic_dense_assignment_kernelINS0_9evaluatorINS_6MatrixIdLi6ELi4ELi0ELi6ELi4EEEEENS2_INS_13CwiseBinaryOpINS0_17scalar_product_opIddEEKNS_14CwiseNullaryOpINS0_18scalar_constant_opIdEEKS4_EESC_EEEENS0_9assign_opIddEELi0EE11assignCoeffEi>
 80037e6:	4620      	mov	r0, r4
 80037e8:	2106      	movs	r1, #6
 80037ea:	f7ff f9a1 	bl	8002b30 <_ZN5Eigen8internal31generic_dense_assignment_kernelINS0_9evaluatorINS_6MatrixIdLi6ELi4ELi0ELi6ELi4EEEEENS2_INS_13CwiseBinaryOpINS0_17scalar_product_opIddEEKNS_14CwiseNullaryOpINS0_18scalar_constant_opIdEEKS4_EESC_EEEENS0_9assign_opIddEELi0EE11assignCoeffEi>
 80037ee:	4620      	mov	r0, r4
 80037f0:	2107      	movs	r1, #7
 80037f2:	f7ff f99d 	bl	8002b30 <_ZN5Eigen8internal31generic_dense_assignment_kernelINS0_9evaluatorINS_6MatrixIdLi6ELi4ELi0ELi6ELi4EEEEENS2_INS_13CwiseBinaryOpINS0_17scalar_product_opIddEEKNS_14CwiseNullaryOpINS0_18scalar_constant_opIdEEKS4_EESC_EEEENS0_9assign_opIddEELi0EE11assignCoeffEi>
 80037f6:	4620      	mov	r0, r4
 80037f8:	2108      	movs	r1, #8
 80037fa:	f7ff f999 	bl	8002b30 <_ZN5Eigen8internal31generic_dense_assignment_kernelINS0_9evaluatorINS_6MatrixIdLi6ELi4ELi0ELi6ELi4EEEEENS2_INS_13CwiseBinaryOpINS0_17scalar_product_opIddEEKNS_14CwiseNullaryOpINS0_18scalar_constant_opIdEEKS4_EESC_EEEENS0_9assign_opIddEELi0EE11assignCoeffEi>
 80037fe:	4620      	mov	r0, r4
 8003800:	2109      	movs	r1, #9
 8003802:	f7ff f995 	bl	8002b30 <_ZN5Eigen8internal31generic_dense_assignment_kernelINS0_9evaluatorINS_6MatrixIdLi6ELi4ELi0ELi6ELi4EEEEENS2_INS_13CwiseBinaryOpINS0_17scalar_product_opIddEEKNS_14CwiseNullaryOpINS0_18scalar_constant_opIdEEKS4_EESC_EEEENS0_9assign_opIddEELi0EE11assignCoeffEi>
 8003806:	4620      	mov	r0, r4
 8003808:	210a      	movs	r1, #10
 800380a:	f7ff f991 	bl	8002b30 <_ZN5Eigen8internal31generic_dense_assignment_kernelINS0_9evaluatorINS_6MatrixIdLi6ELi4ELi0ELi6ELi4EEEEENS2_INS_13CwiseBinaryOpINS0_17scalar_product_opIddEEKNS_14CwiseNullaryOpINS0_18scalar_constant_opIdEEKS4_EESC_EEEENS0_9assign_opIddEELi0EE11assignCoeffEi>
 800380e:	4620      	mov	r0, r4
 8003810:	210b      	movs	r1, #11
 8003812:	f7ff f98d 	bl	8002b30 <_ZN5Eigen8internal31generic_dense_assignment_kernelINS0_9evaluatorINS_6MatrixIdLi6ELi4ELi0ELi6ELi4EEEEENS2_INS_13CwiseBinaryOpINS0_17scalar_product_opIddEEKNS_14CwiseNullaryOpINS0_18scalar_constant_opIdEEKS4_EESC_EEEENS0_9assign_opIddEELi0EE11assignCoeffEi>
 8003816:	4620      	mov	r0, r4
 8003818:	210c      	movs	r1, #12
 800381a:	f7ff f989 	bl	8002b30 <_ZN5Eigen8internal31generic_dense_assignment_kernelINS0_9evaluatorINS_6MatrixIdLi6ELi4ELi0ELi6ELi4EEEEENS2_INS_13CwiseBinaryOpINS0_17scalar_product_opIddEEKNS_14CwiseNullaryOpINS0_18scalar_constant_opIdEEKS4_EESC_EEEENS0_9assign_opIddEELi0EE11assignCoeffEi>
 800381e:	4620      	mov	r0, r4
 8003820:	f7ff ff9e 	bl	8003760 <_ZN5Eigen8internal54copy_using_evaluator_LinearTraversal_CompleteUnrollingINS0_31generic_dense_assignment_kernelINS0_9evaluatorINS_6MatrixIdLi6ELi4ELi0ELi6ELi4EEEEENS3_INS_13CwiseBinaryOpINS0_17scalar_product_opIddEEKNS_14CwiseNullaryOpINS0_18scalar_constant_opIdEEKS5_EESD_EEEENS0_9assign_opIddEELi0EEELi13ELi24EE3runERSK_>
 8003824:	bd10      	pop	{r4, pc}
	...

08003828 <_ZN20ExtendedKalmanFilter33computeJacobianMeasurementModel_HERKN5Eigen6MatrixIdLi6ELi1ELi0ELi6ELi1EEE>:
 8003828:	e92d 41f0 	stmdb	sp!, {r4, r5, r6, r7, r8, lr}
 800382c:	4615      	mov	r5, r2
 800382e:	4604      	mov	r4, r0
 8003830:	460e      	mov	r6, r1
 8003832:	ed2d 8b10 	vpush	{d8-d15}
 8003836:	e9d2 2300 	ldrd	r2, r3, [r2]
 800383a:	b0cc      	sub	sp, #304	@ 0x130
 800383c:	e9cd 2338 	strd	r2, r3, [sp, #224]	@ 0xe0
 8003840:	e9d5 2302 	ldrd	r2, r3, [r5, #8]
 8003844:	a838      	add	r0, sp, #224	@ 0xe0
 8003846:	af44      	add	r7, sp, #272	@ 0x110
 8003848:	f10d 08c8 	add.w	r8, sp, #200	@ 0xc8
 800384c:	e9cd 233a 	strd	r2, r3, [sp, #232]	@ 0xe8
 8003850:	e9d5 2304 	ldrd	r2, r3, [r5, #16]
 8003854:	ed9f 8ba6 	vldr	d8, [pc, #664]	@ 8003af0 <_ZN20ExtendedKalmanFilter33computeJacobianMeasurementModel_HERKN5Eigen6MatrixIdLi6ELi1ELi0ELi6ELi1EEE+0x2c8>
 8003858:	e9cd 233c 	strd	r2, r3, [sp, #240]	@ 0xf0
 800385c:	f7ff f804 	bl	8002868 <_ZN5Eigen10MatrixBaseINS_6MatrixIdLi3ELi1ELi0ELi3ELi1EEEE9normalizeEv>
 8003860:	a83e      	add	r0, sp, #248	@ 0xf8
 8003862:	e9d5 2306 	ldrd	r2, r3, [r5, #24]
 8003866:	e9cd 233e 	strd	r2, r3, [sp, #248]	@ 0xf8
 800386a:	e9d5 2308 	ldrd	r2, r3, [r5, #32]
 800386e:	e9cd 2340 	strd	r2, r3, [sp, #256]	@ 0x100
 8003872:	e9d5 230a 	ldrd	r2, r3, [r5, #40]	@ 0x28
 8003876:	2500      	movs	r5, #0
 8003878:	e9cd 2342 	strd	r2, r3, [sp, #264]	@ 0x108
 800387c:	f7fe fff4 	bl	8002868 <_ZN5Eigen10MatrixBaseINS_6MatrixIdLi3ELi1ELi0ELi3ELi1EEEE9normalizeEv>
 8003880:	4620      	mov	r0, r4
 8003882:	f7fe ff1d 	bl	80026c0 <_ZN5Eigen8internal11plain_arrayIdLi24ELi0ELi16EEC1Ev>
 8003886:	22b8      	movs	r2, #184	@ 0xb8
 8003888:	2100      	movs	r1, #0
 800388a:	f104 0008 	add.w	r0, r4, #8
 800388e:	ed96 eb12 	vldr	d14, [r6, #72]	@ 0x48
 8003892:	ed96 ab0c 	vldr	d10, [r6, #48]	@ 0x30
 8003896:	ed96 9b0e 	vldr	d9, [r6, #56]	@ 0x38
 800389a:	ee2e bb08 	vmul.f64	d11, d14, d8
 800389e:	ed96 db10 	vldr	d13, [r6, #64]	@ 0x40
 80038a2:	f006 fc45 	bl	800a130 <memset>
 80038a6:	2301      	movs	r3, #1
 80038a8:	eeb0 4b4b 	vmov.f64	d4, d11
 80038ac:	a908      	add	r1, sp, #32
 80038ae:	ee2d cb08 	vmul.f64	d12, d13, d8
 80038b2:	4638      	mov	r0, r7
 80038b4:	9347      	str	r3, [sp, #284]	@ 0x11c
 80038b6:	ae30      	add	r6, sp, #192	@ 0xc0
 80038b8:	9444      	str	r4, [sp, #272]	@ 0x110
 80038ba:	eeaa 4b08 	vfma.f64	d4, d10, d8
 80038be:	eeb0 fb4c 	vmov.f64	d15, d12
 80038c2:	e9cd 5345 	strd	r5, r3, [sp, #276]	@ 0x114
 80038c6:	ee34 7b4d 	vsub.f64	d7, d4, d13
 80038ca:	ed8d 4b06 	vstr	d4, [sp, #24]
 80038ce:	ed84 7b00 	vstr	d7, [r4]
 80038d2:	eeb0 7b4c 	vmov.f64	d7, d12
 80038d6:	ee99 7b08 	vfnms.f64	d7, d9, d8
 80038da:	ee37 7b4e 	vsub.f64	d7, d7, d14
 80038de:	ed8d 7b08 	vstr	d7, [sp, #32]
 80038e2:	f7fe fde5 	bl	80024b0 <_ZN5Eigen16CommaInitializerINS_6MatrixIdLi6ELi4ELi0ELi6ELi4EEEEcmERKd>
 80038e6:	eea9 fb08 	vfma.f64	d15, d9, d8
 80038ea:	a90a      	add	r1, sp, #40	@ 0x28
 80038ec:	ee3f 7b0a 	vadd.f64	d7, d15, d10
 80038f0:	ed8d 7b0a 	vstr	d7, [sp, #40]	@ 0x28
 80038f4:	f7fe fddc 	bl	80024b0 <_ZN5Eigen16CommaInitializerINS_6MatrixIdLi6ELi4ELi0ELi6ELi4EEEEcmERKd>
 80038f8:	eeb0 7b4b 	vmov.f64	d7, d11
 80038fc:	a90c      	add	r1, sp, #48	@ 0x30
 80038fe:	eeaa 7b48 	vfms.f64	d7, d10, d8
 8003902:	ee37 5b09 	vadd.f64	d5, d7, d9
 8003906:	ed8d 7b00 	vstr	d7, [sp]
 800390a:	ed8d 5b0c 	vstr	d5, [sp, #48]	@ 0x30
 800390e:	f7fe fdcf 	bl	80024b0 <_ZN5Eigen16CommaInitializerINS_6MatrixIdLi6ELi4ELi0ELi6ELi4EEEEcmERKd>
 8003912:	eeb0 5b4b 	vmov.f64	d5, d11
 8003916:	a90e      	add	r1, sp, #56	@ 0x38
 8003918:	ee9a 5b08 	vfnms.f64	d5, d10, d8
 800391c:	ee35 3b09 	vadd.f64	d3, d5, d9
 8003920:	ed8d 5b04 	vstr	d5, [sp, #16]
 8003924:	ed8d 3b0e 	vstr	d3, [sp, #56]	@ 0x38
 8003928:	f7fe fdc2 	bl	80024b0 <_ZN5Eigen16CommaInitializerINS_6MatrixIdLi6ELi4ELi0ELi6ELi4EEEEcmERKd>
 800392c:	ee3f 3b4a 	vsub.f64	d3, d15, d10
 8003930:	a910      	add	r1, sp, #64	@ 0x40
 8003932:	ed8d 3b10 	vstr	d3, [sp, #64]	@ 0x40
 8003936:	f7fe fdbb 	bl	80024b0 <_ZN5Eigen16CommaInitializerINS_6MatrixIdLi6ELi4ELi0ELi6ELi4EEEEcmERKd>
 800393a:	a912      	add	r1, sp, #72	@ 0x48
 800393c:	ed9d 7b00 	vldr	d7, [sp]
 8003940:	ee37 7b4d 	vsub.f64	d7, d7, d13
 8003944:	ed8d 7b12 	vstr	d7, [sp, #72]	@ 0x48
 8003948:	f7fe fdb2 	bl	80024b0 <_ZN5Eigen16CommaInitializerINS_6MatrixIdLi6ELi4ELi0ELi6ELi4EEEEcmERKd>
 800394c:	ee3f 6b0e 	vadd.f64	d6, d15, d14
 8003950:	a914      	add	r1, sp, #80	@ 0x50
 8003952:	ed8d 6b14 	vstr	d6, [sp, #80]	@ 0x50
 8003956:	ed8d 6b00 	vstr	d6, [sp]
 800395a:	f7fe fda9 	bl	80024b0 <_ZN5Eigen16CommaInitializerINS_6MatrixIdLi6ELi4ELi0ELi6ELi4EEEEcmERKd>
 800395e:	eeb0 3b4c 	vmov.f64	d3, d12
 8003962:	eeb1 7b49 	vneg.f64	d7, d9
 8003966:	a916      	add	r1, sp, #88	@ 0x58
 8003968:	eea9 3b48 	vfms.f64	d3, d9, d8
 800396c:	ed8d 7b02 	vstr	d7, [sp, #8]
 8003970:	ee33 3b0a 	vadd.f64	d3, d3, d10
 8003974:	ed8d 3b16 	vstr	d3, [sp, #88]	@ 0x58
 8003978:	f7fe fd9a 	bl	80024b0 <_ZN5Eigen16CommaInitializerINS_6MatrixIdLi6ELi4ELi0ELi6ELi4EEEEcmERKd>
 800397c:	a918      	add	r1, sp, #96	@ 0x60
 800397e:	ed9d 4b06 	vldr	d4, [sp, #24]
 8003982:	ee34 4b49 	vsub.f64	d4, d4, d9
 8003986:	ed8d 4b18 	vstr	d4, [sp, #96]	@ 0x60
 800398a:	f7fe fd91 	bl	80024b0 <_ZN5Eigen16CommaInitializerINS_6MatrixIdLi6ELi4ELi0ELi6ELi4EEEEcmERKd>
 800398e:	a91a      	add	r1, sp, #104	@ 0x68
 8003990:	ed9d 5b04 	vldr	d5, [sp, #16]
 8003994:	ee35 5b4d 	vsub.f64	d5, d5, d13
 8003998:	ed8d 5b1a 	vstr	d5, [sp, #104]	@ 0x68
 800399c:	f7fe fd88 	bl	80024b0 <_ZN5Eigen16CommaInitializerINS_6MatrixIdLi6ELi4ELi0ELi6ELi4EEEEcmERKd>
 80039a0:	a91c      	add	r1, sp, #112	@ 0x70
 80039a2:	ed9d 6b00 	vldr	d6, [sp]
 80039a6:	ed8d 6b1c 	vstr	d6, [sp, #112]	@ 0x70
 80039aa:	f7fe fd81 	bl	80024b0 <_ZN5Eigen16CommaInitializerINS_6MatrixIdLi6ELi4ELi0ELi6ELi4EEEEcmERKd>
 80039ae:	eeb0 6b4e 	vmov.f64	d6, d14
 80039b2:	a91e      	add	r1, sp, #120	@ 0x78
 80039b4:	eeaa 6b08 	vfma.f64	d6, d10, d8
 80039b8:	ee36 6b4c 	vsub.f64	d6, d6, d12
 80039bc:	ed8d 6b1e 	vstr	d6, [sp, #120]	@ 0x78
 80039c0:	f7fe fd76 	bl	80024b0 <_ZN5Eigen16CommaInitializerINS_6MatrixIdLi6ELi4ELi0ELi6ELi4EEEEcmERKd>
 80039c4:	eeb0 6b4d 	vmov.f64	d6, d13
 80039c8:	a920      	add	r1, sp, #128	@ 0x80
 80039ca:	ee99 6b08 	vfnms.f64	d6, d9, d8
 80039ce:	ee36 6b4b 	vsub.f64	d6, d6, d11
 80039d2:	ed8d 6b20 	vstr	d6, [sp, #128]	@ 0x80
 80039d6:	f7fe fd6b 	bl	80024b0 <_ZN5Eigen16CommaInitializerINS_6MatrixIdLi6ELi4ELi0ELi6ELi4EEEEcmERKd>
 80039da:	ee3c 6b09 	vadd.f64	d6, d12, d9
 80039de:	a922      	add	r1, sp, #136	@ 0x88
 80039e0:	eeb0 5b46 	vmov.f64	d5, d6
 80039e4:	ed8d 6b00 	vstr	d6, [sp]
 80039e8:	eeaa 5b08 	vfma.f64	d5, d10, d8
 80039ec:	ed8d 5b22 	vstr	d5, [sp, #136]	@ 0x88
 80039f0:	f7fe fd5e 	bl	80024b0 <_ZN5Eigen16CommaInitializerINS_6MatrixIdLi6ELi4ELi0ELi6ELi4EEEEcmERKd>
 80039f4:	ee3b 5b4a 	vsub.f64	d5, d11, d10
 80039f8:	a924      	add	r1, sp, #144	@ 0x90
 80039fa:	eea9 5b08 	vfma.f64	d5, d9, d8
 80039fe:	ed8d 5b24 	vstr	d5, [sp, #144]	@ 0x90
 8003a02:	f7fe fd55 	bl	80024b0 <_ZN5Eigen16CommaInitializerINS_6MatrixIdLi6ELi4ELi0ELi6ELi4EEEEcmERKd>
 8003a06:	ee3a 5b4b 	vsub.f64	d5, d10, d11
 8003a0a:	a926      	add	r1, sp, #152	@ 0x98
 8003a0c:	eea9 5b08 	vfma.f64	d5, d9, d8
 8003a10:	ed8d 5b26 	vstr	d5, [sp, #152]	@ 0x98
 8003a14:	f7fe fd4c 	bl	80024b0 <_ZN5Eigen16CommaInitializerINS_6MatrixIdLi6ELi4ELi0ELi6ELi4EEEEcmERKd>
 8003a18:	eeb1 7b4a 	vneg.f64	d7, d10
 8003a1c:	a928      	add	r1, sp, #160	@ 0xa0
 8003a1e:	ed9d 6b00 	vldr	d6, [sp]
 8003a22:	eea7 6b08 	vfma.f64	d6, d7, d8
 8003a26:	ed8d 6b28 	vstr	d6, [sp, #160]	@ 0xa0
 8003a2a:	f7fe fd41 	bl	80024b0 <_ZN5Eigen16CommaInitializerINS_6MatrixIdLi6ELi4ELi0ELi6ELi4EEEEcmERKd>
 8003a2e:	eeb1 7b4a 	vneg.f64	d7, d10
 8003a32:	eeb0 6b4e 	vmov.f64	d6, d14
 8003a36:	a92a      	add	r1, sp, #168	@ 0xa8
 8003a38:	eea7 6b08 	vfma.f64	d6, d7, d8
 8003a3c:	ee36 6b4c 	vsub.f64	d6, d6, d12
 8003a40:	ed8d 6b2a 	vstr	d6, [sp, #168]	@ 0xa8
 8003a44:	f7fe fd34 	bl	80024b0 <_ZN5Eigen16CommaInitializerINS_6MatrixIdLi6ELi4ELi0ELi6ELi4EEEEcmERKd>
 8003a48:	eea9 db08 	vfma.f64	d13, d9, d8
 8003a4c:	a92c      	add	r1, sp, #176	@ 0xb0
 8003a4e:	ee3b db0d 	vadd.f64	d13, d11, d13
 8003a52:	ed8d db2c 	vstr	d13, [sp, #176]	@ 0xb0
 8003a56:	f7fe fd2b 	bl	80024b0 <_ZN5Eigen16CommaInitializerINS_6MatrixIdLi6ELi4ELi0ELi6ELi4EEEEcmERKd>
 8003a5a:	ee3c 9b49 	vsub.f64	d9, d12, d9
 8003a5e:	a92e      	add	r1, sp, #184	@ 0xb8
 8003a60:	eeaa 9b08 	vfma.f64	d9, d10, d8
 8003a64:	ed8d 9b2e 	vstr	d9, [sp, #184]	@ 0xb8
 8003a68:	f7fe fd22 	bl	80024b0 <_ZN5Eigen16CommaInitializerINS_6MatrixIdLi6ELi4ELi0ELi6ELi4EEEEcmERKd>
 8003a6c:	ee3b bb0a 	vadd.f64	d11, d11, d10
 8003a70:	4631      	mov	r1, r6
 8003a72:	ed9d 7b02 	vldr	d7, [sp, #8]
 8003a76:	eea7 bb08 	vfma.f64	d11, d7, d8
 8003a7a:	ed8d bb30 	vstr	d11, [sp, #192]	@ 0xc0
 8003a7e:	f7fe fd17 	bl	80024b0 <_ZN5Eigen16CommaInitializerINS_6MatrixIdLi6ELi4ELi0ELi6ELi4EEEEcmERKd>
 8003a82:	ee9a eb08 	vfnms.f64	d14, d10, d8
 8003a86:	4641      	mov	r1, r8
 8003a88:	ee3e eb4c 	vsub.f64	d14, d14, d12
 8003a8c:	ed8d eb32 	vstr	d14, [sp, #200]	@ 0xc8
 8003a90:	f7fe fd0e 	bl	80024b0 <_ZN5Eigen16CommaInitializerINS_6MatrixIdLi6ELi4ELi0ELi6ELi4EEEEcmERKd>
 8003a94:	a934      	add	r1, sp, #208	@ 0xd0
 8003a96:	ed8d db34 	vstr	d13, [sp, #208]	@ 0xd0
 8003a9a:	f7fe fd09 	bl	80024b0 <_ZN5Eigen16CommaInitializerINS_6MatrixIdLi6ELi4ELi0ELi6ELi4EEEEcmERKd>
 8003a9e:	9b45      	ldr	r3, [sp, #276]	@ 0x114
 8003aa0:	9a47      	ldr	r2, [sp, #284]	@ 0x11c
 8003aa2:	4413      	add	r3, r2
 8003aa4:	2b06      	cmp	r3, #6
 8003aa6:	d102      	bne.n	8003aae <_ZN20ExtendedKalmanFilter33computeJacobianMeasurementModel_HERKN5Eigen6MatrixIdLi6ELi1ELi0ELi6ELi1EEE+0x286>
 8003aa8:	9b46      	ldr	r3, [sp, #280]	@ 0x118
 8003aaa:	2b04      	cmp	r3, #4
 8003aac:	d005      	beq.n	8003aba <_ZN20ExtendedKalmanFilter33computeJacobianMeasurementModel_HERKN5Eigen6MatrixIdLi6ELi1ELi0ELi6ELi1EEE+0x292>
 8003aae:	4b12      	ldr	r3, [pc, #72]	@ (8003af8 <_ZN20ExtendedKalmanFilter33computeJacobianMeasurementModel_HERKN5Eigen6MatrixIdLi6ELi1ELi0ELi6ELi1EEE+0x2d0>)
 8003ab0:	217a      	movs	r1, #122	@ 0x7a
 8003ab2:	4a12      	ldr	r2, [pc, #72]	@ (8003afc <_ZN20ExtendedKalmanFilter33computeJacobianMeasurementModel_HERKN5Eigen6MatrixIdLi6ELi1ELi0ELi6ELi1EEE+0x2d4>)
 8003ab4:	4812      	ldr	r0, [pc, #72]	@ (8003b00 <_ZN20ExtendedKalmanFilter33computeJacobianMeasurementModel_HERKN5Eigen6MatrixIdLi6ELi1ELi0ELi6ELi1EEE+0x2d8>)
 8003ab6:	f006 f96b 	bl	8009d90 <__assert_func>
 8003aba:	2200      	movs	r2, #0
 8003abc:	f04f 4380 	mov.w	r3, #1073741824	@ 0x40000000
 8003ac0:	4629      	mov	r1, r5
 8003ac2:	a834      	add	r0, sp, #208	@ 0xd0
 8003ac4:	944a      	str	r4, [sp, #296]	@ 0x128
 8003ac6:	9432      	str	r4, [sp, #200]	@ 0xc8
 8003ac8:	e9cd 2346 	strd	r2, r3, [sp, #280]	@ 0x118
 8003acc:	e9cd 8734 	strd	r8, r7, [sp, #208]	@ 0xd0
 8003ad0:	e9cd 6436 	strd	r6, r4, [sp, #216]	@ 0xd8
 8003ad4:	f7ff f82c 	bl	8002b30 <_ZN5Eigen8internal31generic_dense_assignment_kernelINS0_9evaluatorINS_6MatrixIdLi6ELi4ELi0ELi6ELi4EEEEENS2_INS_13CwiseBinaryOpINS0_17scalar_product_opIddEEKNS_14CwiseNullaryOpINS0_18scalar_constant_opIdEEKS4_EESC_EEEENS0_9assign_opIddEELi0EE11assignCoeffEi>
 8003ad8:	a834      	add	r0, sp, #208	@ 0xd0
 8003ada:	f7ff fe6f 	bl	80037bc <_ZN5Eigen8internal54copy_using_evaluator_LinearTraversal_CompleteUnrollingINS0_31generic_dense_assignment_kernelINS0_9evaluatorINS_6MatrixIdLi6ELi4ELi0ELi6ELi4EEEEENS3_INS_13CwiseBinaryOpINS0_17scalar_product_opIddEEKNS_14CwiseNullaryOpINS0_18scalar_constant_opIdEEKS5_EESD_EEEENS0_9assign_opIddEELi0EEELi1ELi24EE3runERSK_>
 8003ade:	4620      	mov	r0, r4
 8003ae0:	b04c      	add	sp, #304	@ 0x130
 8003ae2:	ecbd 8b10 	vpop	{d8-d15}
 8003ae6:	e8bd 81f0 	ldmia.w	sp!, {r4, r5, r6, r7, r8, pc}
 8003aea:	bf00      	nop
 8003aec:	f3af 8000 	nop.w
	...
 8003af8:	0800bc22 	.word	0x0800bc22
 8003afc:	0800c258 	.word	0x0800c258
 8003b00:	0800b6c8 	.word	0x0800b6c8

08003b04 <_ZN5Eigen5BlockIKNS_6MatrixIdLi6ELi4ELi0ELi6ELi4EEELi1ELi4ELb0EEC1ERS3_i>:
 8003b04:	b510      	push	{r4, lr}
 8003b06:	eb01 04c2 	add.w	r4, r1, r2, lsl #3
 8003b0a:	2a05      	cmp	r2, #5
 8003b0c:	6004      	str	r4, [r0, #0]
 8003b0e:	f04f 0400 	mov.w	r4, #0
 8003b12:	e9c0 1202 	strd	r1, r2, [r0, #8]
 8003b16:	f04f 0101 	mov.w	r1, #1
 8003b1a:	e9c0 4104 	strd	r4, r1, [r0, #16]
 8003b1e:	d905      	bls.n	8003b2c <_ZN5Eigen5BlockIKNS_6MatrixIdLi6ELi4ELi0ELi6ELi4EEELi1ELi4ELb0EEC1ERS3_i+0x28>
 8003b20:	4b03      	ldr	r3, [pc, #12]	@ (8003b30 <_ZN5Eigen5BlockIKNS_6MatrixIdLi6ELi4ELi0ELi6ELi4EEELi1ELi4ELb0EEC1ERS3_i+0x2c>)
 8003b22:	2178      	movs	r1, #120	@ 0x78
 8003b24:	4a03      	ldr	r2, [pc, #12]	@ (8003b34 <_ZN5Eigen5BlockIKNS_6MatrixIdLi6ELi4ELi0ELi6ELi4EEELi1ELi4ELb0EEC1ERS3_i+0x30>)
 8003b26:	4804      	ldr	r0, [pc, #16]	@ (8003b38 <_ZN5Eigen5BlockIKNS_6MatrixIdLi6ELi4ELi0ELi6ELi4EEELi1ELi4ELb0EEC1ERS3_i+0x34>)
 8003b28:	f006 f932 	bl	8009d90 <__assert_func>
 8003b2c:	bd10      	pop	{r4, pc}
 8003b2e:	bf00      	nop
 8003b30:	0800bd26 	.word	0x0800bd26
 8003b34:	0800c2be 	.word	0x0800c2be
 8003b38:	0800beaa 	.word	0x0800beaa

08003b3c <_ZN5Eigen5BlockIKNS_9TransposeINS_6MatrixIdLi6ELi4ELi0ELi6ELi4EEEEELi4ELi1ELb0EEC1ERS5_i>:
 8003b3c:	b510      	push	{r4, lr}
 8003b3e:	680c      	ldr	r4, [r1, #0]
 8003b40:	2a05      	cmp	r2, #5
 8003b42:	6809      	ldr	r1, [r1, #0]
 8003b44:	eb04 04c2 	add.w	r4, r4, r2, lsl #3
 8003b48:	6081      	str	r1, [r0, #8]
 8003b4a:	f04f 0100 	mov.w	r1, #0
 8003b4e:	6004      	str	r4, [r0, #0]
 8003b50:	e9c0 1203 	strd	r1, r2, [r0, #12]
 8003b54:	f04f 0101 	mov.w	r1, #1
 8003b58:	6141      	str	r1, [r0, #20]
 8003b5a:	d905      	bls.n	8003b68 <_ZN5Eigen5BlockIKNS_9TransposeINS_6MatrixIdLi6ELi4ELi0ELi6ELi4EEEEELi4ELi1ELb0EEC1ERS5_i+0x2c>
 8003b5c:	4b03      	ldr	r3, [pc, #12]	@ (8003b6c <_ZN5Eigen5BlockIKNS_9TransposeINS_6MatrixIdLi6ELi4ELi0ELi6ELi4EEEEELi4ELi1ELb0EEC1ERS5_i+0x30>)
 8003b5e:	2178      	movs	r1, #120	@ 0x78
 8003b60:	4a03      	ldr	r2, [pc, #12]	@ (8003b70 <_ZN5Eigen5BlockIKNS_9TransposeINS_6MatrixIdLi6ELi4ELi0ELi6ELi4EEEEELi4ELi1ELb0EEC1ERS5_i+0x34>)
 8003b62:	4804      	ldr	r0, [pc, #16]	@ (8003b74 <_ZN5Eigen5BlockIKNS_9TransposeINS_6MatrixIdLi6ELi4ELi0ELi6ELi4EEEEELi4ELi1ELb0EEC1ERS5_i+0x38>)
 8003b64:	f006 f914 	bl	8009d90 <__assert_func>
 8003b68:	bd10      	pop	{r4, pc}
 8003b6a:	bf00      	nop
 8003b6c:	0800bd26 	.word	0x0800bd26
 8003b70:	0800c39b 	.word	0x0800c39b
 8003b74:	0800beaa 	.word	0x0800beaa

08003b78 <_ZN5Eigen8internal31generic_dense_assignment_kernelINS0_9evaluatorINS_6MatrixIdLi6ELi6ELi1ELi6ELi6EEEEENS2_INS_7ProductINS6_INS3_IdLi6ELi4ELi0ELi6ELi4EEENS3_IdLi4ELi4ELi0ELi4ELi4EEELi0EEENS_9TransposeIS7_EELi1EEEEENS0_9assign_opIddEELi0EE11assignCoeffEii>:
 8003b78:	e92d 41f0 	stmdb	sp!, {r4, r5, r6, r7, r8, lr}
 8003b7c:	2306      	movs	r3, #6
 8003b7e:	b092      	sub	sp, #72	@ 0x48
 8003b80:	4616      	mov	r6, r2
 8003b82:	6802      	ldr	r2, [r0, #0]
 8003b84:	f8d0 8004 	ldr.w	r8, [r0, #4]
 8003b88:	ac06      	add	r4, sp, #24
 8003b8a:	fb03 6301 	mla	r3, r3, r1, r6
 8003b8e:	6817      	ldr	r7, [r2, #0]
 8003b90:	a806      	add	r0, sp, #24
 8003b92:	460a      	mov	r2, r1
 8003b94:	4641      	mov	r1, r8
 8003b96:	eb07 07c3 	add.w	r7, r7, r3, lsl #3
 8003b9a:	ad0c      	add	r5, sp, #48	@ 0x30
 8003b9c:	f7ff ffb2 	bl	8003b04 <_ZN5Eigen5BlockIKNS_6MatrixIdLi6ELi4ELi0ELi6ELi4EEELi1ELi4ELb0EEC1ERS3_i>
 8003ba0:	cc0f      	ldmia	r4!, {r0, r1, r2, r3}
 8003ba2:	c50f      	stmia	r5!, {r0, r1, r2, r3}
 8003ba4:	e894 0003 	ldmia.w	r4, {r0, r1}
 8003ba8:	4632      	mov	r2, r6
 8003baa:	e885 0003 	stmia.w	r5, {r0, r1}
 8003bae:	f108 01c0 	add.w	r1, r8, #192	@ 0xc0
 8003bb2:	4668      	mov	r0, sp
 8003bb4:	f7ff ffc2 	bl	8003b3c <_ZN5Eigen5BlockIKNS_9TransposeINS_6MatrixIdLi6ELi4ELi0ELi6ELi4EEEEELi4ELi1ELb0EEC1ERS5_i>
 8003bb8:	9b0c      	ldr	r3, [sp, #48]	@ 0x30
 8003bba:	9a00      	ldr	r2, [sp, #0]
 8003bbc:	ed93 6b0c 	vldr	d6, [r3, #48]	@ 0x30
 8003bc0:	ed92 7b0c 	vldr	d7, [r2, #48]	@ 0x30
 8003bc4:	ed92 5b00 	vldr	d5, [r2]
 8003bc8:	ed92 4b18 	vldr	d4, [r2, #96]	@ 0x60
 8003bcc:	ee27 6b06 	vmul.f64	d6, d7, d6
 8003bd0:	ed93 7b00 	vldr	d7, [r3]
 8003bd4:	eea5 6b07 	vfma.f64	d6, d5, d7
 8003bd8:	ed93 5b24 	vldr	d5, [r3, #144]	@ 0x90
 8003bdc:	ed92 7b24 	vldr	d7, [r2, #144]	@ 0x90
 8003be0:	ee27 7b05 	vmul.f64	d7, d7, d5
 8003be4:	ed93 5b18 	vldr	d5, [r3, #96]	@ 0x60
 8003be8:	eea4 7b05 	vfma.f64	d7, d4, d5
 8003bec:	ee37 7b06 	vadd.f64	d7, d7, d6
 8003bf0:	ed87 7b00 	vstr	d7, [r7]
 8003bf4:	b012      	add	sp, #72	@ 0x48
 8003bf6:	e8bd 81f0 	ldmia.w	sp!, {r4, r5, r6, r7, r8, pc}

08003bfa <_ZN5Eigen8internal21dense_assignment_loopINS0_31generic_dense_assignment_kernelINS0_9evaluatorINS_6MatrixIdLi6ELi6ELi1ELi6ELi6EEEEENS3_INS_7ProductINS7_INS4_IdLi6ELi4ELi0ELi6ELi4EEENS4_IdLi4ELi4ELi0ELi4ELi4EEELi0EEENS_9TransposeIS8_EELi1EEEEENS0_9assign_opIddEELi0EEELi0ELi1EE3runERSH_>:
 8003bfa:	b538      	push	{r3, r4, r5, lr}
 8003bfc:	4605      	mov	r5, r0
 8003bfe:	2400      	movs	r4, #0
 8003c00:	4621      	mov	r1, r4
 8003c02:	2200      	movs	r2, #0
 8003c04:	4628      	mov	r0, r5
 8003c06:	f7ff ffb7 	bl	8003b78 <_ZN5Eigen8internal31generic_dense_assignment_kernelINS0_9evaluatorINS_6MatrixIdLi6ELi6ELi1ELi6ELi6EEEEENS2_INS_7ProductINS6_INS3_IdLi6ELi4ELi0ELi6ELi4EEENS3_IdLi4ELi4ELi0ELi4ELi4EEELi0EEENS_9TransposeIS7_EELi1EEEEENS0_9assign_opIddEELi0EE11assignCoeffEii>
 8003c0a:	4621      	mov	r1, r4
 8003c0c:	2201      	movs	r2, #1
 8003c0e:	4628      	mov	r0, r5
 8003c10:	f7ff ffb2 	bl	8003b78 <_ZN5Eigen8internal31generic_dense_assignment_kernelINS0_9evaluatorINS_6MatrixIdLi6ELi6ELi1ELi6ELi6EEEEENS2_INS_7ProductINS6_INS3_IdLi6ELi4ELi0ELi6ELi4EEENS3_IdLi4ELi4ELi0ELi4ELi4EEELi0EEENS_9TransposeIS7_EELi1EEEEENS0_9assign_opIddEELi0EE11assignCoeffEii>
 8003c14:	4621      	mov	r1, r4
 8003c16:	2202      	movs	r2, #2
 8003c18:	4628      	mov	r0, r5
 8003c1a:	f7ff ffad 	bl	8003b78 <_ZN5Eigen8internal31generic_dense_assignment_kernelINS0_9evaluatorINS_6MatrixIdLi6ELi6ELi1ELi6ELi6EEEEENS2_INS_7ProductINS6_INS3_IdLi6ELi4ELi0ELi6ELi4EEENS3_IdLi4ELi4ELi0ELi4ELi4EEELi0EEENS_9TransposeIS7_EELi1EEEEENS0_9assign_opIddEELi0EE11assignCoeffEii>
 8003c1e:	4621      	mov	r1, r4
 8003c20:	2203      	movs	r2, #3
 8003c22:	4628      	mov	r0, r5
 8003c24:	f7ff ffa8 	bl	8003b78 <_ZN5Eigen8internal31generic_dense_assignment_kernelINS0_9evaluatorINS_6MatrixIdLi6ELi6ELi1ELi6ELi6EEEEENS2_INS_7ProductINS6_INS3_IdLi6ELi4ELi0ELi6ELi4EEENS3_IdLi4ELi4ELi0ELi4ELi4EEELi0EEENS_9TransposeIS7_EELi1EEEEENS0_9assign_opIddEELi0EE11assignCoeffEii>
 8003c28:	4621      	mov	r1, r4
 8003c2a:	2204      	movs	r2, #4
 8003c2c:	4628      	mov	r0, r5
 8003c2e:	f7ff ffa3 	bl	8003b78 <_ZN5Eigen8internal31generic_dense_assignment_kernelINS0_9evaluatorINS_6MatrixIdLi6ELi6ELi1ELi6ELi6EEEEENS2_INS_7ProductINS6_INS3_IdLi6ELi4ELi0ELi6ELi4EEENS3_IdLi4ELi4ELi0ELi4ELi4EEELi0EEENS_9TransposeIS7_EELi1EEEEENS0_9assign_opIddEELi0EE11assignCoeffEii>
 8003c32:	4621      	mov	r1, r4
 8003c34:	3401      	adds	r4, #1
 8003c36:	2205      	movs	r2, #5
 8003c38:	4628      	mov	r0, r5
 8003c3a:	f7ff ff9d 	bl	8003b78 <_ZN5Eigen8internal31generic_dense_assignment_kernelINS0_9evaluatorINS_6MatrixIdLi6ELi6ELi1ELi6ELi6EEEEENS2_INS_7ProductINS6_INS3_IdLi6ELi4ELi0ELi6ELi4EEENS3_IdLi4ELi4ELi0ELi4ELi4EEELi0EEENS_9TransposeIS7_EELi1EEEEENS0_9assign_opIddEELi0EE11assignCoeffEii>
 8003c3e:	2c06      	cmp	r4, #6
 8003c40:	d1de      	bne.n	8003c00 <_ZN5Eigen8internal21dense_assignment_loopINS0_31generic_dense_assignment_kernelINS0_9evaluatorINS_6MatrixIdLi6ELi6ELi1ELi6ELi6EEEEENS3_INS_7ProductINS7_INS4_IdLi6ELi4ELi0ELi6ELi4EEENS4_IdLi4ELi4ELi0ELi4ELi4EEELi0EEENS_9TransposeIS8_EELi1EEEEENS0_9assign_opIddEELi0EEELi0ELi1EE3runERSH_+0x6>
 8003c42:	bd38      	pop	{r3, r4, r5, pc}

08003c44 <_ZN5Eigen8internal31generic_dense_assignment_kernelINS0_9evaluatorINS_6MatrixIdLi4ELi6ELi0ELi4ELi6EEEEENS2_INS_7ProductINS3_IdLi4ELi4ELi0ELi4ELi4EEENS_9TransposeINS3_IdLi6ELi4ELi0ELi6ELi4EEEEELi1EEEEENS0_9assign_opIddEELi0EE11assignCoeffEii>:
 8003c44:	e92d 41f0 	stmdb	sp!, {r4, r5, r6, r7, r8, lr}
 8003c48:	4616      	mov	r6, r2
 8003c4a:	b092      	sub	sp, #72	@ 0x48
 8003c4c:	6802      	ldr	r2, [r0, #0]
 8003c4e:	f8d0 8004 	ldr.w	r8, [r0, #4]
 8003c52:	eb01 0386 	add.w	r3, r1, r6, lsl #2
 8003c56:	6817      	ldr	r7, [r2, #0]
 8003c58:	ac06      	add	r4, sp, #24
 8003c5a:	460a      	mov	r2, r1
 8003c5c:	a806      	add	r0, sp, #24
 8003c5e:	f858 1b04 	ldr.w	r1, [r8], #4
 8003c62:	eb07 07c3 	add.w	r7, r7, r3, lsl #3
 8003c66:	ad0c      	add	r5, sp, #48	@ 0x30
 8003c68:	f7ff fa96 	bl	8003198 <_ZN5Eigen5BlockIKNS_6MatrixIdLi4ELi4ELi0ELi4ELi4EEELi1ELi4ELb0EEC1ERS3_i>
 8003c6c:	cc0f      	ldmia	r4!, {r0, r1, r2, r3}
 8003c6e:	c50f      	stmia	r5!, {r0, r1, r2, r3}
 8003c70:	e894 0003 	ldmia.w	r4, {r0, r1}
 8003c74:	4632      	mov	r2, r6
 8003c76:	e885 0003 	stmia.w	r5, {r0, r1}
 8003c7a:	4641      	mov	r1, r8
 8003c7c:	4668      	mov	r0, sp
 8003c7e:	f7ff ff5d 	bl	8003b3c <_ZN5Eigen5BlockIKNS_9TransposeINS_6MatrixIdLi6ELi4ELi0ELi6ELi4EEEEELi4ELi1ELb0EEC1ERS5_i>
 8003c82:	9b0c      	ldr	r3, [sp, #48]	@ 0x30
 8003c84:	9a00      	ldr	r2, [sp, #0]
 8003c86:	ed93 6b08 	vldr	d6, [r3, #32]
 8003c8a:	ed92 7b0c 	vldr	d7, [r2, #48]	@ 0x30
 8003c8e:	ed92 5b00 	vldr	d5, [r2]
 8003c92:	ed92 4b18 	vldr	d4, [r2, #96]	@ 0x60
 8003c96:	ee27 6b06 	vmul.f64	d6, d7, d6
 8003c9a:	ed93 7b00 	vldr	d7, [r3]
 8003c9e:	eea5 6b07 	vfma.f64	d6, d5, d7
 8003ca2:	ed93 5b18 	vldr	d5, [r3, #96]	@ 0x60
 8003ca6:	ed92 7b24 	vldr	d7, [r2, #144]	@ 0x90
 8003caa:	ee27 7b05 	vmul.f64	d7, d7, d5
 8003cae:	ed93 5b10 	vldr	d5, [r3, #64]	@ 0x40
 8003cb2:	eea4 7b05 	vfma.f64	d7, d4, d5
 8003cb6:	ee37 7b06 	vadd.f64	d7, d7, d6
 8003cba:	ed87 7b00 	vstr	d7, [r7]
 8003cbe:	b012      	add	sp, #72	@ 0x48
 8003cc0:	e8bd 81f0 	ldmia.w	sp!, {r4, r5, r6, r7, r8, pc}

08003cc4 <_ZN5Eigen6MatrixIdLi4ELi6ELi0ELi4ELi6EEC1INS_7ProductINS0_IdLi4ELi4ELi0ELi4ELi4EEENS_9TransposeINS0_IdLi6ELi4ELi0ELi6ELi4EEEEELi0EEEEERKT_>:
 8003cc4:	b530      	push	{r4, r5, lr}
 8003cc6:	460c      	mov	r4, r1
 8003cc8:	b08f      	sub	sp, #60	@ 0x3c
 8003cca:	4605      	mov	r5, r0
 8003ccc:	f7fe fcf8 	bl	80026c0 <_ZN5Eigen8internal11plain_arrayIdLi24ELi0ELi16EEC1Ev>
 8003cd0:	e9d4 2300 	ldrd	r2, r3, [r4]
 8003cd4:	2400      	movs	r4, #0
 8003cd6:	9502      	str	r5, [sp, #8]
 8003cd8:	e9cd 2309 	strd	r2, r3, [sp, #36]	@ 0x24
 8003cdc:	e9cd 230b 	strd	r2, r3, [sp, #44]	@ 0x2c
 8003ce0:	2304      	movs	r3, #4
 8003ce2:	930d      	str	r3, [sp, #52]	@ 0x34
 8003ce4:	ab02      	add	r3, sp, #8
 8003ce6:	9305      	str	r3, [sp, #20]
 8003ce8:	ab09      	add	r3, sp, #36	@ 0x24
 8003cea:	9306      	str	r3, [sp, #24]
 8003cec:	ab01      	add	r3, sp, #4
 8003cee:	e9cd 3507 	strd	r3, r5, [sp, #28]
 8003cf2:	4622      	mov	r2, r4
 8003cf4:	2100      	movs	r1, #0
 8003cf6:	a805      	add	r0, sp, #20
 8003cf8:	f7ff ffa4 	bl	8003c44 <_ZN5Eigen8internal31generic_dense_assignment_kernelINS0_9evaluatorINS_6MatrixIdLi4ELi6ELi0ELi4ELi6EEEEENS2_INS_7ProductINS3_IdLi4ELi4ELi0ELi4ELi4EEENS_9TransposeINS3_IdLi6ELi4ELi0ELi6ELi4EEEEELi1EEEEENS0_9assign_opIddEELi0EE11assignCoeffEii>
 8003cfc:	4622      	mov	r2, r4
 8003cfe:	2101      	movs	r1, #1
 8003d00:	a805      	add	r0, sp, #20
 8003d02:	f7ff ff9f 	bl	8003c44 <_ZN5Eigen8internal31generic_dense_assignment_kernelINS0_9evaluatorINS_6MatrixIdLi4ELi6ELi0ELi4ELi6EEEEENS2_INS_7ProductINS3_IdLi4ELi4ELi0ELi4ELi4EEENS_9TransposeINS3_IdLi6ELi4ELi0ELi6ELi4EEEEELi1EEEEENS0_9assign_opIddEELi0EE11assignCoeffEii>
 8003d06:	4622      	mov	r2, r4
 8003d08:	2102      	movs	r1, #2
 8003d0a:	a805      	add	r0, sp, #20
 8003d0c:	f7ff ff9a 	bl	8003c44 <_ZN5Eigen8internal31generic_dense_assignment_kernelINS0_9evaluatorINS_6MatrixIdLi4ELi6ELi0ELi4ELi6EEEEENS2_INS_7ProductINS3_IdLi4ELi4ELi0ELi4ELi4EEENS_9TransposeINS3_IdLi6ELi4ELi0ELi6ELi4EEEEELi1EEEEENS0_9assign_opIddEELi0EE11assignCoeffEii>
 8003d10:	4622      	mov	r2, r4
 8003d12:	3401      	adds	r4, #1
 8003d14:	2103      	movs	r1, #3
 8003d16:	a805      	add	r0, sp, #20
 8003d18:	f7ff ff94 	bl	8003c44 <_ZN5Eigen8internal31generic_dense_assignment_kernelINS0_9evaluatorINS_6MatrixIdLi4ELi6ELi0ELi4ELi6EEEEENS2_INS_7ProductINS3_IdLi4ELi4ELi0ELi4ELi4EEENS_9TransposeINS3_IdLi6ELi4ELi0ELi6ELi4EEEEELi1EEEEENS0_9assign_opIddEELi0EE11assignCoeffEii>
 8003d1c:	2c06      	cmp	r4, #6
 8003d1e:	d1e8      	bne.n	8003cf2 <_ZN5Eigen6MatrixIdLi4ELi6ELi0ELi4ELi6EEC1INS_7ProductINS0_IdLi4ELi4ELi0ELi4ELi4EEENS_9TransposeINS0_IdLi6ELi4ELi0ELi6ELi4EEEEELi0EEEEERKT_+0x2e>
 8003d20:	4628      	mov	r0, r5
 8003d22:	b00f      	add	sp, #60	@ 0x3c
 8003d24:	bd30      	pop	{r4, r5, pc}
	...

08003d28 <_ZN5Eigen5BlockINS_3RefINS_6MatrixIdLi6ELi6ELi0ELi6ELi6EEELi0ENS_11OuterStrideILin1EEEEELi6ELi1ELb1EEC1ERS6_i>:
 8003d28:	b538      	push	{r3, r4, r5, lr}
 8003d2a:	688c      	ldr	r4, [r1, #8]
 8003d2c:	2a05      	cmp	r2, #5
 8003d2e:	6081      	str	r1, [r0, #8]
 8003d30:	fb04 f502 	mul.w	r5, r4, r2
 8003d34:	680c      	ldr	r4, [r1, #0]
 8003d36:	eb04 04c5 	add.w	r4, r4, r5, lsl #3
 8003d3a:	6004      	str	r4, [r0, #0]
 8003d3c:	f04f 0400 	mov.w	r4, #0
 8003d40:	e9c0 4203 	strd	r4, r2, [r0, #12]
 8003d44:	6889      	ldr	r1, [r1, #8]
 8003d46:	6141      	str	r1, [r0, #20]
 8003d48:	d905      	bls.n	8003d56 <_ZN5Eigen5BlockINS_3RefINS_6MatrixIdLi6ELi6ELi0ELi6ELi6EEELi0ENS_11OuterStrideILin1EEEEELi6ELi1ELb1EEC1ERS6_i+0x2e>
 8003d4a:	4b03      	ldr	r3, [pc, #12]	@ (8003d58 <_ZN5Eigen5BlockINS_3RefINS_6MatrixIdLi6ELi6ELi0ELi6ELi6EEELi0ENS_11OuterStrideILin1EEEEELi6ELi1ELb1EEC1ERS6_i+0x30>)
 8003d4c:	2178      	movs	r1, #120	@ 0x78
 8003d4e:	4a03      	ldr	r2, [pc, #12]	@ (8003d5c <_ZN5Eigen5BlockINS_3RefINS_6MatrixIdLi6ELi6ELi0ELi6ELi6EEELi0ENS_11OuterStrideILin1EEEEELi6ELi1ELb1EEC1ERS6_i+0x34>)
 8003d50:	4803      	ldr	r0, [pc, #12]	@ (8003d60 <_ZN5Eigen5BlockINS_3RefINS_6MatrixIdLi6ELi6ELi0ELi6ELi6EEELi0ENS_11OuterStrideILin1EEEEELi6ELi1ELb1EEC1ERS6_i+0x38>)
 8003d52:	f006 f81d 	bl	8009d90 <__assert_func>
 8003d56:	bd38      	pop	{r3, r4, r5, pc}
 8003d58:	0800bd26 	.word	0x0800bd26
 8003d5c:	0800c48b 	.word	0x0800c48b
 8003d60:	0800beaa 	.word	0x0800beaa

08003d64 <_ZN5Eigen11VectorBlockINS_5BlockINS_3RefINS_6MatrixIdLi6ELi6ELi0ELi6ELi6EEELi0ENS_11OuterStrideILin1EEEEELi6ELi1ELb1EEELin1EEC1ERS8_ii>:
 8003d64:	b5f8      	push	{r3, r4, r5, r6, r7, lr}
 8003d66:	461e      	mov	r6, r3
 8003d68:	680b      	ldr	r3, [r1, #0]
 8003d6a:	4605      	mov	r5, r0
 8003d6c:	460c      	mov	r4, r1
 8003d6e:	eb03 03c2 	add.w	r3, r3, r2, lsl #3
 8003d72:	4694      	mov	ip, r2
 8003d74:	e9c0 3600 	strd	r3, r6, [r0]
 8003d78:	b13b      	cbz	r3, 8003d8a <_ZN5Eigen11VectorBlockINS_5BlockINS_3RefINS_6MatrixIdLi6ELi6ELi0ELi6ELi6EEELi0ENS_11OuterStrideILin1EEEEELi6ELi1ELb1EEELin1EEC1ERS8_ii+0x26>
 8003d7a:	2e00      	cmp	r6, #0
 8003d7c:	da05      	bge.n	8003d8a <_ZN5Eigen11VectorBlockINS_5BlockINS_3RefINS_6MatrixIdLi6ELi6ELi0ELi6ELi6EEELi0ENS_11OuterStrideILin1EEEEELi6ELi1ELb1EEELin1EEC1ERS8_ii+0x26>
 8003d7e:	4b10      	ldr	r3, [pc, #64]	@ (8003dc0 <_ZN5Eigen11VectorBlockINS_5BlockINS_3RefINS_6MatrixIdLi6ELi6ELi0ELi6ELi6EEELi0ENS_11OuterStrideILin1EEEEELi6ELi1ELb1EEELin1EEC1ERS8_ii+0x5c>)
 8003d80:	21b0      	movs	r1, #176	@ 0xb0
 8003d82:	4a10      	ldr	r2, [pc, #64]	@ (8003dc4 <_ZN5Eigen11VectorBlockINS_5BlockINS_3RefINS_6MatrixIdLi6ELi6ELi0ELi6ELi6EEELi0ENS_11OuterStrideILin1EEEEELi6ELi1ELb1EEELin1EEC1ERS8_ii+0x60>)
 8003d84:	4810      	ldr	r0, [pc, #64]	@ (8003dc8 <_ZN5Eigen11VectorBlockINS_5BlockINS_3RefINS_6MatrixIdLi6ELi6ELi0ELi6ELi6EEELi0ENS_11OuterStrideILin1EEEEELi6ELi1ELb1EEELin1EEC1ERS8_ii+0x64>)
 8003d86:	f006 f803 	bl	8009d90 <__assert_func>
 8003d8a:	cc0f      	ldmia	r4!, {r0, r1, r2, r3}
 8003d8c:	f105 070c 	add.w	r7, r5, #12
 8003d90:	c70f      	stmia	r7!, {r0, r1, r2, r3}
 8003d92:	e894 0003 	ldmia.w	r4, {r0, r1}
 8003d96:	e887 0003 	stmia.w	r7, {r0, r1}
 8003d9a:	696b      	ldr	r3, [r5, #20]
 8003d9c:	f8c5 c024 	str.w	ip, [r5, #36]	@ 0x24
 8003da0:	689b      	ldr	r3, [r3, #8]
 8003da2:	62eb      	str	r3, [r5, #44]	@ 0x2c
 8003da4:	ea5c 0306 	orrs.w	r3, ip, r6
 8003da8:	d403      	bmi.n	8003db2 <_ZN5Eigen11VectorBlockINS_5BlockINS_3RefINS_6MatrixIdLi6ELi6ELi0ELi6ELi6EEELi0ENS_11OuterStrideILin1EEEEELi6ELi1ELb1EEELin1EEC1ERS8_ii+0x4e>
 8003daa:	f1c6 0606 	rsb	r6, r6, #6
 8003dae:	45b4      	cmp	ip, r6
 8003db0:	dd04      	ble.n	8003dbc <_ZN5Eigen11VectorBlockINS_5BlockINS_3RefINS_6MatrixIdLi6ELi6ELi0ELi6ELi6EEELi0ENS_11OuterStrideILin1EEEEELi6ELi1ELb1EEELin1EEC1ERS8_ii+0x58>
 8003db2:	4b06      	ldr	r3, [pc, #24]	@ (8003dcc <_ZN5Eigen11VectorBlockINS_5BlockINS_3RefINS_6MatrixIdLi6ELi6ELi0ELi6ELi6EEELi0ENS_11OuterStrideILin1EEEEELi6ELi1ELb1EEELin1EEC1ERS8_ii+0x68>)
 8003db4:	2192      	movs	r1, #146	@ 0x92
 8003db6:	4a06      	ldr	r2, [pc, #24]	@ (8003dd0 <_ZN5Eigen11VectorBlockINS_5BlockINS_3RefINS_6MatrixIdLi6ELi6ELi0ELi6ELi6EEELi0ENS_11OuterStrideILin1EEEEELi6ELi1ELb1EEELin1EEC1ERS8_ii+0x6c>)
 8003db8:	4806      	ldr	r0, [pc, #24]	@ (8003dd4 <_ZN5Eigen11VectorBlockINS_5BlockINS_3RefINS_6MatrixIdLi6ELi6ELi0ELi6ELi6EEELi0ENS_11OuterStrideILin1EEEEELi6ELi1ELb1EEELin1EEC1ERS8_ii+0x70>)
 8003dba:	e7e4      	b.n	8003d86 <_ZN5Eigen11VectorBlockINS_5BlockINS_3RefINS_6MatrixIdLi6ELi6ELi0ELi6ELi6EEELi0ENS_11OuterStrideILin1EEEEELi6ELi1ELb1EEELin1EEC1ERS8_ii+0x22>
 8003dbc:	4628      	mov	r0, r5
 8003dbe:	bdf8      	pop	{r3, r4, r5, r6, r7, pc}
 8003dc0:	0800c587 	.word	0x0800c587
 8003dc4:	0800c631 	.word	0x0800c631
 8003dc8:	0800c732 	.word	0x0800c732
 8003dcc:	0800c75d 	.word	0x0800c75d
 8003dd0:	0800c7ec 	.word	0x0800c7ec
 8003dd4:	0800beaa 	.word	0x0800beaa

08003dd8 <_ZN5Eigen5BlockINS_3RefINS_6MatrixIdLi6ELi6ELi0ELi6ELi6EEELi0ENS_11OuterStrideILin1EEEEELi1ELi6ELb0EEC1ERS6_i>:
 8003dd8:	b510      	push	{r4, lr}
 8003dda:	680c      	ldr	r4, [r1, #0]
 8003ddc:	2a05      	cmp	r2, #5
 8003dde:	eb04 04c2 	add.w	r4, r4, r2, lsl #3
 8003de2:	e9c0 1202 	strd	r1, r2, [r0, #8]
 8003de6:	6004      	str	r4, [r0, #0]
 8003de8:	f04f 0101 	mov.w	r1, #1
 8003dec:	f04f 0400 	mov.w	r4, #0
 8003df0:	e9c0 4104 	strd	r4, r1, [r0, #16]
 8003df4:	d905      	bls.n	8003e02 <_ZN5Eigen5BlockINS_3RefINS_6MatrixIdLi6ELi6ELi0ELi6ELi6EEELi0ENS_11OuterStrideILin1EEEEELi1ELi6ELb0EEC1ERS6_i+0x2a>
 8003df6:	4b03      	ldr	r3, [pc, #12]	@ (8003e04 <_ZN5Eigen5BlockINS_3RefINS_6MatrixIdLi6ELi6ELi0ELi6ELi6EEELi0ENS_11OuterStrideILin1EEEEELi1ELi6ELb0EEC1ERS6_i+0x2c>)
 8003df8:	2178      	movs	r1, #120	@ 0x78
 8003dfa:	4a03      	ldr	r2, [pc, #12]	@ (8003e08 <_ZN5Eigen5BlockINS_3RefINS_6MatrixIdLi6ELi6ELi0ELi6ELi6EEELi0ENS_11OuterStrideILin1EEEEELi1ELi6ELb0EEC1ERS6_i+0x30>)
 8003dfc:	4803      	ldr	r0, [pc, #12]	@ (8003e0c <_ZN5Eigen5BlockINS_3RefINS_6MatrixIdLi6ELi6ELi0ELi6ELi6EEELi0ENS_11OuterStrideILin1EEEEELi1ELi6ELb0EEC1ERS6_i+0x34>)
 8003dfe:	f005 ffc7 	bl	8009d90 <__assert_func>
 8003e02:	bd10      	pop	{r4, pc}
 8003e04:	0800bd26 	.word	0x0800bd26
 8003e08:	0800c92e 	.word	0x0800c92e
 8003e0c:	0800beaa 	.word	0x0800beaa

08003e10 <_ZN5Eigen8internal31generic_dense_assignment_kernelINS0_9evaluatorINS_6MatrixIdLi4ELi4ELi0ELi4ELi4EEEEENS2_INS_7ProductINS3_IdLi4ELi6ELi0ELi4ELi6EEENS3_IdLi6ELi4ELi0ELi6ELi4EEELi1EEEEENS0_13sub_assign_opIddEELi0EE11assignCoeffEii>:
 8003e10:	e92d 41f0 	stmdb	sp!, {r4, r5, r6, r7, r8, lr}
 8003e14:	4616      	mov	r6, r2
 8003e16:	b08c      	sub	sp, #48	@ 0x30
 8003e18:	6802      	ldr	r2, [r0, #0]
 8003e1a:	f8d0 8004 	ldr.w	r8, [r0, #4]
 8003e1e:	eb01 0386 	add.w	r3, r1, r6, lsl #2
 8003e22:	6817      	ldr	r7, [r2, #0]
 8003e24:	466c      	mov	r4, sp
 8003e26:	460a      	mov	r2, r1
 8003e28:	4668      	mov	r0, sp
 8003e2a:	f8d8 1000 	ldr.w	r1, [r8]
 8003e2e:	eb07 07c3 	add.w	r7, r7, r3, lsl #3
 8003e32:	ad06      	add	r5, sp, #24
 8003e34:	f7ff fa6c 	bl	8003310 <_ZN5Eigen5BlockIKNS_6MatrixIdLi4ELi6ELi0ELi4ELi6EEELi1ELi6ELb0EEC1ERS3_i>
 8003e38:	2e03      	cmp	r6, #3
 8003e3a:	cc0f      	ldmia	r4!, {r0, r1, r2, r3}
 8003e3c:	c50f      	stmia	r5!, {r0, r1, r2, r3}
 8003e3e:	f04f 0206 	mov.w	r2, #6
 8003e42:	f8d8 3004 	ldr.w	r3, [r8, #4]
 8003e46:	e894 0003 	ldmia.w	r4, {r0, r1}
 8003e4a:	fb06 f202 	mul.w	r2, r6, r2
 8003e4e:	e885 0003 	stmia.w	r5, {r0, r1}
 8003e52:	eb03 03c2 	add.w	r3, r3, r2, lsl #3
 8003e56:	d905      	bls.n	8003e64 <_ZN5Eigen8internal31generic_dense_assignment_kernelINS0_9evaluatorINS_6MatrixIdLi4ELi4ELi0ELi4ELi4EEEEENS2_INS_7ProductINS3_IdLi4ELi6ELi0ELi4ELi6EEENS3_IdLi6ELi4ELi0ELi6ELi4EEELi1EEEEENS0_13sub_assign_opIddEELi0EE11assignCoeffEii+0x54>
 8003e58:	4b1a      	ldr	r3, [pc, #104]	@ (8003ec4 <_ZN5Eigen8internal31generic_dense_assignment_kernelINS0_9evaluatorINS_6MatrixIdLi4ELi4ELi0ELi4ELi4EEEEENS2_INS_7ProductINS3_IdLi4ELi6ELi0ELi4ELi6EEENS3_IdLi6ELi4ELi0ELi6ELi4EEELi1EEEEENS0_13sub_assign_opIddEELi0EE11assignCoeffEii+0xb4>)
 8003e5a:	2178      	movs	r1, #120	@ 0x78
 8003e5c:	4a1a      	ldr	r2, [pc, #104]	@ (8003ec8 <_ZN5Eigen8internal31generic_dense_assignment_kernelINS0_9evaluatorINS_6MatrixIdLi4ELi4ELi0ELi4ELi4EEEEENS2_INS_7ProductINS3_IdLi4ELi6ELi0ELi4ELi6EEENS3_IdLi6ELi4ELi0ELi6ELi4EEELi1EEEEENS0_13sub_assign_opIddEELi0EE11assignCoeffEii+0xb8>)
 8003e5e:	481b      	ldr	r0, [pc, #108]	@ (8003ecc <_ZN5Eigen8internal31generic_dense_assignment_kernelINS0_9evaluatorINS_6MatrixIdLi4ELi4ELi0ELi4ELi4EEEEENS2_INS_7ProductINS3_IdLi4ELi6ELi0ELi4ELi6EEENS3_IdLi6ELi4ELi0ELi6ELi4EEELi1EEEEENS0_13sub_assign_opIddEELi0EE11assignCoeffEii+0xbc>)
 8003e60:	f005 ff96 	bl	8009d90 <__assert_func>
 8003e64:	9a06      	ldr	r2, [sp, #24]
 8003e66:	ed93 7b04 	vldr	d7, [r3, #16]
 8003e6a:	ed92 6b10 	vldr	d6, [r2, #64]	@ 0x40
 8003e6e:	ed93 2b02 	vldr	d2, [r3, #8]
 8003e72:	ed92 3b08 	vldr	d3, [r2, #32]
 8003e76:	ee27 6b06 	vmul.f64	d6, d7, d6
 8003e7a:	ed93 7b0a 	vldr	d7, [r3, #40]	@ 0x28
 8003e7e:	ed92 5b00 	vldr	d5, [r2]
 8003e82:	eea2 6b03 	vfma.f64	d6, d2, d3
 8003e86:	ed92 3b28 	vldr	d3, [r2, #160]	@ 0xa0
 8003e8a:	ed93 2b08 	vldr	d2, [r3, #32]
 8003e8e:	ed93 4b00 	vldr	d4, [r3]
 8003e92:	ee27 7b03 	vmul.f64	d7, d7, d3
 8003e96:	eea4 6b05 	vfma.f64	d6, d4, d5
 8003e9a:	ed92 3b20 	vldr	d3, [r2, #128]	@ 0x80
 8003e9e:	ed92 5b18 	vldr	d5, [r2, #96]	@ 0x60
 8003ea2:	ed93 4b06 	vldr	d4, [r3, #24]
 8003ea6:	eea2 7b03 	vfma.f64	d7, d2, d3
 8003eaa:	eea4 7b05 	vfma.f64	d7, d4, d5
 8003eae:	ee37 7b06 	vadd.f64	d7, d7, d6
 8003eb2:	ed97 6b00 	vldr	d6, [r7]
 8003eb6:	ee36 6b47 	vsub.f64	d6, d6, d7
 8003eba:	ed87 6b00 	vstr	d6, [r7]
 8003ebe:	b00c      	add	sp, #48	@ 0x30
 8003ec0:	e8bd 81f0 	ldmia.w	sp!, {r4, r5, r6, r7, r8, pc}
 8003ec4:	0800bd26 	.word	0x0800bd26
 8003ec8:	0800ca2b 	.word	0x0800ca2b
 8003ecc:	0800beaa 	.word	0x0800beaa

08003ed0 <_ZN5Eigen8internal15call_assignmentINS_6MatrixIdLi4ELi4ELi0ELi4ELi4EEENS_7ProductINS_13CwiseBinaryOpINS0_20scalar_difference_opIddEEKS3_KNS4_INS2_IdLi4ELi6ELi0ELi4ELi6EEENS2_IdLi6ELi4ELi0ELi6ELi4EEELi0EEEEES3_Li0EEEEEvRT_RKT0_>:
 8003ed0:	e92d 4ff0 	stmdb	sp!, {r4, r5, r6, r7, r8, r9, sl, fp, lr}
 8003ed4:	b0d3      	sub	sp, #332	@ 0x14c
 8003ed6:	460c      	mov	r4, r1
 8003ed8:	4681      	mov	r9, r0
 8003eda:	f10d 053f 	add.w	r5, sp, #63	@ 0x3f
 8003ede:	f025 050f 	bic.w	r5, r5, #15
 8003ee2:	f105 0890 	add.w	r8, r5, #144	@ 0x90
 8003ee6:	4640      	mov	r0, r8
 8003ee8:	f7fe fbba 	bl	8002660 <_ZN5Eigen8internal11plain_arrayIdLi16ELi0ELi16EEC1Ev>
 8003eec:	68a6      	ldr	r6, [r4, #8]
 8003eee:	f8d4 a010 	ldr.w	sl, [r4, #16]
 8003ef2:	4628      	mov	r0, r5
 8003ef4:	f7fe fbb4 	bl	8002660 <_ZN5Eigen8internal11plain_arrayIdLi16ELi0ELi16EEC1Ev>
 8003ef8:	4628      	mov	r0, r5
 8003efa:	e9d4 b700 	ldrd	fp, r7, [r4]
 8003efe:	ac07      	add	r4, sp, #28
 8003f00:	4659      	mov	r1, fp
 8003f02:	4622      	mov	r2, r4
 8003f04:	f7fe ffa2 	bl	8002e4c <_ZN5Eigen8internal26call_dense_assignment_loopINS_6MatrixIdLi4ELi4ELi0ELi4ELi4EEES3_NS0_9assign_opIddEEEEvRT_RKT0_RKT1_>
 8003f08:	2306      	movs	r3, #6
 8003f0a:	aa01      	add	r2, sp, #4
 8003f0c:	9502      	str	r5, [sp, #8]
 8003f0e:	6123      	str	r3, [r4, #16]
 8003f10:	ab02      	add	r3, sp, #8
 8003f12:	e9c4 7600 	strd	r7, r6, [r4]
 8003f16:	e9c4 7602 	strd	r7, r6, [r4, #8]
 8003f1a:	ae03      	add	r6, sp, #12
 8003f1c:	2700      	movs	r7, #0
 8003f1e:	e9c6 3400 	strd	r3, r4, [r6]
 8003f22:	e9c6 2502 	strd	r2, r5, [r6, #8]
 8003f26:	463a      	mov	r2, r7
 8003f28:	2100      	movs	r1, #0
 8003f2a:	4630      	mov	r0, r6
 8003f2c:	f7ff ff70 	bl	8003e10 <_ZN5Eigen8internal31generic_dense_assignment_kernelINS0_9evaluatorINS_6MatrixIdLi4ELi4ELi0ELi4ELi4EEEEENS2_INS_7ProductINS3_IdLi4ELi6ELi0ELi4ELi6EEENS3_IdLi6ELi4ELi0ELi6ELi4EEELi1EEEEENS0_13sub_assign_opIddEELi0EE11assignCoeffEii>
 8003f30:	463a      	mov	r2, r7
 8003f32:	2101      	movs	r1, #1
 8003f34:	4630      	mov	r0, r6
 8003f36:	f7ff ff6b 	bl	8003e10 <_ZN5Eigen8internal31generic_dense_assignment_kernelINS0_9evaluatorINS_6MatrixIdLi4ELi4ELi0ELi4ELi4EEEEENS2_INS_7ProductINS3_IdLi4ELi6ELi0ELi4ELi6EEENS3_IdLi6ELi4ELi0ELi6ELi4EEELi1EEEEENS0_13sub_assign_opIddEELi0EE11assignCoeffEii>
 8003f3a:	463a      	mov	r2, r7
 8003f3c:	2102      	movs	r1, #2
 8003f3e:	4630      	mov	r0, r6
 8003f40:	f7ff ff66 	bl	8003e10 <_ZN5Eigen8internal31generic_dense_assignment_kernelINS0_9evaluatorINS_6MatrixIdLi4ELi4ELi0ELi4ELi4EEEEENS2_INS_7ProductINS3_IdLi4ELi6ELi0ELi4ELi6EEENS3_IdLi6ELi4ELi0ELi6ELi4EEELi1EEEEENS0_13sub_assign_opIddEELi0EE11assignCoeffEii>
 8003f44:	463a      	mov	r2, r7
 8003f46:	3701      	adds	r7, #1
 8003f48:	2103      	movs	r1, #3
 8003f4a:	4630      	mov	r0, r6
 8003f4c:	f7ff ff60 	bl	8003e10 <_ZN5Eigen8internal31generic_dense_assignment_kernelINS0_9evaluatorINS_6MatrixIdLi4ELi4ELi0ELi4ELi4EEEEENS2_INS_7ProductINS3_IdLi4ELi6ELi0ELi4ELi6EEENS3_IdLi6ELi4ELi0ELi6ELi4EEELi1EEEEENS0_13sub_assign_opIddEELi0EE11assignCoeffEii>
 8003f50:	2f04      	cmp	r7, #4
 8003f52:	ab02      	add	r3, sp, #8
 8003f54:	d1e7      	bne.n	8003f26 <_ZN5Eigen8internal15call_assignmentINS_6MatrixIdLi4ELi4ELi0ELi4ELi4EEENS_7ProductINS_13CwiseBinaryOpINS0_20scalar_difference_opIddEEKS3_KNS4_INS2_IdLi4ELi6ELi0ELi4ELi6EEENS2_IdLi6ELi4ELi0ELi6ELi4EEELi0EEEEES3_Li0EEEEEvRT_RKT0_+0x56>
 8003f56:	f8c6 8000 	str.w	r8, [r6]
 8003f5a:	e9c5 a520 	strd	sl, r5, [r5, #128]	@ 0x80
 8003f5e:	e9c5 a722 	strd	sl, r7, [r5, #136]	@ 0x88
 8003f62:	e9c4 6500 	strd	r6, r5, [r4]
 8003f66:	2500      	movs	r5, #0
 8003f68:	e9c4 3802 	strd	r3, r8, [r4, #8]
 8003f6c:	462a      	mov	r2, r5
 8003f6e:	2100      	movs	r1, #0
 8003f70:	4620      	mov	r0, r4
 8003f72:	f7ff fad9 	bl	8003528 <_ZN5Eigen8internal31generic_dense_assignment_kernelINS0_9evaluatorINS_6MatrixIdLi4ELi4ELi0ELi4ELi4EEEEENS2_INS_7ProductINS_13CwiseBinaryOpINS0_20scalar_difference_opIddEEKS4_KNS6_INS3_IdLi4ELi6ELi0ELi4ELi6EEENS3_IdLi6ELi4ELi0ELi6ELi4EEELi0EEEEES4_Li1EEEEENS0_9assign_opIddEELi0EE11assignCoeffEii>
 8003f76:	462a      	mov	r2, r5
 8003f78:	2101      	movs	r1, #1
 8003f7a:	4620      	mov	r0, r4
 8003f7c:	f7ff fad4 	bl	8003528 <_ZN5Eigen8internal31generic_dense_assignment_kernelINS0_9evaluatorINS_6MatrixIdLi4ELi4ELi0ELi4ELi4EEEEENS2_INS_7ProductINS_13CwiseBinaryOpINS0_20scalar_difference_opIddEEKS4_KNS6_INS3_IdLi4ELi6ELi0ELi4ELi6EEENS3_IdLi6ELi4ELi0ELi6ELi4EEELi0EEEEES4_Li1EEEEENS0_9assign_opIddEELi0EE11assignCoeffEii>
 8003f80:	462a      	mov	r2, r5
 8003f82:	2102      	movs	r1, #2
 8003f84:	4620      	mov	r0, r4
 8003f86:	f7ff facf 	bl	8003528 <_ZN5Eigen8internal31generic_dense_assignment_kernelINS0_9evaluatorINS_6MatrixIdLi4ELi4ELi0ELi4ELi4EEEEENS2_INS_7ProductINS_13CwiseBinaryOpINS0_20scalar_difference_opIddEEKS4_KNS6_INS3_IdLi4ELi6ELi0ELi4ELi6EEENS3_IdLi6ELi4ELi0ELi6ELi4EEELi0EEEEES4_Li1EEEEENS0_9assign_opIddEELi0EE11assignCoeffEii>
 8003f8a:	462a      	mov	r2, r5
 8003f8c:	3501      	adds	r5, #1
 8003f8e:	2103      	movs	r1, #3
 8003f90:	4620      	mov	r0, r4
 8003f92:	f7ff fac9 	bl	8003528 <_ZN5Eigen8internal31generic_dense_assignment_kernelINS0_9evaluatorINS_6MatrixIdLi4ELi4ELi0ELi4ELi4EEEEENS2_INS_7ProductINS_13CwiseBinaryOpINS0_20scalar_difference_opIddEEKS4_KNS6_INS3_IdLi4ELi6ELi0ELi4ELi6EEENS3_IdLi6ELi4ELi0ELi6ELi4EEELi0EEEEES4_Li1EEEEENS0_9assign_opIddEELi0EE11assignCoeffEii>
 8003f96:	2d04      	cmp	r5, #4
 8003f98:	d1e8      	bne.n	8003f6c <_ZN5Eigen8internal15call_assignmentINS_6MatrixIdLi4ELi4ELi0ELi4ELi4EEENS_7ProductINS_13CwiseBinaryOpINS0_20scalar_difference_opIddEEKS3_KNS4_INS2_IdLi4ELi6ELi0ELi4ELi6EEENS2_IdLi6ELi4ELi0ELi6ELi4EEELi0EEEEES3_Li0EEEEEvRT_RKT0_+0x9c>
 8003f9a:	4622      	mov	r2, r4
 8003f9c:	4641      	mov	r1, r8
 8003f9e:	4648      	mov	r0, r9
 8003fa0:	f7fe ff54 	bl	8002e4c <_ZN5Eigen8internal26call_dense_assignment_loopINS_6MatrixIdLi4ELi4ELi0ELi4ELi4EEES3_NS0_9assign_opIddEEEEvRT_RKT0_RKT1_>
 8003fa4:	b053      	add	sp, #332	@ 0x14c
 8003fa6:	e8bd 8ff0 	ldmia.w	sp!, {r4, r5, r6, r7, r8, r9, sl, fp, pc}

08003faa <_ZN5Eigen8internal31generic_dense_assignment_kernelINS0_9evaluatorINS_6MatrixIdLi6ELi4ELi0ELi6ELi4EEEEENS2_INS_7ProductIS4_NS3_IdLi4ELi4ELi0ELi4ELi4EEELi1EEEEENS0_9assign_opIddEELi0EE11assignCoeffEii>:
 8003faa:	e92d 41f0 	stmdb	sp!, {r4, r5, r6, r7, r8, lr}
 8003fae:	2306      	movs	r3, #6
 8003fb0:	b092      	sub	sp, #72	@ 0x48
 8003fb2:	4616      	mov	r6, r2
 8003fb4:	6802      	ldr	r2, [r0, #0]
 8003fb6:	f8d0 8004 	ldr.w	r8, [r0, #4]
 8003fba:	ac06      	add	r4, sp, #24
 8003fbc:	fb03 1306 	mla	r3, r3, r6, r1
 8003fc0:	6817      	ldr	r7, [r2, #0]
 8003fc2:	a806      	add	r0, sp, #24
 8003fc4:	460a      	mov	r2, r1
 8003fc6:	f8d8 1000 	ldr.w	r1, [r8]
 8003fca:	eb07 07c3 	add.w	r7, r7, r3, lsl #3
 8003fce:	ad0c      	add	r5, sp, #48	@ 0x30
 8003fd0:	f7ff fd98 	bl	8003b04 <_ZN5Eigen5BlockIKNS_6MatrixIdLi6ELi4ELi0ELi6ELi4EEELi1ELi4ELb0EEC1ERS3_i>
 8003fd4:	cc0f      	ldmia	r4!, {r0, r1, r2, r3}
 8003fd6:	c50f      	stmia	r5!, {r0, r1, r2, r3}
 8003fd8:	e894 0003 	ldmia.w	r4, {r0, r1}
 8003fdc:	4632      	mov	r2, r6
 8003fde:	e885 0003 	stmia.w	r5, {r0, r1}
 8003fe2:	f8d8 1004 	ldr.w	r1, [r8, #4]
 8003fe6:	4668      	mov	r0, sp
 8003fe8:	f7ff fa84 	bl	80034f4 <_ZN5Eigen5BlockIKNS_6MatrixIdLi4ELi4ELi0ELi4ELi4EEELi4ELi1ELb1EEC1ERS3_i>
 8003fec:	9b0c      	ldr	r3, [sp, #48]	@ 0x30
 8003fee:	9a00      	ldr	r2, [sp, #0]
 8003ff0:	ed93 6b0c 	vldr	d6, [r3, #48]	@ 0x30
 8003ff4:	ed92 7b02 	vldr	d7, [r2, #8]
 8003ff8:	ed92 5b00 	vldr	d5, [r2]
 8003ffc:	ed92 4b04 	vldr	d4, [r2, #16]
 8004000:	ee27 6b06 	vmul.f64	d6, d7, d6
 8004004:	ed93 7b00 	vldr	d7, [r3]
 8004008:	eea5 6b07 	vfma.f64	d6, d5, d7
 800400c:	ed93 5b24 	vldr	d5, [r3, #144]	@ 0x90
 8004010:	ed92 7b06 	vldr	d7, [r2, #24]
 8004014:	ee27 7b05 	vmul.f64	d7, d7, d5
 8004018:	ed93 5b18 	vldr	d5, [r3, #96]	@ 0x60
 800401c:	eea4 7b05 	vfma.f64	d7, d4, d5
 8004020:	ee37 7b06 	vadd.f64	d7, d7, d6
 8004024:	ed87 7b00 	vstr	d7, [r7]
 8004028:	b012      	add	sp, #72	@ 0x48
 800402a:	e8bd 81f0 	ldmia.w	sp!, {r4, r5, r6, r7, r8, pc}

0800402e <_ZN5Eigen8internal21dense_assignment_loopINS0_31generic_dense_assignment_kernelINS0_9evaluatorINS_6MatrixIdLi6ELi4ELi0ELi6ELi4EEEEENS3_INS_7ProductIS5_NS4_IdLi4ELi4ELi0ELi4ELi4EEELi1EEEEENS0_9assign_opIddEELi0EEELi0ELi1EE3runERSD_>:
 800402e:	b538      	push	{r3, r4, r5, lr}
 8004030:	4605      	mov	r5, r0
 8004032:	2400      	movs	r4, #0
 8004034:	4622      	mov	r2, r4
 8004036:	2100      	movs	r1, #0
 8004038:	4628      	mov	r0, r5
 800403a:	f7ff ffb6 	bl	8003faa <_ZN5Eigen8internal31generic_dense_assignment_kernelINS0_9evaluatorINS_6MatrixIdLi6ELi4ELi0ELi6ELi4EEEEENS2_INS_7ProductIS4_NS3_IdLi4ELi4ELi0ELi4ELi4EEELi1EEEEENS0_9assign_opIddEELi0EE11assignCoeffEii>
 800403e:	4622      	mov	r2, r4
 8004040:	2101      	movs	r1, #1
 8004042:	4628      	mov	r0, r5
 8004044:	f7ff ffb1 	bl	8003faa <_ZN5Eigen8internal31generic_dense_assignment_kernelINS0_9evaluatorINS_6MatrixIdLi6ELi4ELi0ELi6ELi4EEEEENS2_INS_7ProductIS4_NS3_IdLi4ELi4ELi0ELi4ELi4EEELi1EEEEENS0_9assign_opIddEELi0EE11assignCoeffEii>
 8004048:	4622      	mov	r2, r4
 800404a:	2102      	movs	r1, #2
 800404c:	4628      	mov	r0, r5
 800404e:	f7ff ffac 	bl	8003faa <_ZN5Eigen8internal31generic_dense_assignment_kernelINS0_9evaluatorINS_6MatrixIdLi6ELi4ELi0ELi6ELi4EEEEENS2_INS_7ProductIS4_NS3_IdLi4ELi4ELi0ELi4ELi4EEELi1EEEEENS0_9assign_opIddEELi0EE11assignCoeffEii>
 8004052:	4622      	mov	r2, r4
 8004054:	2103      	movs	r1, #3
 8004056:	4628      	mov	r0, r5
 8004058:	f7ff ffa7 	bl	8003faa <_ZN5Eigen8internal31generic_dense_assignment_kernelINS0_9evaluatorINS_6MatrixIdLi6ELi4ELi0ELi6ELi4EEEEENS2_INS_7ProductIS4_NS3_IdLi4ELi4ELi0ELi4ELi4EEELi1EEEEENS0_9assign_opIddEELi0EE11assignCoeffEii>
 800405c:	4622      	mov	r2, r4
 800405e:	2104      	movs	r1, #4
 8004060:	4628      	mov	r0, r5
 8004062:	f7ff ffa2 	bl	8003faa <_ZN5Eigen8internal31generic_dense_assignment_kernelINS0_9evaluatorINS_6MatrixIdLi6ELi4ELi0ELi6ELi4EEEEENS2_INS_7ProductIS4_NS3_IdLi4ELi4ELi0ELi4ELi4EEELi1EEEEENS0_9assign_opIddEELi0EE11assignCoeffEii>
 8004066:	4622      	mov	r2, r4
 8004068:	3401      	adds	r4, #1
 800406a:	2105      	movs	r1, #5
 800406c:	4628      	mov	r0, r5
 800406e:	f7ff ff9c 	bl	8003faa <_ZN5Eigen8internal31generic_dense_assignment_kernelINS0_9evaluatorINS_6MatrixIdLi6ELi4ELi0ELi6ELi4EEEEENS2_INS_7ProductIS4_NS3_IdLi4ELi4ELi0ELi4ELi4EEELi1EEEEENS0_9assign_opIddEELi0EE11assignCoeffEii>
 8004072:	2c04      	cmp	r4, #4
 8004074:	d1de      	bne.n	8004034 <_ZN5Eigen8internal21dense_assignment_loopINS0_31generic_dense_assignment_kernelINS0_9evaluatorINS_6MatrixIdLi6ELi4ELi0ELi6ELi4EEEEENS3_INS_7ProductIS5_NS4_IdLi4ELi4ELi0ELi4ELi4EEELi1EEEEENS0_9assign_opIddEELi0EEELi0ELi1EE3runERSD_+0x6>
 8004076:	bd38      	pop	{r3, r4, r5, pc}

08004078 <_ZN5Eigen8internal26call_dense_assignment_loopINS_6MatrixIdLi6ELi6ELi0ELi6ELi6EEENS_13CwiseBinaryOpINS0_13scalar_sum_opIddEEKNS_7ProductINS7_INS2_IdLi6ELi4ELi0ELi6ELi4EEENS2_IdLi4ELi4ELi0ELi4ELi4EEELi0EEENS_9TransposeIS8_EELi0EEEKS3_EENS0_9assign_opIddEEEEvRT_RKT0_RKT1_>:
 8004078:	e92d 4ff0 	stmdb	sp!, {r4, r5, r6, r7, r8, r9, sl, fp, lr}
 800407c:	f5ad 7d1b 	sub.w	sp, sp, #620	@ 0x26c
 8004080:	460f      	mov	r7, r1
 8004082:	6889      	ldr	r1, [r1, #8]
 8004084:	4681      	mov	r9, r0
 8004086:	f10d 054f 	add.w	r5, sp, #79	@ 0x4f
 800408a:	683b      	ldr	r3, [r7, #0]
 800408c:	687e      	ldr	r6, [r7, #4]
 800408e:	4692      	mov	sl, r2
 8004090:	f025 050f 	bic.w	r5, r5, #15
 8004094:	9106      	str	r1, [sp, #24]
 8004096:	9100      	str	r1, [sp, #0]
 8004098:	ac0b      	add	r4, sp, #44	@ 0x2c
 800409a:	f505 78a8 	add.w	r8, r5, #336	@ 0x150
 800409e:	f105 0b20 	add.w	fp, r5, #32
 80040a2:	9301      	str	r3, [sp, #4]
 80040a4:	4640      	mov	r0, r8
 80040a6:	f8c5 b010 	str.w	fp, [r5, #16]
 80040aa:	f7fe fb09 	bl	80026c0 <_ZN5Eigen8internal11plain_arrayIdLi24ELi0ELi16EEC1Ev>
 80040ae:	9b01      	ldr	r3, [sp, #4]
 80040b0:	2204      	movs	r2, #4
 80040b2:	f8cd 800c 	str.w	r8, [sp, #12]
 80040b6:	e9cd 360b 	strd	r3, r6, [sp, #44]	@ 0x2c
 80040ba:	e9cd 360d 	strd	r3, r6, [sp, #52]	@ 0x34
 80040be:	ab03      	add	r3, sp, #12
 80040c0:	ae07      	add	r6, sp, #28
 80040c2:	920f      	str	r2, [sp, #60]	@ 0x3c
 80040c4:	4630      	mov	r0, r6
 80040c6:	e9cd 3407 	strd	r3, r4, [sp, #28]
 80040ca:	ab02      	add	r3, sp, #8
 80040cc:	e9cd 3809 	strd	r3, r8, [sp, #36]	@ 0x24
 80040d0:	f7ff ffad 	bl	800402e <_ZN5Eigen8internal21dense_assignment_loopINS0_31generic_dense_assignment_kernelINS0_9evaluatorINS_6MatrixIdLi6ELi4ELi0ELi6ELi4EEEEENS3_INS_7ProductIS5_NS4_IdLi4ELi4ELi0ELi4ELi4EEELi1EEEEENS0_9assign_opIddEELi0EEELi0ELi1EE3runERSD_>
 80040d4:	9806      	ldr	r0, [sp, #24]
 80040d6:	9900      	ldr	r1, [sp, #0]
 80040d8:	2204      	movs	r2, #4
 80040da:	ab03      	add	r3, sp, #12
 80040dc:	f8cd b01c 	str.w	fp, [sp, #28]
 80040e0:	f8c5 1218 	str.w	r1, [r5, #536]	@ 0x218
 80040e4:	f8c5 221c 	str.w	r2, [r5, #540]	@ 0x21c
 80040e8:	e9c5 0884 	strd	r0, r8, [r5, #528]	@ 0x210
 80040ec:	4620      	mov	r0, r4
 80040ee:	e9cd 3b0d 	strd	r3, fp, [sp, #52]	@ 0x34
 80040f2:	e9cd 680b 	strd	r6, r8, [sp, #44]	@ 0x2c
 80040f6:	f7ff fd80 	bl	8003bfa <_ZN5Eigen8internal21dense_assignment_loopINS0_31generic_dense_assignment_kernelINS0_9evaluatorINS_6MatrixIdLi6ELi6ELi1ELi6ELi6EEEEENS3_INS_7ProductINS7_INS4_IdLi6ELi4ELi0ELi6ELi4EEENS4_IdLi4ELi4ELi0ELi4ELi4EEELi0EEENS_9TransposeIS8_EELi1EEEEENS0_9assign_opIddEELi0EEELi0ELi1EE3runERSH_>
 80040fa:	68fb      	ldr	r3, [r7, #12]
 80040fc:	4620      	mov	r0, r4
 80040fe:	f8cd 901c 	str.w	r9, [sp, #28]
 8004102:	f8c5 3140 	str.w	r3, [r5, #320]	@ 0x140
 8004106:	e9cd 650b 	strd	r6, r5, [sp, #44]	@ 0x2c
 800410a:	e9cd a90d 	strd	sl, r9, [sp, #52]	@ 0x34
 800410e:	f7fe fc1e 	bl	800294e <_ZN5Eigen8internal21dense_assignment_loopINS0_31generic_dense_assignment_kernelINS0_9evaluatorINS_6MatrixIdLi6ELi6ELi0ELi6ELi6EEEEENS3_INS_13CwiseBinaryOpINS0_13scalar_sum_opIddEEKNS_7ProductINSA_INS4_IdLi6ELi4ELi0ELi6ELi4EEENS4_IdLi4ELi4ELi0ELi4ELi4EEELi0EEENS_9TransposeISB_EELi0EEEKS5_EEEENS0_9assign_opIddEELi0EEELi0ELi1EE3runERSN_>
 8004112:	f50d 7d1b 	add.w	sp, sp, #620	@ 0x26c
 8004116:	e8bd 8ff0 	ldmia.w	sp!, {r4, r5, r6, r7, r8, r9, sl, fp, pc}

0800411a <_ZN5Eigen8internal31generic_dense_assignment_kernelINS0_9evaluatorINS_6MatrixIdLi4ELi4ELi0ELi4ELi4EEEEENS2_INS_7ProductIS4_S4_Li1EEEEENS0_9assign_opIddEELi0EE11assignCoeffEii>:
 800411a:	e92d 41f0 	stmdb	sp!, {r4, r5, r6, r7, r8, lr}
 800411e:	4616      	mov	r6, r2
 8004120:	b0a0      	sub	sp, #128	@ 0x80
 8004122:	6802      	ldr	r2, [r0, #0]
 8004124:	f8d0 8004 	ldr.w	r8, [r0, #4]
 8004128:	eb01 0386 	add.w	r3, r1, r6, lsl #2
 800412c:	6817      	ldr	r7, [r2, #0]
 800412e:	ac07      	add	r4, sp, #28
 8004130:	460a      	mov	r2, r1
 8004132:	a807      	add	r0, sp, #28
 8004134:	f8d8 1000 	ldr.w	r1, [r8]
 8004138:	eb07 07c3 	add.w	r7, r7, r3, lsl #3
 800413c:	ad0d      	add	r5, sp, #52	@ 0x34
 800413e:	f7ff f82b 	bl	8003198 <_ZN5Eigen5BlockIKNS_6MatrixIdLi4ELi4ELi0ELi4ELi4EEELi1ELi4ELb0EEC1ERS3_i>
 8004142:	cc0f      	ldmia	r4!, {r0, r1, r2, r3}
 8004144:	c50f      	stmia	r5!, {r0, r1, r2, r3}
 8004146:	e894 0003 	ldmia.w	r4, {r0, r1}
 800414a:	4632      	mov	r2, r6
 800414c:	ac13      	add	r4, sp, #76	@ 0x4c
 800414e:	e885 0003 	stmia.w	r5, {r0, r1}
 8004152:	ad0d      	add	r5, sp, #52	@ 0x34
 8004154:	f8d8 1004 	ldr.w	r1, [r8, #4]
 8004158:	a801      	add	r0, sp, #4
 800415a:	f7ff f9cb 	bl	80034f4 <_ZN5Eigen5BlockIKNS_6MatrixIdLi4ELi4ELi0ELi4ELi4EEELi4ELi1ELb1EEC1ERS3_i>
 800415e:	cd0f      	ldmia	r5!, {r0, r1, r2, r3}
 8004160:	c40f      	stmia	r4!, {r0, r1, r2, r3}
 8004162:	e895 0003 	ldmia.w	r5, {r0, r1}
 8004166:	ad19      	add	r5, sp, #100	@ 0x64
 8004168:	e884 0003 	stmia.w	r4, {r0, r1}
 800416c:	ac01      	add	r4, sp, #4
 800416e:	cc0f      	ldmia	r4!, {r0, r1, r2, r3}
 8004170:	c50f      	stmia	r5!, {r0, r1, r2, r3}
 8004172:	e894 0003 	ldmia.w	r4, {r0, r1}
 8004176:	e885 0003 	stmia.w	r5, {r0, r1}
 800417a:	a813      	add	r0, sp, #76	@ 0x4c
 800417c:	f7fe f89e 	bl	80022bc <_ZNK5Eigen9DenseBaseINS_13CwiseBinaryOpINS_8internal17scalar_product_opIddEEKNS_9TransposeIKNS_5BlockIKNS_6MatrixIdLi4ELi4ELi0ELi4ELi4EEELi1ELi4ELb0EEEEEKNS6_IS9_Li4ELi1ELb1EEEEEE5reduxINS2_13scalar_sum_opIddEEEEdRKT_.isra.0>
 8004180:	ed87 0b00 	vstr	d0, [r7]
 8004184:	b020      	add	sp, #128	@ 0x80
 8004186:	e8bd 81f0 	ldmia.w	sp!, {r4, r5, r6, r7, r8, pc}
	...

0800418c <_ZN5Eigen8internal17product_evaluatorINS_7ProductINS2_INS_6MatrixIdLi4ELi4ELi0ELi4ELi4EEES4_Li0EEENS_9TransposeIS4_EELi0EEELi3ENS_10DenseShapeES9_ddEC1ERKS8_>:
 800418c:	e92d 47f0 	stmdb	sp!, {r4, r5, r6, r7, r8, r9, sl, lr}
 8004190:	2300      	movs	r3, #0
 8004192:	4606      	mov	r6, r0
 8004194:	b0b4      	sub	sp, #208	@ 0xd0
 8004196:	4680      	mov	r8, r0
 8004198:	f846 3b10 	str.w	r3, [r6], #16
 800419c:	f016 050f 	ands.w	r5, r6, #15
 80041a0:	f10d 0447 	add.w	r4, sp, #71	@ 0x47
 80041a4:	f024 040f 	bic.w	r4, r4, #15
 80041a8:	d005      	beq.n	80041b6 <_ZN5Eigen8internal17product_evaluatorINS_7ProductINS2_INS_6MatrixIdLi4ELi4ELi0ELi4ELi4EEES4_Li0EEENS_9TransposeIS4_EELi0EEELi3ENS_10DenseShapeES9_ddEC1ERKS8_+0x2a>
 80041aa:	4b2f      	ldr	r3, [pc, #188]	@ (8004268 <_ZN5Eigen8internal17product_evaluatorINS_7ProductINS2_INS_6MatrixIdLi4ELi4ELi0ELi4ELi4EEES4_Li0EEENS_9TransposeIS4_EELi0EEELi3ENS_10DenseShapeES9_ddEC1ERKS8_+0xdc>)
 80041ac:	216d      	movs	r1, #109	@ 0x6d
 80041ae:	4a2f      	ldr	r2, [pc, #188]	@ (800426c <_ZN5Eigen8internal17product_evaluatorINS_7ProductINS2_INS_6MatrixIdLi4ELi4ELi0ELi4ELi4EEES4_Li0EEENS_9TransposeIS4_EELi0EEELi3ENS_10DenseShapeES9_ddEC1ERKS8_+0xe0>)
 80041b0:	482f      	ldr	r0, [pc, #188]	@ (8004270 <_ZN5Eigen8internal17product_evaluatorINS_7ProductINS2_INS_6MatrixIdLi4ELi4ELi0ELi4ELi4EEES4_Li0EEENS_9TransposeIS4_EELi0EEELi3ENS_10DenseShapeES9_ddEC1ERKS8_+0xe4>)
 80041b2:	f005 fded 	bl	8009d90 <__assert_func>
 80041b6:	688b      	ldr	r3, [r1, #8]
 80041b8:	f10d 0a14 	add.w	sl, sp, #20
 80041bc:	6006      	str	r6, [r0, #0]
 80041be:	4620      	mov	r0, r4
 80041c0:	9304      	str	r3, [sp, #16]
 80041c2:	e9d1 9700 	ldrd	r9, r7, [r1]
 80041c6:	f7fe fa4b 	bl	8002660 <_ZN5Eigen8internal11plain_arrayIdLi16ELi0ELi16EEC1Ev>
 80041ca:	2304      	movs	r3, #4
 80041cc:	9401      	str	r4, [sp, #4]
 80041ce:	930d      	str	r3, [sp, #52]	@ 0x34
 80041d0:	f8cd d01c 	str.w	sp, [sp, #28]
 80041d4:	9408      	str	r4, [sp, #32]
 80041d6:	e9cd 9709 	strd	r9, r7, [sp, #36]	@ 0x24
 80041da:	e9cd 970b 	strd	r9, r7, [sp, #44]	@ 0x2c
 80041de:	eb0d 0703 	add.w	r7, sp, r3
 80041e2:	f10d 0924 	add.w	r9, sp, #36	@ 0x24
 80041e6:	9705      	str	r7, [sp, #20]
 80041e8:	f8cd 9018 	str.w	r9, [sp, #24]
 80041ec:	462a      	mov	r2, r5
 80041ee:	2100      	movs	r1, #0
 80041f0:	4650      	mov	r0, sl
 80041f2:	f7ff ff92 	bl	800411a <_ZN5Eigen8internal31generic_dense_assignment_kernelINS0_9evaluatorINS_6MatrixIdLi4ELi4ELi0ELi4ELi4EEEEENS2_INS_7ProductIS4_S4_Li1EEEEENS0_9assign_opIddEELi0EE11assignCoeffEii>
 80041f6:	462a      	mov	r2, r5
 80041f8:	2101      	movs	r1, #1
 80041fa:	4650      	mov	r0, sl
 80041fc:	f7ff ff8d 	bl	800411a <_ZN5Eigen8internal31generic_dense_assignment_kernelINS0_9evaluatorINS_6MatrixIdLi4ELi4ELi0ELi4ELi4EEEEENS2_INS_7ProductIS4_S4_Li1EEEEENS0_9assign_opIddEELi0EE11assignCoeffEii>
 8004200:	462a      	mov	r2, r5
 8004202:	2102      	movs	r1, #2
 8004204:	4650      	mov	r0, sl
 8004206:	f7ff ff88 	bl	800411a <_ZN5Eigen8internal31generic_dense_assignment_kernelINS0_9evaluatorINS_6MatrixIdLi4ELi4ELi0ELi4ELi4EEEEENS2_INS_7ProductIS4_S4_Li1EEEEENS0_9assign_opIddEELi0EE11assignCoeffEii>
 800420a:	462a      	mov	r2, r5
 800420c:	3501      	adds	r5, #1
 800420e:	2103      	movs	r1, #3
 8004210:	4650      	mov	r0, sl
 8004212:	f7ff ff82 	bl	800411a <_ZN5Eigen8internal31generic_dense_assignment_kernelINS0_9evaluatorINS_6MatrixIdLi4ELi4ELi0ELi4ELi4EEEEENS2_INS_7ProductIS4_S4_Li1EEEEENS0_9assign_opIddEELi0EE11assignCoeffEii>
 8004216:	2d04      	cmp	r5, #4
 8004218:	d1e8      	bne.n	80041ec <_ZN5Eigen8internal17product_evaluatorINS_7ProductINS2_INS_6MatrixIdLi4ELi4ELi0ELi4ELi4EEES4_Li0EEENS_9TransposeIS4_EELi0EEELi3ENS_10DenseShapeES9_ddEC1ERKS8_+0x60>
 800421a:	9b04      	ldr	r3, [sp, #16]
 800421c:	9605      	str	r6, [sp, #20]
 800421e:	e9c4 3420 	strd	r3, r4, [r4, #128]	@ 0x80
 8004222:	e9c4 3522 	strd	r3, r5, [r4, #136]	@ 0x88
 8004226:	e9cd a409 	strd	sl, r4, [sp, #36]	@ 0x24
 800422a:	2400      	movs	r4, #0
 800422c:	e9cd 760b 	strd	r7, r6, [sp, #44]	@ 0x2c
 8004230:	4621      	mov	r1, r4
 8004232:	2200      	movs	r2, #0
 8004234:	4648      	mov	r0, r9
 8004236:	f7ff fa47 	bl	80036c8 <_ZN5Eigen8internal31generic_dense_assignment_kernelINS0_9evaluatorINS_6MatrixIdLi4ELi4ELi1ELi4ELi4EEEEENS2_INS_7ProductINS6_INS3_IdLi4ELi4ELi0ELi4ELi4EEES7_Li0EEENS_9TransposeIS7_EELi1EEEEENS0_9assign_opIddEELi0EE11assignCoeffEii>
 800423a:	4621      	mov	r1, r4
 800423c:	2201      	movs	r2, #1
 800423e:	4648      	mov	r0, r9
 8004240:	f7ff fa42 	bl	80036c8 <_ZN5Eigen8internal31generic_dense_assignment_kernelINS0_9evaluatorINS_6MatrixIdLi4ELi4ELi1ELi4ELi4EEEEENS2_INS_7ProductINS6_INS3_IdLi4ELi4ELi0ELi4ELi4EEES7_Li0EEENS_9TransposeIS7_EELi1EEEEENS0_9assign_opIddEELi0EE11assignCoeffEii>
 8004244:	4621      	mov	r1, r4
 8004246:	2202      	movs	r2, #2
 8004248:	4648      	mov	r0, r9
 800424a:	f7ff fa3d 	bl	80036c8 <_ZN5Eigen8internal31generic_dense_assignment_kernelINS0_9evaluatorINS_6MatrixIdLi4ELi4ELi1ELi4ELi4EEEEENS2_INS_7ProductINS6_INS3_IdLi4ELi4ELi0ELi4ELi4EEES7_Li0EEENS_9TransposeIS7_EELi1EEEEENS0_9assign_opIddEELi0EE11assignCoeffEii>
 800424e:	4621      	mov	r1, r4
 8004250:	3401      	adds	r4, #1
 8004252:	2203      	movs	r2, #3
 8004254:	4648      	mov	r0, r9
 8004256:	f7ff fa37 	bl	80036c8 <_ZN5Eigen8internal31generic_dense_assignment_kernelINS0_9evaluatorINS_6MatrixIdLi4ELi4ELi1ELi4ELi4EEEEENS2_INS_7ProductINS6_INS3_IdLi4ELi4ELi0ELi4ELi4EEES7_Li0EEENS_9TransposeIS7_EELi1EEEEENS0_9assign_opIddEELi0EE11assignCoeffEii>
 800425a:	2c04      	cmp	r4, #4
 800425c:	d1e8      	bne.n	8004230 <_ZN5Eigen8internal17product_evaluatorINS_7ProductINS2_INS_6MatrixIdLi4ELi4ELi0ELi4ELi4EEES4_Li0EEENS_9TransposeIS4_EELi0EEELi3ENS_10DenseShapeES9_ddEC1ERKS8_+0xa4>
 800425e:	4640      	mov	r0, r8
 8004260:	b034      	add	sp, #208	@ 0xd0
 8004262:	e8bd 87f0 	ldmia.w	sp!, {r4, r5, r6, r7, r8, r9, sl, pc}
 8004266:	bf00      	nop
 8004268:	0800b0a8 	.word	0x0800b0a8
 800426c:	0800cb07 	.word	0x0800cb07
 8004270:	0800b224 	.word	0x0800b224

08004274 <_ZN5Eigen8internal26call_dense_assignment_loopINS_6MatrixIdLi4ELi4ELi0ELi4ELi4EEENS_13CwiseBinaryOpINS0_13scalar_sum_opIddEEKNS_7ProductINS7_IS3_S3_Li0EEENS_9TransposeIS3_EELi0EEEKS3_EENS0_9assign_opIddEEEEvRT_RKT0_RKT1_>:
 8004274:	b5f0      	push	{r4, r5, r6, r7, lr}
 8004276:	b0b5      	sub	sp, #212	@ 0xd4
 8004278:	460f      	mov	r7, r1
 800427a:	4605      	mov	r5, r0
 800427c:	4616      	mov	r6, r2
 800427e:	f10d 0427 	add.w	r4, sp, #39	@ 0x27
 8004282:	f024 040f 	bic.w	r4, r4, #15
 8004286:	f104 0010 	add.w	r0, r4, #16
 800428a:	f7ff ff7f 	bl	800418c <_ZN5Eigen8internal17product_evaluatorINS_7ProductINS2_INS_6MatrixIdLi4ELi4ELi0ELi4ELi4EEES4_Li0EEENS_9TransposeIS4_EELi0EEELi3ENS_10DenseShapeES9_ddEC1ERKS8_>
 800428e:	68fb      	ldr	r3, [r7, #12]
 8004290:	2200      	movs	r2, #0
 8004292:	a802      	add	r0, sp, #8
 8004294:	f8c4 30a0 	str.w	r3, [r4, #160]	@ 0xa0
 8004298:	ab01      	add	r3, sp, #4
 800429a:	4611      	mov	r1, r2
 800429c:	9501      	str	r5, [sp, #4]
 800429e:	e9cd 3402 	strd	r3, r4, [sp, #8]
 80042a2:	e9cd 6504 	strd	r6, r5, [sp, #16]
 80042a6:	f7fe fc63 	bl	8002b70 <_ZN5Eigen8internal31generic_dense_assignment_kernelINS0_9evaluatorINS_6MatrixIdLi4ELi4ELi0ELi4ELi4EEEEENS2_INS_13CwiseBinaryOpINS0_13scalar_sum_opIddEEKNS_7ProductINS9_IS4_S4_Li0EEENS_9TransposeIS4_EELi0EEEKS4_EEEENS0_9assign_opIddEELi0EE11assignCoeffEii>
 80042aa:	a802      	add	r0, sp, #8
 80042ac:	2200      	movs	r2, #0
 80042ae:	2101      	movs	r1, #1
 80042b0:	f7fe fc5e 	bl	8002b70 <_ZN5Eigen8internal31generic_dense_assignment_kernelINS0_9evaluatorINS_6MatrixIdLi4ELi4ELi0ELi4ELi4EEEEENS2_INS_13CwiseBinaryOpINS0_13scalar_sum_opIddEEKNS_7ProductINS9_IS4_S4_Li0EEENS_9TransposeIS4_EELi0EEEKS4_EEEENS0_9assign_opIddEELi0EE11assignCoeffEii>
 80042b4:	a802      	add	r0, sp, #8
 80042b6:	2200      	movs	r2, #0
 80042b8:	2102      	movs	r1, #2
 80042ba:	f7fe fc59 	bl	8002b70 <_ZN5Eigen8internal31generic_dense_assignment_kernelINS0_9evaluatorINS_6MatrixIdLi4ELi4ELi0ELi4ELi4EEEEENS2_INS_13CwiseBinaryOpINS0_13scalar_sum_opIddEEKNS_7ProductINS9_IS4_S4_Li0EEENS_9TransposeIS4_EELi0EEEKS4_EEEENS0_9assign_opIddEELi0EE11assignCoeffEii>
 80042be:	a802      	add	r0, sp, #8
 80042c0:	2200      	movs	r2, #0
 80042c2:	2103      	movs	r1, #3
 80042c4:	f7fe fc54 	bl	8002b70 <_ZN5Eigen8internal31generic_dense_assignment_kernelINS0_9evaluatorINS_6MatrixIdLi4ELi4ELi0ELi4ELi4EEEEENS2_INS_13CwiseBinaryOpINS0_13scalar_sum_opIddEEKNS_7ProductINS9_IS4_S4_Li0EEENS_9TransposeIS4_EELi0EEEKS4_EEEENS0_9assign_opIddEELi0EE11assignCoeffEii>
 80042c8:	a802      	add	r0, sp, #8
 80042ca:	2201      	movs	r2, #1
 80042cc:	2100      	movs	r1, #0
 80042ce:	f7fe fc4f 	bl	8002b70 <_ZN5Eigen8internal31generic_dense_assignment_kernelINS0_9evaluatorINS_6MatrixIdLi4ELi4ELi0ELi4ELi4EEEEENS2_INS_13CwiseBinaryOpINS0_13scalar_sum_opIddEEKNS_7ProductINS9_IS4_S4_Li0EEENS_9TransposeIS4_EELi0EEEKS4_EEEENS0_9assign_opIddEELi0EE11assignCoeffEii>
 80042d2:	2201      	movs	r2, #1
 80042d4:	a802      	add	r0, sp, #8
 80042d6:	4611      	mov	r1, r2
 80042d8:	f7fe fc4a 	bl	8002b70 <_ZN5Eigen8internal31generic_dense_assignment_kernelINS0_9evaluatorINS_6MatrixIdLi4ELi4ELi0ELi4ELi4EEEEENS2_INS_13CwiseBinaryOpINS0_13scalar_sum_opIddEEKNS_7ProductINS9_IS4_S4_Li0EEENS_9TransposeIS4_EELi0EEEKS4_EEEENS0_9assign_opIddEELi0EE11assignCoeffEii>
 80042dc:	a802      	add	r0, sp, #8
 80042de:	f7fe fd57 	bl	8002d90 <_ZN5Eigen8internal55copy_using_evaluator_DefaultTraversal_CompleteUnrollingINS0_31generic_dense_assignment_kernelINS0_9evaluatorINS_6MatrixIdLi4ELi4ELi0ELi4ELi4EEEEENS3_INS_13CwiseBinaryOpINS0_13scalar_sum_opIddEEKNS_7ProductINSA_IS5_S5_Li0EEENS_9TransposeIS5_EELi0EEEKS5_EEEENS0_9assign_opIddEELi0EEELi6ELi16EE3runERSL_>
 80042e2:	b035      	add	sp, #212	@ 0xd4
 80042e4:	bdf0      	pop	{r4, r5, r6, r7, pc}

080042e6 <_ZN20ExtendedKalmanFilter7predictERKN5Eigen6MatrixIdLi3ELi1ELi0ELi3ELi1EEERKd>:
 80042e6:	b570      	push	{r4, r5, r6, lr}
 80042e8:	b0aa      	sub	sp, #168	@ 0xa8
 80042ea:	4613      	mov	r3, r2
 80042ec:	6802      	ldr	r2, [r0, #0]
 80042ee:	4604      	mov	r4, r0
 80042f0:	f10d 052f 	add.w	r5, sp, #47	@ 0x2f
 80042f4:	6856      	ldr	r6, [r2, #4]
 80042f6:	460a      	mov	r2, r1
 80042f8:	f025 050f 	bic.w	r5, r5, #15
 80042fc:	4601      	mov	r1, r0
 80042fe:	4628      	mov	r0, r5
 8004300:	47b0      	blx	r6
 8004302:	f504 73a8 	add.w	r3, r4, #336	@ 0x150
 8004306:	f104 0630 	add.w	r6, r4, #48	@ 0x30
 800430a:	2280      	movs	r2, #128	@ 0x80
 800430c:	4629      	mov	r1, r5
 800430e:	4618      	mov	r0, r3
 8004310:	f005 ff53 	bl	800a1ba <memcpy>
 8004314:	a902      	add	r1, sp, #8
 8004316:	e9cd 0602 	strd	r0, r6, [sp, #8]
 800431a:	4630      	mov	r0, r6
 800431c:	f7fe ff8c 	bl	8003238 <_ZN5Eigen8internal15call_assignmentINS_6MatrixIdLi4ELi1ELi0ELi4ELi1EEENS_7ProductINS2_IdLi4ELi4ELi0ELi4ELi4EEES3_Li0EEEEEvRT_RKT0_>
 8004320:	2300      	movs	r3, #0
 8004322:	a802      	add	r0, sp, #8
 8004324:	9602      	str	r6, [sp, #8]
 8004326:	9305      	str	r3, [sp, #20]
 8004328:	2304      	movs	r3, #4
 800432a:	9604      	str	r6, [sp, #16]
 800432c:	9307      	str	r3, [sp, #28]
 800432e:	f7fe fa4d 	bl	80027cc <_ZN5Eigen10MatrixBaseINS_5BlockINS_6MatrixIdLi4ELi1ELi0ELi4ELi1EEELi4ELi1ELb0EEEE9normalizeEv>
 8004332:	6823      	ldr	r3, [r4, #0]
 8004334:	4621      	mov	r1, r4
 8004336:	4628      	mov	r0, r5
 8004338:	689b      	ldr	r3, [r3, #8]
 800433a:	4798      	blx	r3
 800433c:	f104 0050 	add.w	r0, r4, #80	@ 0x50
 8004340:	aa01      	add	r2, sp, #4
 8004342:	34d0      	adds	r4, #208	@ 0xd0
 8004344:	a902      	add	r1, sp, #8
 8004346:	9504      	str	r5, [sp, #16]
 8004348:	9405      	str	r4, [sp, #20]
 800434a:	e9cd 5002 	strd	r5, r0, [sp, #8]
 800434e:	f7ff ff91 	bl	8004274 <_ZN5Eigen8internal26call_dense_assignment_loopINS_6MatrixIdLi4ELi4ELi0ELi4ELi4EEENS_13CwiseBinaryOpINS0_13scalar_sum_opIddEEKNS_7ProductINS7_IS3_S3_Li0EEENS_9TransposeIS3_EELi0EEEKS3_EENS0_9assign_opIddEEEEvRT_RKT0_RKT1_>
 8004352:	b02a      	add	sp, #168	@ 0xa8
 8004354:	bd70      	pop	{r4, r5, r6, pc}

08004356 <_ZN5Eigen8internal28aligned_stack_memory_handlerIdED1Ev>:
 8004356:	7a03      	ldrb	r3, [r0, #8]
 8004358:	b510      	push	{r4, lr}
 800435a:	4604      	mov	r4, r0
 800435c:	b12b      	cbz	r3, 800436a <_ZN5Eigen8internal28aligned_stack_memory_handlerIdED1Ev+0x14>
 800435e:	6803      	ldr	r3, [r0, #0]
 8004360:	b11b      	cbz	r3, 800436a <_ZN5Eigen8internal28aligned_stack_memory_handlerIdED1Ev+0x14>
 8004362:	f853 0c04 	ldr.w	r0, [r3, #-4]
 8004366:	f005 fd39 	bl	8009ddc <free>
 800436a:	4620      	mov	r0, r4
 800436c:	bd10      	pop	{r4, pc}
	...

08004370 <_ZN5Eigen8internal23triangular_solve_matrixIdiLi1ELi5ELb0ELi0ELi0ELi1EE3runEiiPKdiPdiiRNS0_15level3_blockingIddEE>:
 8004370:	e92d 4ff0 	stmdb	sp!, {r4, r5, r6, r7, r8, r9, sl, fp, lr}
 8004374:	b0b3      	sub	sp, #204	@ 0xcc
 8004376:	af06      	add	r7, sp, #24
 8004378:	66fb      	str	r3, [r7, #108]	@ 0x6c
 800437a:	f8d7 30dc 	ldr.w	r3, [r7, #220]	@ 0xdc
 800437e:	f8d7 60e4 	ldr.w	r6, [r7, #228]	@ 0xe4
 8004382:	2b01      	cmp	r3, #1
 8004384:	637a      	str	r2, [r7, #52]	@ 0x34
 8004386:	e9c7 1015 	strd	r1, r0, [r7, #84]	@ 0x54
 800438a:	d005      	beq.n	8004398 <_ZN5Eigen8internal23triangular_solve_matrixIdiLi1ELi5ELb0ELi0ELi0ELi1EE3runEiiPKdiPdiiRNS0_15level3_blockingIddEE+0x28>
 800438c:	4b86      	ldr	r3, [pc, #536]	@ (80045a8 <_ZN5Eigen8internal23triangular_solve_matrixIdiLi1ELi5ELb0ELi0ELi0ELi1EE3runEiiPKdiPdiiRNS0_15level3_blockingIddEE+0x238>)
 800438e:	21ae      	movs	r1, #174	@ 0xae
 8004390:	4a86      	ldr	r2, [pc, #536]	@ (80045ac <_ZN5Eigen8internal23triangular_solve_matrixIdiLi1ELi5ELb0ELi0ELi0ELi1EE3runEiiPKdiPdiiRNS0_15level3_blockingIddEE+0x23c>)
 8004392:	4887      	ldr	r0, [pc, #540]	@ (80045b0 <_ZN5Eigen8internal23triangular_solve_matrixIdiLi1ELi5ELb0ELi0ELi0ELi1EE3runEiiPKdiPdiiRNS0_15level3_blockingIddEE+0x240>)
 8004394:	f005 fcfc 	bl	8009d90 <__assert_func>
 8004398:	68b3      	ldr	r3, [r6, #8]
 800439a:	6dba      	ldr	r2, [r7, #88]	@ 0x58
 800439c:	f8d6 b010 	ldr.w	fp, [r6, #16]
 80043a0:	4293      	cmp	r3, r2
 80043a2:	bfa8      	it	ge
 80043a4:	4613      	movge	r3, r2
 80043a6:	fb0b f803 	mul.w	r8, fp, r3
 80043aa:	653b      	str	r3, [r7, #80]	@ 0x50
 80043ac:	6d7b      	ldr	r3, [r7, #84]	@ 0x54
 80043ae:	ea4f 05c8 	mov.w	r5, r8, lsl #3
 80043b2:	fb0b f403 	mul.w	r4, fp, r3
 80043b6:	6833      	ldr	r3, [r6, #0]
 80043b8:	67fb      	str	r3, [r7, #124]	@ 0x7c
 80043ba:	b963      	cbnz	r3, 80043d6 <_ZN5Eigen8internal23triangular_solve_matrixIdiLi1ELi5ELb0ELi0ELi0ELi1EE3runEiiPKdiPdiiRNS0_15level3_blockingIddEE+0x66>
 80043bc:	f5b5 3f00 	cmp.w	r5, #131072	@ 0x20000
 80043c0:	f200 808c 	bhi.w	80044dc <_ZN5Eigen8internal23triangular_solve_matrixIdiLi1ELi5ELb0ELi0ELi0ELi1EE3runEiiPKdiPdiiRNS0_15level3_blockingIddEE+0x16c>
 80043c4:	f105 0310 	add.w	r3, r5, #16
 80043c8:	ebad 0d03 	sub.w	sp, sp, r3
 80043cc:	f10d 0327 	add.w	r3, sp, #39	@ 0x27
 80043d0:	f023 030f 	bic.w	r3, r3, #15
 80043d4:	67fb      	str	r3, [r7, #124]	@ 0x7c
 80043d6:	6833      	ldr	r3, [r6, #0]
 80043d8:	2b00      	cmp	r3, #0
 80043da:	6ffb      	ldr	r3, [r7, #124]	@ 0x7c
 80043dc:	bf18      	it	ne
 80043de:	2300      	movne	r3, #0
 80043e0:	f5b5 3f00 	cmp.w	r5, #131072	@ 0x20000
 80043e4:	e9c7 3826 	strd	r3, r8, [r7, #152]	@ 0x98
 80043e8:	bf94      	ite	ls
 80043ea:	2500      	movls	r5, #0
 80043ec:	2501      	movhi	r5, #1
 80043ee:	6873      	ldr	r3, [r6, #4]
 80043f0:	f887 50a0 	strb.w	r5, [r7, #160]	@ 0xa0
 80043f4:	00e5      	lsls	r5, r4, #3
 80043f6:	673b      	str	r3, [r7, #112]	@ 0x70
 80043f8:	b95b      	cbnz	r3, 8004412 <_ZN5Eigen8internal23triangular_solve_matrixIdiLi1ELi5ELb0ELi0ELi0ELi1EE3runEiiPKdiPdiiRNS0_15level3_blockingIddEE+0xa2>
 80043fa:	f5b5 3f00 	cmp.w	r5, #131072	@ 0x20000
 80043fe:	d872      	bhi.n	80044e6 <_ZN5Eigen8internal23triangular_solve_matrixIdiLi1ELi5ELb0ELi0ELi0ELi1EE3runEiiPKdiPdiiRNS0_15level3_blockingIddEE+0x176>
 8004400:	f105 0310 	add.w	r3, r5, #16
 8004404:	ebad 0d03 	sub.w	sp, sp, r3
 8004408:	f10d 0327 	add.w	r3, sp, #39	@ 0x27
 800440c:	f023 030f 	bic.w	r3, r3, #15
 8004410:	673b      	str	r3, [r7, #112]	@ 0x70
 8004412:	6873      	ldr	r3, [r6, #4]
 8004414:	f107 0288 	add.w	r2, r7, #136	@ 0x88
 8004418:	f107 0184 	add.w	r1, r7, #132	@ 0x84
 800441c:	2000      	movs	r0, #0
 800441e:	2b00      	cmp	r3, #0
 8004420:	6f3b      	ldr	r3, [r7, #112]	@ 0x70
 8004422:	bf18      	it	ne
 8004424:	2300      	movne	r3, #0
 8004426:	f5b5 3f00 	cmp.w	r5, #131072	@ 0x20000
 800442a:	bf94      	ite	ls
 800442c:	2500      	movls	r5, #0
 800442e:	2501      	movhi	r5, #1
 8004430:	e9c7 3429 	strd	r3, r4, [r7, #164]	@ 0xa4
 8004434:	f107 038c 	add.w	r3, r7, #140	@ 0x8c
 8004438:	f887 50ac 	strb.w	r5, [r7, #172]	@ 0xac
 800443c:	f7fd ff7c 	bl	8002338 <_ZN5Eigen8internal20manage_caching_sizesENS_6ActionEPiS2_S2_>
 8004440:	6d7b      	ldr	r3, [r7, #84]	@ 0x54
 8004442:	2b00      	cmp	r3, #0
 8004444:	dd54      	ble.n	80044f0 <_ZN5Eigen8internal23triangular_solve_matrixIdiLi1ELi5ELb0ELi0ELi0ELi1EE3runEiiPKdiPdiiRNS0_15level3_blockingIddEE+0x180>
 8004446:	f8d7 20e0 	ldr.w	r2, [r7, #224]	@ 0xe0
 800444a:	6dbb      	ldr	r3, [r7, #88]	@ 0x58
 800444c:	429a      	cmp	r2, r3
 800444e:	bfb8      	it	lt
 8004450:	461a      	movlt	r2, r3
 8004452:	f8d7 3088 	ldr.w	r3, [r7, #136]	@ 0x88
 8004456:	0152      	lsls	r2, r2, #5
 8004458:	fbb3 f3f2 	udiv	r3, r3, r2
 800445c:	4259      	negs	r1, r3
 800445e:	f003 0203 	and.w	r2, r3, #3
 8004462:	f001 0103 	and.w	r1, r1, #3
 8004466:	bf58      	it	pl
 8004468:	424a      	negpl	r2, r1
 800446a:	1a9b      	subs	r3, r3, r2
 800446c:	6efa      	ldr	r2, [r7, #108]	@ 0x6c
 800446e:	2b04      	cmp	r3, #4
 8004470:	fb02 b20b 	mla	r2, r2, fp, fp
 8004474:	bfb8      	it	lt
 8004476:	2304      	movlt	r3, #4
 8004478:	00d2      	lsls	r2, r2, #3
 800447a:	677b      	str	r3, [r7, #116]	@ 0x74
 800447c:	6dbb      	ldr	r3, [r7, #88]	@ 0x58
 800447e:	6f79      	ldr	r1, [r7, #116]	@ 0x74
 8004480:	eba3 030b 	sub.w	r3, r3, fp
 8004484:	60ba      	str	r2, [r7, #8]
 8004486:	f8d7 20e0 	ldr.w	r2, [r7, #224]	@ 0xe0
 800448a:	66bb      	str	r3, [r7, #104]	@ 0x68
 800448c:	6efb      	ldr	r3, [r7, #108]	@ 0x6c
 800448e:	434a      	muls	r2, r1
 8004490:	fb0b f303 	mul.w	r3, fp, r3
 8004494:	617a      	str	r2, [r7, #20]
 8004496:	60fb      	str	r3, [r7, #12]
 8004498:	6efa      	ldr	r2, [r7, #108]	@ 0x6c
 800449a:	6efb      	ldr	r3, [r7, #108]	@ 0x6c
 800449c:	0092      	lsls	r2, r2, #2
 800449e:	3301      	adds	r3, #1
 80044a0:	61fa      	str	r2, [r7, #28]
 80044a2:	015a      	lsls	r2, r3, #5
 80044a4:	00db      	lsls	r3, r3, #3
 80044a6:	61ba      	str	r2, [r7, #24]
 80044a8:	623b      	str	r3, [r7, #32]
 80044aa:	f8d7 30e0 	ldr.w	r3, [r7, #224]	@ 0xe0
 80044ae:	00db      	lsls	r3, r3, #3
 80044b0:	627b      	str	r3, [r7, #36]	@ 0x24
 80044b2:	2308      	movs	r3, #8
 80044b4:	63bb      	str	r3, [r7, #56]	@ 0x38
 80044b6:	2300      	movs	r3, #0
 80044b8:	65fb      	str	r3, [r7, #92]	@ 0x5c
 80044ba:	667b      	str	r3, [r7, #100]	@ 0x64
 80044bc:	6e7b      	ldr	r3, [r7, #100]	@ 0x64
 80044be:	6dba      	ldr	r2, [r7, #88]	@ 0x58
 80044c0:	4293      	cmp	r3, r2
 80044c2:	db17      	blt.n	80044f4 <_ZN5Eigen8internal23triangular_solve_matrixIdiLi1ELi5ELb0ELi0ELi0ELi1EE3runEiiPKdiPdiiRNS0_15level3_blockingIddEE+0x184>
 80044c4:	f107 00a4 	add.w	r0, r7, #164	@ 0xa4
 80044c8:	f7ff ff45 	bl	8004356 <_ZN5Eigen8internal28aligned_stack_memory_handlerIdED1Ev>
 80044cc:	f107 0098 	add.w	r0, r7, #152	@ 0x98
 80044d0:	f7ff ff41 	bl	8004356 <_ZN5Eigen8internal28aligned_stack_memory_handlerIdED1Ev>
 80044d4:	37b4      	adds	r7, #180	@ 0xb4
 80044d6:	46bd      	mov	sp, r7
 80044d8:	e8bd 8ff0 	ldmia.w	sp!, {r4, r5, r6, r7, r8, r9, sl, fp, pc}
 80044dc:	4628      	mov	r0, r5
 80044de:	f7fd ff1f 	bl	8002320 <_ZN5Eigen8internal14aligned_mallocEj>
 80044e2:	67f8      	str	r0, [r7, #124]	@ 0x7c
 80044e4:	e777      	b.n	80043d6 <_ZN5Eigen8internal23triangular_solve_matrixIdiLi1ELi5ELb0ELi0ELi0ELi1EE3runEiiPKdiPdiiRNS0_15level3_blockingIddEE+0x66>
 80044e6:	4628      	mov	r0, r5
 80044e8:	f7fd ff1a 	bl	8002320 <_ZN5Eigen8internal14aligned_mallocEj>
 80044ec:	6738      	str	r0, [r7, #112]	@ 0x70
 80044ee:	e790      	b.n	8004412 <_ZN5Eigen8internal23triangular_solve_matrixIdiLi1ELi5ELb0ELi0ELi0ELi1EE3runEiiPKdiPdiiRNS0_15level3_blockingIddEE+0xa2>
 80044f0:	2300      	movs	r3, #0
 80044f2:	e7b3      	b.n	800445c <_ZN5Eigen8internal23triangular_solve_matrixIdiLi1ELi5ELb0ELi0ELi0ELi1EE3runEiiPKdiPdiiRNS0_15level3_blockingIddEE+0xec>
 80044f4:	6ebb      	ldr	r3, [r7, #104]	@ 0x68
 80044f6:	2500      	movs	r5, #0
 80044f8:	445b      	add	r3, fp
 80044fa:	663d      	str	r5, [r7, #96]	@ 0x60
 80044fc:	455b      	cmp	r3, fp
 80044fe:	62bb      	str	r3, [r7, #40]	@ 0x28
 8004500:	bfa8      	it	ge
 8004502:	465b      	movge	r3, fp
 8004504:	67bb      	str	r3, [r7, #120]	@ 0x78
 8004506:	6d7b      	ldr	r3, [r7, #84]	@ 0x54
 8004508:	63fb      	str	r3, [r7, #60]	@ 0x3c
 800450a:	e9d7 321d 	ldrd	r3, r2, [r7, #116]	@ 0x74
 800450e:	4353      	muls	r3, r2
 8004510:	00db      	lsls	r3, r3, #3
 8004512:	613b      	str	r3, [r7, #16]
 8004514:	6f3b      	ldr	r3, [r7, #112]	@ 0x70
 8004516:	64fb      	str	r3, [r7, #76]	@ 0x4c
 8004518:	6e3b      	ldr	r3, [r7, #96]	@ 0x60
 800451a:	6d7a      	ldr	r2, [r7, #84]	@ 0x54
 800451c:	4293      	cmp	r3, r2
 800451e:	db1b      	blt.n	8004558 <_ZN5Eigen8internal23triangular_solve_matrixIdiLi1ELi5ELb0ELi0ELi0ELi1EE3runEiiPKdiPdiiRNS0_15level3_blockingIddEE+0x1e8>
 8004520:	6e7b      	ldr	r3, [r7, #100]	@ 0x64
 8004522:	2600      	movs	r6, #0
 8004524:	6dfa      	ldr	r2, [r7, #92]	@ 0x5c
 8004526:	f04f 38ff 	mov.w	r8, #4294967295	@ 0xffffffff
 800452a:	445b      	add	r3, fp
 800452c:	667b      	str	r3, [r7, #100]	@ 0x64
 800452e:	6b7b      	ldr	r3, [r7, #52]	@ 0x34
 8004530:	6e7c      	ldr	r4, [r7, #100]	@ 0x64
 8004532:	eb03 09c2 	add.w	r9, r3, r2, lsl #3
 8004536:	6dbb      	ldr	r3, [r7, #88]	@ 0x58
 8004538:	429c      	cmp	r4, r3
 800453a:	f2c0 80c7 	blt.w	80046cc <_ZN5Eigen8internal23triangular_solve_matrixIdiLi1ELi5ELb0ELi0ELi0ELi1EE3runEiiPKdiPdiiRNS0_15level3_blockingIddEE+0x35c>
 800453e:	6abb      	ldr	r3, [r7, #40]	@ 0x28
 8004540:	68fa      	ldr	r2, [r7, #12]
 8004542:	eba3 034b 	sub.w	r3, r3, fp, lsl #1
 8004546:	66bb      	str	r3, [r7, #104]	@ 0x68
 8004548:	6dfb      	ldr	r3, [r7, #92]	@ 0x5c
 800454a:	4413      	add	r3, r2
 800454c:	68ba      	ldr	r2, [r7, #8]
 800454e:	65fb      	str	r3, [r7, #92]	@ 0x5c
 8004550:	6bbb      	ldr	r3, [r7, #56]	@ 0x38
 8004552:	4413      	add	r3, r2
 8004554:	63bb      	str	r3, [r7, #56]	@ 0x38
 8004556:	e7b1      	b.n	80044bc <_ZN5Eigen8internal23triangular_solve_matrixIdiLi1ELi5ELb0ELi0ELi0ELi1EE3runEiiPKdiPdiiRNS0_15level3_blockingIddEE+0x14c>
 8004558:	6bfb      	ldr	r3, [r7, #60]	@ 0x3c
 800455a:	2600      	movs	r6, #0
 800455c:	6f7a      	ldr	r2, [r7, #116]	@ 0x74
 800455e:	f8d7 8064 	ldr.w	r8, [r7, #100]	@ 0x64
 8004562:	4293      	cmp	r3, r2
 8004564:	bfa8      	it	ge
 8004566:	4613      	movge	r3, r2
 8004568:	64bb      	str	r3, [r7, #72]	@ 0x48
 800456a:	f8d7 30d8 	ldr.w	r3, [r7, #216]	@ 0xd8
 800456e:	6cba      	ldr	r2, [r7, #72]	@ 0x48
 8004570:	eb03 03c5 	add.w	r3, r3, r5, lsl #3
 8004574:	62fb      	str	r3, [r7, #44]	@ 0x2c
 8004576:	6bbb      	ldr	r3, [r7, #56]	@ 0x38
 8004578:	643b      	str	r3, [r7, #64]	@ 0x40
 800457a:	6dfb      	ldr	r3, [r7, #92]	@ 0x5c
 800457c:	647b      	str	r3, [r7, #68]	@ 0x44
 800457e:	6e3b      	ldr	r3, [r7, #96]	@ 0x60
 8004580:	4413      	add	r3, r2
 8004582:	607b      	str	r3, [r7, #4]
 8004584:	6fbb      	ldr	r3, [r7, #120]	@ 0x78
 8004586:	429e      	cmp	r6, r3
 8004588:	db14      	blt.n	80045b4 <_ZN5Eigen8internal23triangular_solve_matrixIdiLi1ELi5ELb0ELi0ELi0ELi1EE3runEiiPKdiPdiiRNS0_15level3_blockingIddEE+0x244>
 800458a:	6f7a      	ldr	r2, [r7, #116]	@ 0x74
 800458c:	6e3b      	ldr	r3, [r7, #96]	@ 0x60
 800458e:	4413      	add	r3, r2
 8004590:	663b      	str	r3, [r7, #96]	@ 0x60
 8004592:	6bfb      	ldr	r3, [r7, #60]	@ 0x3c
 8004594:	1a9b      	subs	r3, r3, r2
 8004596:	693a      	ldr	r2, [r7, #16]
 8004598:	63fb      	str	r3, [r7, #60]	@ 0x3c
 800459a:	697b      	ldr	r3, [r7, #20]
 800459c:	441d      	add	r5, r3
 800459e:	6cfb      	ldr	r3, [r7, #76]	@ 0x4c
 80045a0:	4413      	add	r3, r2
 80045a2:	64fb      	str	r3, [r7, #76]	@ 0x4c
 80045a4:	e7b8      	b.n	8004518 <_ZN5Eigen8internal23triangular_solve_matrixIdiLi1ELi5ELb0ELi0ELi0ELi1EE3runEiiPKdiPdiiRNS0_15level3_blockingIddEE+0x1a8>
 80045a6:	bf00      	nop
 80045a8:	0800cb95 	.word	0x0800cb95
 80045ac:	0800cb9d 	.word	0x0800cb9d
 80045b0:	0800cc68 	.word	0x0800cc68
 80045b4:	6fbb      	ldr	r3, [r7, #120]	@ 0x78
 80045b6:	f108 0c01 	add.w	ip, r8, #1
 80045ba:	6c38      	ldr	r0, [r7, #64]	@ 0x40
 80045bc:	1b9b      	subs	r3, r3, r6
 80045be:	2b04      	cmp	r3, #4
 80045c0:	461c      	mov	r4, r3
 80045c2:	633b      	str	r3, [r7, #48]	@ 0x30
 80045c4:	bfa8      	it	ge
 80045c6:	2404      	movge	r4, #4
 80045c8:	1e62      	subs	r2, r4, #1
 80045ca:	6afb      	ldr	r3, [r7, #44]	@ 0x2c
 80045cc:	f8d7 e060 	ldr.w	lr, [r7, #96]	@ 0x60
 80045d0:	eb03 01cc 	add.w	r1, r3, ip, lsl #3
 80045d4:	6b7b      	ldr	r3, [r7, #52]	@ 0x34
 80045d6:	468a      	mov	sl, r1
 80045d8:	f04f 0900 	mov.w	r9, #0
 80045dc:	4403      	add	r3, r0
 80045de:	ed11 7b02 	vldr	d7, [r1, #-8]
 80045e2:	eeb1 7b47 	vneg.f64	d7, d7
 80045e6:	4591      	cmp	r9, r2
 80045e8:	db65      	blt.n	80046b6 <_ZN5Eigen8internal23triangular_solve_matrixIdiLi1ELi5ELb0ELi0ELi0ELi1EE3runEiiPKdiPdiiRNS0_15level3_blockingIddEE+0x346>
 80045ea:	6a7b      	ldr	r3, [r7, #36]	@ 0x24
 80045ec:	f10e 0e01 	add.w	lr, lr, #1
 80045f0:	4419      	add	r1, r3
 80045f2:	687b      	ldr	r3, [r7, #4]
 80045f4:	4573      	cmp	r3, lr
 80045f6:	d1ed      	bne.n	80045d4 <_ZN5Eigen8internal23triangular_solve_matrixIdiLi1ELi5ELb0ELi0ELi0ELi1EE3runEiiPKdiPdiiRNS0_15level3_blockingIddEE+0x264>
 80045f8:	6a3b      	ldr	r3, [r7, #32]
 80045fa:	3a01      	subs	r2, #1
 80045fc:	f10c 0c01 	add.w	ip, ip, #1
 8004600:	4418      	add	r0, r3
 8004602:	1c53      	adds	r3, r2, #1
 8004604:	d1e1      	bne.n	80045ca <_ZN5Eigen8internal23triangular_solve_matrixIdiLi1ELi5ELb0ELi0ELi0ELi1EE3runEiiPKdiPdiiRNS0_15level3_blockingIddEE+0x25a>
 8004606:	6b3b      	ldr	r3, [r7, #48]	@ 0x30
 8004608:	4622      	mov	r2, r4
 800460a:	f107 0190 	add.w	r1, r7, #144	@ 0x90
 800460e:	eba3 0904 	sub.w	r9, r3, r4
 8004612:	6afb      	ldr	r3, [r7, #44]	@ 0x2c
 8004614:	eb03 03c8 	add.w	r3, r3, r8, lsl #3
 8004618:	f8c7 3090 	str.w	r3, [r7, #144]	@ 0x90
 800461c:	f8d7 30e0 	ldr.w	r3, [r7, #224]	@ 0xe0
 8004620:	f8c7 3094 	str.w	r3, [r7, #148]	@ 0x94
 8004624:	9601      	str	r6, [sp, #4]
 8004626:	6fbb      	ldr	r3, [r7, #120]	@ 0x78
 8004628:	9300      	str	r3, [sp, #0]
 800462a:	6cbb      	ldr	r3, [r7, #72]	@ 0x48
 800462c:	6cf8      	ldr	r0, [r7, #76]	@ 0x4c
 800462e:	f7fd fb9b 	bl	8001d68 <_ZN5Eigen8internal13gemm_pack_rhsIdiNS0_16blas_data_mapperIdiLi0ELi0ELi1EEELi4ELi0ELb0ELb1EEclEPdRKS3_iiii.isra.0>
 8004632:	f1b9 0f00 	cmp.w	r9, #0
 8004636:	dd32      	ble.n	800469e <_ZN5Eigen8internal23triangular_solve_matrixIdiLi1ELi5ELb0ELi0ELi0ELi1EE3runEiiPKdiPdiiRNS0_15level3_blockingIddEE+0x32e>
 8004638:	6c7b      	ldr	r3, [r7, #68]	@ 0x44
 800463a:	eb08 0a04 	add.w	sl, r8, r4
 800463e:	6b7a      	ldr	r2, [r7, #52]	@ 0x34
 8004640:	f107 0190 	add.w	r1, r7, #144	@ 0x90
 8004644:	4453      	add	r3, sl
 8004646:	44aa      	add	sl, r5
 8004648:	eb02 03c3 	add.w	r3, r2, r3, lsl #3
 800464c:	4622      	mov	r2, r4
 800464e:	f8c7 3090 	str.w	r3, [r7, #144]	@ 0x90
 8004652:	6efb      	ldr	r3, [r7, #108]	@ 0x6c
 8004654:	f8c7 3094 	str.w	r3, [r7, #148]	@ 0x94
 8004658:	2300      	movs	r3, #0
 800465a:	e9cd 3300 	strd	r3, r3, [sp]
 800465e:	464b      	mov	r3, r9
 8004660:	6ff8      	ldr	r0, [r7, #124]	@ 0x7c
 8004662:	f7fd fb53 	bl	8001d0c <_ZN5Eigen8internal13gemm_pack_lhsIdiNS0_22const_blas_data_mapperIdiLi0EEELi1ELi1EdLi0ELb0ELb0EEclEPdRKS3_iiii.isra.0>
 8004666:	f8d7 30d8 	ldr.w	r3, [r7, #216]	@ 0xd8
 800466a:	eebf 0b00 	vmov.f64	d0, #240	@ 0xbf800000 -1.0
 800466e:	f107 0090 	add.w	r0, r7, #144	@ 0x90
 8004672:	eb03 03ca 	add.w	r3, r3, sl, lsl #3
 8004676:	f8c7 3090 	str.w	r3, [r7, #144]	@ 0x90
 800467a:	f8d7 30e0 	ldr.w	r3, [r7, #224]	@ 0xe0
 800467e:	f8c7 3094 	str.w	r3, [r7, #148]	@ 0x94
 8004682:	2300      	movs	r3, #0
 8004684:	9605      	str	r6, [sp, #20]
 8004686:	9304      	str	r3, [sp, #16]
 8004688:	6fbb      	ldr	r3, [r7, #120]	@ 0x78
 800468a:	e9cd 4302 	strd	r4, r3, [sp, #8]
 800468e:	6cbb      	ldr	r3, [r7, #72]	@ 0x48
 8004690:	e9cd 4300 	strd	r4, r3, [sp]
 8004694:	464b      	mov	r3, r9
 8004696:	6cfa      	ldr	r2, [r7, #76]	@ 0x4c
 8004698:	6ff9      	ldr	r1, [r7, #124]	@ 0x7c
 800469a:	f7fd fbf9 	bl	8001e90 <_ZN5Eigen8internal11gebp_kernelIddiNS0_16blas_data_mapperIdiLi0ELi0ELi1EEELi1ELi4ELb0ELb0EEclERKS3_PKdS8_iiidiiii.isra.0>
 800469e:	6c7b      	ldr	r3, [r7, #68]	@ 0x44
 80046a0:	3604      	adds	r6, #4
 80046a2:	69fa      	ldr	r2, [r7, #28]
 80046a4:	f108 0804 	add.w	r8, r8, #4
 80046a8:	4413      	add	r3, r2
 80046aa:	69ba      	ldr	r2, [r7, #24]
 80046ac:	647b      	str	r3, [r7, #68]	@ 0x44
 80046ae:	6c3b      	ldr	r3, [r7, #64]	@ 0x40
 80046b0:	4413      	add	r3, r2
 80046b2:	643b      	str	r3, [r7, #64]	@ 0x40
 80046b4:	e766      	b.n	8004584 <_ZN5Eigen8internal23triangular_solve_matrixIdiLi1ELi5ELb0ELi0ELi0ELi1EE3runEiiPKdiPdiiRNS0_15level3_blockingIddEE+0x214>
 80046b6:	ecb3 5b02 	vldmia	r3!, {d5}
 80046ba:	ed9a 6b00 	vldr	d6, [sl]
 80046be:	f109 0901 	add.w	r9, r9, #1
 80046c2:	eea5 6b07 	vfma.f64	d6, d5, d7
 80046c6:	ecaa 6b02 	vstmia	sl!, {d6}
 80046ca:	e78c      	b.n	80045e6 <_ZN5Eigen8internal23triangular_solve_matrixIdiLi1ELi5ELb0ELi0ELi0ELi1EE3runEiiPKdiPdiiRNS0_15level3_blockingIddEE+0x276>
 80046cc:	6ebb      	ldr	r3, [r7, #104]	@ 0x68
 80046ce:	6d3a      	ldr	r2, [r7, #80]	@ 0x50
 80046d0:	4293      	cmp	r3, r2
 80046d2:	bfa8      	it	ge
 80046d4:	4613      	movge	r3, r2
 80046d6:	2b00      	cmp	r3, #0
 80046d8:	469a      	mov	sl, r3
 80046da:	dd2a      	ble.n	8004732 <_ZN5Eigen8internal23triangular_solve_matrixIdiLi1ELi5ELb0ELi0ELi0ELi1EE3runEiiPKdiPdiiRNS0_15level3_blockingIddEE+0x3c2>
 80046dc:	eb09 03c4 	add.w	r3, r9, r4, lsl #3
 80046e0:	f107 0190 	add.w	r1, r7, #144	@ 0x90
 80046e4:	00e5      	lsls	r5, r4, #3
 80046e6:	f8c7 3090 	str.w	r3, [r7, #144]	@ 0x90
 80046ea:	6efb      	ldr	r3, [r7, #108]	@ 0x6c
 80046ec:	f8c7 3094 	str.w	r3, [r7, #148]	@ 0x94
 80046f0:	4653      	mov	r3, sl
 80046f2:	e9cd 6600 	strd	r6, r6, [sp]
 80046f6:	6fba      	ldr	r2, [r7, #120]	@ 0x78
 80046f8:	6ff8      	ldr	r0, [r7, #124]	@ 0x7c
 80046fa:	f7fd fb07 	bl	8001d0c <_ZN5Eigen8internal13gemm_pack_lhsIdiNS0_22const_blas_data_mapperIdiLi0EEELi1ELi1EdLi0ELb0ELb0EEclEPdRKS3_iiii.isra.0>
 80046fe:	f8d7 30d8 	ldr.w	r3, [r7, #216]	@ 0xd8
 8004702:	eebf 0b00 	vmov.f64	d0, #240	@ 0xbf800000 -1.0
 8004706:	f107 0090 	add.w	r0, r7, #144	@ 0x90
 800470a:	441d      	add	r5, r3
 800470c:	f8d7 30e0 	ldr.w	r3, [r7, #224]	@ 0xe0
 8004710:	f8c7 5090 	str.w	r5, [r7, #144]	@ 0x90
 8004714:	f8c7 3094 	str.w	r3, [r7, #148]	@ 0x94
 8004718:	e9cd 6604 	strd	r6, r6, [sp, #16]
 800471c:	e9cd 8802 	strd	r8, r8, [sp, #8]
 8004720:	6d7b      	ldr	r3, [r7, #84]	@ 0x54
 8004722:	9301      	str	r3, [sp, #4]
 8004724:	6fbb      	ldr	r3, [r7, #120]	@ 0x78
 8004726:	9300      	str	r3, [sp, #0]
 8004728:	4653      	mov	r3, sl
 800472a:	6f3a      	ldr	r2, [r7, #112]	@ 0x70
 800472c:	6ff9      	ldr	r1, [r7, #124]	@ 0x7c
 800472e:	f7fd fbaf 	bl	8001e90 <_ZN5Eigen8internal11gebp_kernelIddiNS0_16blas_data_mapperIdiLi0ELi0ELi1EEELi1ELi4ELb0ELb0EEclERKS3_PKdS8_iiidiiii.isra.0>
 8004732:	6d3b      	ldr	r3, [r7, #80]	@ 0x50
 8004734:	6d3a      	ldr	r2, [r7, #80]	@ 0x50
 8004736:	441c      	add	r4, r3
 8004738:	6ebb      	ldr	r3, [r7, #104]	@ 0x68
 800473a:	1a9b      	subs	r3, r3, r2
 800473c:	66bb      	str	r3, [r7, #104]	@ 0x68
 800473e:	e6fa      	b.n	8004536 <_ZN5Eigen8internal23triangular_solve_matrixIdiLi1ELi5ELb0ELi0ELi0ELi1EE3runEiiPKdiPdiiRNS0_15level3_blockingIddEE+0x1c6>

08004740 <_ZN5Eigen8internal54copy_using_evaluator_LinearTraversal_CompleteUnrollingINS0_31generic_dense_assignment_kernelINS0_9evaluatorINS_6MatrixIdLi6ELi6ELi0ELi6ELi6EEEEENS3_INS_14CwiseNullaryOpINS0_18scalar_constant_opIdEES5_EEEENS0_13mul_assign_opIddEELi0EEELi26ELi36EE3runERSE_>:
 8004740:	b510      	push	{r4, lr}
 8004742:	4604      	mov	r4, r0
 8004744:	211a      	movs	r1, #26
 8004746:	f7fe f807 	bl	8002758 <_ZN5Eigen8internal31generic_dense_assignment_kernelINS0_9evaluatorINS_6MatrixIdLi6ELi6ELi0ELi6ELi6EEEEENS2_INS_14CwiseNullaryOpINS0_18scalar_constant_opIdEES4_EEEENS0_13mul_assign_opIddEELi0EE11assignCoeffEi>
 800474a:	211b      	movs	r1, #27
 800474c:	4620      	mov	r0, r4
 800474e:	f7fe f803 	bl	8002758 <_ZN5Eigen8internal31generic_dense_assignment_kernelINS0_9evaluatorINS_6MatrixIdLi6ELi6ELi0ELi6ELi6EEEEENS2_INS_14CwiseNullaryOpINS0_18scalar_constant_opIdEES4_EEEENS0_13mul_assign_opIddEELi0EE11assignCoeffEi>
 8004752:	4620      	mov	r0, r4
 8004754:	211c      	movs	r1, #28
 8004756:	f7fd ffff 	bl	8002758 <_ZN5Eigen8internal31generic_dense_assignment_kernelINS0_9evaluatorINS_6MatrixIdLi6ELi6ELi0ELi6ELi6EEEEENS2_INS_14CwiseNullaryOpINS0_18scalar_constant_opIdEES4_EEEENS0_13mul_assign_opIddEELi0EE11assignCoeffEi>
 800475a:	4620      	mov	r0, r4
 800475c:	211d      	movs	r1, #29
 800475e:	f7fd fffb 	bl	8002758 <_ZN5Eigen8internal31generic_dense_assignment_kernelINS0_9evaluatorINS_6MatrixIdLi6ELi6ELi0ELi6ELi6EEEEENS2_INS_14CwiseNullaryOpINS0_18scalar_constant_opIdEES4_EEEENS0_13mul_assign_opIddEELi0EE11assignCoeffEi>
 8004762:	4620      	mov	r0, r4
 8004764:	211e      	movs	r1, #30
 8004766:	f7fd fff7 	bl	8002758 <_ZN5Eigen8internal31generic_dense_assignment_kernelINS0_9evaluatorINS_6MatrixIdLi6ELi6ELi0ELi6ELi6EEEEENS2_INS_14CwiseNullaryOpINS0_18scalar_constant_opIdEES4_EEEENS0_13mul_assign_opIddEELi0EE11assignCoeffEi>
 800476a:	4620      	mov	r0, r4
 800476c:	211f      	movs	r1, #31
 800476e:	f7fd fff3 	bl	8002758 <_ZN5Eigen8internal31generic_dense_assignment_kernelINS0_9evaluatorINS_6MatrixIdLi6ELi6ELi0ELi6ELi6EEEEENS2_INS_14CwiseNullaryOpINS0_18scalar_constant_opIdEES4_EEEENS0_13mul_assign_opIddEELi0EE11assignCoeffEi>
 8004772:	4620      	mov	r0, r4
 8004774:	2120      	movs	r1, #32
 8004776:	f7fd ffef 	bl	8002758 <_ZN5Eigen8internal31generic_dense_assignment_kernelINS0_9evaluatorINS_6MatrixIdLi6ELi6ELi0ELi6ELi6EEEEENS2_INS_14CwiseNullaryOpINS0_18scalar_constant_opIdEES4_EEEENS0_13mul_assign_opIddEELi0EE11assignCoeffEi>
 800477a:	4620      	mov	r0, r4
 800477c:	2121      	movs	r1, #33	@ 0x21
 800477e:	f7fd ffeb 	bl	8002758 <_ZN5Eigen8internal31generic_dense_assignment_kernelINS0_9evaluatorINS_6MatrixIdLi6ELi6ELi0ELi6ELi6EEEEENS2_INS_14CwiseNullaryOpINS0_18scalar_constant_opIdEES4_EEEENS0_13mul_assign_opIddEELi0EE11assignCoeffEi>
 8004782:	4620      	mov	r0, r4
 8004784:	2122      	movs	r1, #34	@ 0x22
 8004786:	f7fd ffe7 	bl	8002758 <_ZN5Eigen8internal31generic_dense_assignment_kernelINS0_9evaluatorINS_6MatrixIdLi6ELi6ELi0ELi6ELi6EEEEENS2_INS_14CwiseNullaryOpINS0_18scalar_constant_opIdEES4_EEEENS0_13mul_assign_opIddEELi0EE11assignCoeffEi>
 800478a:	2123      	movs	r1, #35	@ 0x23
 800478c:	4620      	mov	r0, r4
 800478e:	f7fd ffe3 	bl	8002758 <_ZN5Eigen8internal31generic_dense_assignment_kernelINS0_9evaluatorINS_6MatrixIdLi6ELi6ELi0ELi6ELi6EEEEENS2_INS_14CwiseNullaryOpINS0_18scalar_constant_opIdEES4_EEEENS0_13mul_assign_opIddEELi0EE11assignCoeffEi>
 8004792:	bd10      	pop	{r4, pc}

08004794 <_ZN5Eigen8internal54copy_using_evaluator_LinearTraversal_CompleteUnrollingINS0_31generic_dense_assignment_kernelINS0_9evaluatorINS_6MatrixIdLi6ELi6ELi0ELi6ELi6EEEEENS3_INS_14CwiseNullaryOpINS0_18scalar_constant_opIdEES5_EEEENS0_13mul_assign_opIddEELi0EEELi12ELi36EE3runERSE_>:
 8004794:	b510      	push	{r4, lr}
 8004796:	4604      	mov	r4, r0
 8004798:	210c      	movs	r1, #12
 800479a:	f7fd ffdd 	bl	8002758 <_ZN5Eigen8internal31generic_dense_assignment_kernelINS0_9evaluatorINS_6MatrixIdLi6ELi6ELi0ELi6ELi6EEEEENS2_INS_14CwiseNullaryOpINS0_18scalar_constant_opIdEES4_EEEENS0_13mul_assign_opIddEELi0EE11assignCoeffEi>
 800479e:	210d      	movs	r1, #13
 80047a0:	4620      	mov	r0, r4
 80047a2:	f7fd ffd9 	bl	8002758 <_ZN5Eigen8internal31generic_dense_assignment_kernelINS0_9evaluatorINS_6MatrixIdLi6ELi6ELi0ELi6ELi6EEEEENS2_INS_14CwiseNullaryOpINS0_18scalar_constant_opIdEES4_EEEENS0_13mul_assign_opIddEELi0EE11assignCoeffEi>
 80047a6:	4620      	mov	r0, r4
 80047a8:	210e      	movs	r1, #14
 80047aa:	f7fd ffd5 	bl	8002758 <_ZN5Eigen8internal31generic_dense_assignment_kernelINS0_9evaluatorINS_6MatrixIdLi6ELi6ELi0ELi6ELi6EEEEENS2_INS_14CwiseNullaryOpINS0_18scalar_constant_opIdEES4_EEEENS0_13mul_assign_opIddEELi0EE11assignCoeffEi>
 80047ae:	4620      	mov	r0, r4
 80047b0:	210f      	movs	r1, #15
 80047b2:	f7fd ffd1 	bl	8002758 <_ZN5Eigen8internal31generic_dense_assignment_kernelINS0_9evaluatorINS_6MatrixIdLi6ELi6ELi0ELi6ELi6EEEEENS2_INS_14CwiseNullaryOpINS0_18scalar_constant_opIdEES4_EEEENS0_13mul_assign_opIddEELi0EE11assignCoeffEi>
 80047b6:	4620      	mov	r0, r4
 80047b8:	2110      	movs	r1, #16
 80047ba:	f7fd ffcd 	bl	8002758 <_ZN5Eigen8internal31generic_dense_assignment_kernelINS0_9evaluatorINS_6MatrixIdLi6ELi6ELi0ELi6ELi6EEEEENS2_INS_14CwiseNullaryOpINS0_18scalar_constant_opIdEES4_EEEENS0_13mul_assign_opIddEELi0EE11assignCoeffEi>
 80047be:	4620      	mov	r0, r4
 80047c0:	2111      	movs	r1, #17
 80047c2:	f7fd ffc9 	bl	8002758 <_ZN5Eigen8internal31generic_dense_assignment_kernelINS0_9evaluatorINS_6MatrixIdLi6ELi6ELi0ELi6ELi6EEEEENS2_INS_14CwiseNullaryOpINS0_18scalar_constant_opIdEES4_EEEENS0_13mul_assign_opIddEELi0EE11assignCoeffEi>
 80047c6:	4620      	mov	r0, r4
 80047c8:	2112      	movs	r1, #18
 80047ca:	f7fd ffc5 	bl	8002758 <_ZN5Eigen8internal31generic_dense_assignment_kernelINS0_9evaluatorINS_6MatrixIdLi6ELi6ELi0ELi6ELi6EEEEENS2_INS_14CwiseNullaryOpINS0_18scalar_constant_opIdEES4_EEEENS0_13mul_assign_opIddEELi0EE11assignCoeffEi>
 80047ce:	4620      	mov	r0, r4
 80047d0:	2113      	movs	r1, #19
 80047d2:	f7fd ffc1 	bl	8002758 <_ZN5Eigen8internal31generic_dense_assignment_kernelINS0_9evaluatorINS_6MatrixIdLi6ELi6ELi0ELi6ELi6EEEEENS2_INS_14CwiseNullaryOpINS0_18scalar_constant_opIdEES4_EEEENS0_13mul_assign_opIddEELi0EE11assignCoeffEi>
 80047d6:	4620      	mov	r0, r4
 80047d8:	2114      	movs	r1, #20
 80047da:	f7fd ffbd 	bl	8002758 <_ZN5Eigen8internal31generic_dense_assignment_kernelINS0_9evaluatorINS_6MatrixIdLi6ELi6ELi0ELi6ELi6EEEEENS2_INS_14CwiseNullaryOpINS0_18scalar_constant_opIdEES4_EEEENS0_13mul_assign_opIddEELi0EE11assignCoeffEi>
 80047de:	4620      	mov	r0, r4
 80047e0:	2115      	movs	r1, #21
 80047e2:	f7fd ffb9 	bl	8002758 <_ZN5Eigen8internal31generic_dense_assignment_kernelINS0_9evaluatorINS_6MatrixIdLi6ELi6ELi0ELi6ELi6EEEEENS2_INS_14CwiseNullaryOpINS0_18scalar_constant_opIdEES4_EEEENS0_13mul_assign_opIddEELi0EE11assignCoeffEi>
 80047e6:	4620      	mov	r0, r4
 80047e8:	2116      	movs	r1, #22
 80047ea:	f7fd ffb5 	bl	8002758 <_ZN5Eigen8internal31generic_dense_assignment_kernelINS0_9evaluatorINS_6MatrixIdLi6ELi6ELi0ELi6ELi6EEEEENS2_INS_14CwiseNullaryOpINS0_18scalar_constant_opIdEES4_EEEENS0_13mul_assign_opIddEELi0EE11assignCoeffEi>
 80047ee:	4620      	mov	r0, r4
 80047f0:	2117      	movs	r1, #23
 80047f2:	f7fd ffb1 	bl	8002758 <_ZN5Eigen8internal31generic_dense_assignment_kernelINS0_9evaluatorINS_6MatrixIdLi6ELi6ELi0ELi6ELi6EEEEENS2_INS_14CwiseNullaryOpINS0_18scalar_constant_opIdEES4_EEEENS0_13mul_assign_opIddEELi0EE11assignCoeffEi>
 80047f6:	4620      	mov	r0, r4
 80047f8:	2118      	movs	r1, #24
 80047fa:	f7fd ffad 	bl	8002758 <_ZN5Eigen8internal31generic_dense_assignment_kernelINS0_9evaluatorINS_6MatrixIdLi6ELi6ELi0ELi6ELi6EEEEENS2_INS_14CwiseNullaryOpINS0_18scalar_constant_opIdEES4_EEEENS0_13mul_assign_opIddEELi0EE11assignCoeffEi>
 80047fe:	4620      	mov	r0, r4
 8004800:	2119      	movs	r1, #25
 8004802:	f7fd ffa9 	bl	8002758 <_ZN5Eigen8internal31generic_dense_assignment_kernelINS0_9evaluatorINS_6MatrixIdLi6ELi6ELi0ELi6ELi6EEEEENS2_INS_14CwiseNullaryOpINS0_18scalar_constant_opIdEES4_EEEENS0_13mul_assign_opIddEELi0EE11assignCoeffEi>
 8004806:	4620      	mov	r0, r4
 8004808:	f7ff ff9a 	bl	8004740 <_ZN5Eigen8internal54copy_using_evaluator_LinearTraversal_CompleteUnrollingINS0_31generic_dense_assignment_kernelINS0_9evaluatorINS_6MatrixIdLi6ELi6ELi0ELi6ELi6EEEEENS3_INS_14CwiseNullaryOpINS0_18scalar_constant_opIdEES5_EEEENS0_13mul_assign_opIddEELi0EEELi26ELi36EE3runERSE_>
 800480c:	bd10      	pop	{r4, pc}

0800480e <_ZN5Eigen8internal54copy_using_evaluator_LinearTraversal_CompleteUnrollingINS0_31generic_dense_assignment_kernelINS0_9evaluatorINS_6MatrixIdLi6ELi6ELi0ELi6ELi6EEEEENS3_INS_14CwiseNullaryOpINS0_18scalar_constant_opIdEES5_EEEENS0_13mul_assign_opIddEELi0EEELi3ELi36EE3runERSE_>:
 800480e:	b510      	push	{r4, lr}
 8004810:	4604      	mov	r4, r0
 8004812:	2103      	movs	r1, #3
 8004814:	f7fd ffa0 	bl	8002758 <_ZN5Eigen8internal31generic_dense_assignment_kernelINS0_9evaluatorINS_6MatrixIdLi6ELi6ELi0ELi6ELi6EEEEENS2_INS_14CwiseNullaryOpINS0_18scalar_constant_opIdEES4_EEEENS0_13mul_assign_opIddEELi0EE11assignCoeffEi>
 8004818:	2104      	movs	r1, #4
 800481a:	4620      	mov	r0, r4
 800481c:	f7fd ff9c 	bl	8002758 <_ZN5Eigen8internal31generic_dense_assignment_kernelINS0_9evaluatorINS_6MatrixIdLi6ELi6ELi0ELi6ELi6EEEEENS2_INS_14CwiseNullaryOpINS0_18scalar_constant_opIdEES4_EEEENS0_13mul_assign_opIddEELi0EE11assignCoeffEi>
 8004820:	4620      	mov	r0, r4
 8004822:	2105      	movs	r1, #5
 8004824:	f7fd ff98 	bl	8002758 <_ZN5Eigen8internal31generic_dense_assignment_kernelINS0_9evaluatorINS_6MatrixIdLi6ELi6ELi0ELi6ELi6EEEEENS2_INS_14CwiseNullaryOpINS0_18scalar_constant_opIdEES4_EEEENS0_13mul_assign_opIddEELi0EE11assignCoeffEi>
 8004828:	4620      	mov	r0, r4
 800482a:	2106      	movs	r1, #6
 800482c:	f7fd ff94 	bl	8002758 <_ZN5Eigen8internal31generic_dense_assignment_kernelINS0_9evaluatorINS_6MatrixIdLi6ELi6ELi0ELi6ELi6EEEEENS2_INS_14CwiseNullaryOpINS0_18scalar_constant_opIdEES4_EEEENS0_13mul_assign_opIddEELi0EE11assignCoeffEi>
 8004830:	4620      	mov	r0, r4
 8004832:	2107      	movs	r1, #7
 8004834:	f7fd ff90 	bl	8002758 <_ZN5Eigen8internal31generic_dense_assignment_kernelINS0_9evaluatorINS_6MatrixIdLi6ELi6ELi0ELi6ELi6EEEEENS2_INS_14CwiseNullaryOpINS0_18scalar_constant_opIdEES4_EEEENS0_13mul_assign_opIddEELi0EE11assignCoeffEi>
 8004838:	4620      	mov	r0, r4
 800483a:	2108      	movs	r1, #8
 800483c:	f7fd ff8c 	bl	8002758 <_ZN5Eigen8internal31generic_dense_assignment_kernelINS0_9evaluatorINS_6MatrixIdLi6ELi6ELi0ELi6ELi6EEEEENS2_INS_14CwiseNullaryOpINS0_18scalar_constant_opIdEES4_EEEENS0_13mul_assign_opIddEELi0EE11assignCoeffEi>
 8004840:	4620      	mov	r0, r4
 8004842:	2109      	movs	r1, #9
 8004844:	f7fd ff88 	bl	8002758 <_ZN5Eigen8internal31generic_dense_assignment_kernelINS0_9evaluatorINS_6MatrixIdLi6ELi6ELi0ELi6ELi6EEEEENS2_INS_14CwiseNullaryOpINS0_18scalar_constant_opIdEES4_EEEENS0_13mul_assign_opIddEELi0EE11assignCoeffEi>
 8004848:	4620      	mov	r0, r4
 800484a:	210a      	movs	r1, #10
 800484c:	f7fd ff84 	bl	8002758 <_ZN5Eigen8internal31generic_dense_assignment_kernelINS0_9evaluatorINS_6MatrixIdLi6ELi6ELi0ELi6ELi6EEEEENS2_INS_14CwiseNullaryOpINS0_18scalar_constant_opIdEES4_EEEENS0_13mul_assign_opIddEELi0EE11assignCoeffEi>
 8004850:	4620      	mov	r0, r4
 8004852:	210b      	movs	r1, #11
 8004854:	f7fd ff80 	bl	8002758 <_ZN5Eigen8internal31generic_dense_assignment_kernelINS0_9evaluatorINS_6MatrixIdLi6ELi6ELi0ELi6ELi6EEEEENS2_INS_14CwiseNullaryOpINS0_18scalar_constant_opIdEES4_EEEENS0_13mul_assign_opIddEELi0EE11assignCoeffEi>
 8004858:	4620      	mov	r0, r4
 800485a:	f7ff ff9b 	bl	8004794 <_ZN5Eigen8internal54copy_using_evaluator_LinearTraversal_CompleteUnrollingINS0_31generic_dense_assignment_kernelINS0_9evaluatorINS_6MatrixIdLi6ELi6ELi0ELi6ELi6EEEEENS3_INS_14CwiseNullaryOpINS0_18scalar_constant_opIdEES5_EEEENS0_13mul_assign_opIddEELi0EEELi12ELi36EE3runERSE_>
 800485e:	bd10      	pop	{r4, pc}

08004860 <_ZN20ExtendedKalmanFilterC1Ev>:
 8004860:	e92d 4ff0 	stmdb	sp!, {r4, r5, r6, r7, r8, r9, sl, fp, lr}
 8004864:	4604      	mov	r4, r0
 8004866:	f04f 0800 	mov.w	r8, #0
 800486a:	ed2d 8b04 	vpush	{d8-d9}
 800486e:	b08f      	sub	sp, #60	@ 0x3c
 8004870:	4626      	mov	r6, r4
 8004872:	f7fd fec5 	bl	8002600 <_ZN7IFilterC1Ev>
 8004876:	4b68      	ldr	r3, [pc, #416]	@ (8004a18 <_ZN20ExtendedKalmanFilterC1Ev+0x1b8>)
 8004878:	f104 07d0 	add.w	r7, r4, #208	@ 0xd0
 800487c:	f504 79a8 	add.w	r9, r4, #336	@ 0x150
 8004880:	f846 3b30 	str.w	r3, [r6], #48
 8004884:	4630      	mov	r0, r6
 8004886:	f7fb fef3 	bl	8000670 <_ZN5Eigen8internal11plain_arrayIdLi4ELi0ELi16EEC1Ev>
 800488a:	f104 0350 	add.w	r3, r4, #80	@ 0x50
 800488e:	f504 75e8 	add.w	r5, r4, #464	@ 0x1d0
 8004892:	eeb7 9b00 	vmov.f64	d9, #112	@ 0x3f800000  1.0
 8004896:	4618      	mov	r0, r3
 8004898:	9301      	str	r3, [sp, #4]
 800489a:	f7fd fee1 	bl	8002660 <_ZN5Eigen8internal11plain_arrayIdLi16ELi0ELi16EEC1Ev>
 800489e:	4638      	mov	r0, r7
 80048a0:	f7fd fede 	bl	8002660 <_ZN5Eigen8internal11plain_arrayIdLi16ELi0ELi16EEC1Ev>
 80048a4:	4648      	mov	r0, r9
 80048a6:	f7fd fedb 	bl	8002660 <_ZN5Eigen8internal11plain_arrayIdLi16ELi0ELi16EEC1Ev>
 80048aa:	4628      	mov	r0, r5
 80048ac:	f7fd fee8 	bl	8002680 <_ZN5Eigen8internal11plain_arrayIdLi36ELi0ELi16EEC1Ev>
 80048b0:	f10d 0b10 	add.w	fp, sp, #16
 80048b4:	2201      	movs	r2, #1
 80048b6:	a902      	add	r1, sp, #8
 80048b8:	a80a      	add	r0, sp, #40	@ 0x28
 80048ba:	f10d 0a18 	add.w	sl, sp, #24
 80048be:	920d      	str	r2, [sp, #52]	@ 0x34
 80048c0:	960a      	str	r6, [sp, #40]	@ 0x28
 80048c2:	ed9f 8b51 	vldr	d8, [pc, #324]	@ 8004a08 <_ZN20ExtendedKalmanFilterC1Ev+0x1a8>
 80048c6:	ed84 9b0c 	vstr	d9, [r4, #48]	@ 0x30
 80048ca:	e9cd 820b 	strd	r8, r2, [sp, #44]	@ 0x2c
 80048ce:	ed8d 8b02 	vstr	d8, [sp, #8]
 80048d2:	f7fd fd7b 	bl	80023cc <_ZN5Eigen16CommaInitializerINS_6MatrixIdLi4ELi1ELi0ELi4ELi1EEEEcmERKd>
 80048d6:	4659      	mov	r1, fp
 80048d8:	ed8d 8b04 	vstr	d8, [sp, #16]
 80048dc:	f7fd fd76 	bl	80023cc <_ZN5Eigen16CommaInitializerINS_6MatrixIdLi4ELi1ELi0ELi4ELi1EEEEcmERKd>
 80048e0:	4651      	mov	r1, sl
 80048e2:	ed8d 8b06 	vstr	d8, [sp, #24]
 80048e6:	f7fd fd71 	bl	80023cc <_ZN5Eigen16CommaInitializerINS_6MatrixIdLi4ELi1ELi0ELi4ELi1EEEEcmERKd>
 80048ea:	9e0b      	ldr	r6, [sp, #44]	@ 0x2c
 80048ec:	9a0d      	ldr	r2, [sp, #52]	@ 0x34
 80048ee:	4416      	add	r6, r2
 80048f0:	2e04      	cmp	r6, #4
 80048f2:	d103      	bne.n	80048fc <_ZN20ExtendedKalmanFilterC1Ev+0x9c>
 80048f4:	9a0c      	ldr	r2, [sp, #48]	@ 0x30
 80048f6:	9b01      	ldr	r3, [sp, #4]
 80048f8:	2a01      	cmp	r2, #1
 80048fa:	d005      	beq.n	8004908 <_ZN20ExtendedKalmanFilterC1Ev+0xa8>
 80048fc:	4b47      	ldr	r3, [pc, #284]	@ (8004a1c <_ZN20ExtendedKalmanFilterC1Ev+0x1bc>)
 80048fe:	217a      	movs	r1, #122	@ 0x7a
 8004900:	4a47      	ldr	r2, [pc, #284]	@ (8004a20 <_ZN20ExtendedKalmanFilterC1Ev+0x1c0>)
 8004902:	4848      	ldr	r0, [pc, #288]	@ (8004a24 <_ZN20ExtendedKalmanFilterC1Ev+0x1c4>)
 8004904:	f005 fa44 	bl	8009d90 <__assert_func>
 8004908:	4618      	mov	r0, r3
 800490a:	9201      	str	r2, [sp, #4]
 800490c:	f7fd fcf4 	bl	80022f8 <_ZN5Eigen10MatrixBaseINS_6MatrixIdLi4ELi4ELi0ELi4ELi4EEEE11setIdentityEv.isra.0>
 8004910:	4638      	mov	r0, r7
 8004912:	f7fd fcf1 	bl	80022f8 <_ZN5Eigen10MatrixBaseINS_6MatrixIdLi4ELi4ELi0ELi4ELi4EEEE11setIdentityEv.isra.0>
 8004916:	ab02      	add	r3, sp, #8
 8004918:	9704      	str	r7, [sp, #16]
 800491a:	a13d      	add	r1, pc, #244	@ (adr r1, 8004a10 <_ZN20ExtendedKalmanFilterC1Ev+0x1b0>)
 800491c:	e9d1 0100 	ldrd	r0, r1, [r1]
 8004920:	e9cd 370c 	strd	r3, r7, [sp, #48]	@ 0x30
 8004924:	e9cd 0106 	strd	r0, r1, [sp, #24]
 8004928:	4641      	mov	r1, r8
 800492a:	a80a      	add	r0, sp, #40	@ 0x28
 800492c:	e9cd ba0a 	strd	fp, sl, [sp, #40]	@ 0x28
 8004930:	f7fd ff04 	bl	800273c <_ZN5Eigen8internal31generic_dense_assignment_kernelINS0_9evaluatorINS_6MatrixIdLi4ELi4ELi0ELi4ELi4EEEEENS2_INS_14CwiseNullaryOpINS0_18scalar_constant_opIdEES4_EEEENS0_13mul_assign_opIddEELi0EE11assignCoeffEi>
 8004934:	9a01      	ldr	r2, [sp, #4]
 8004936:	a80a      	add	r0, sp, #40	@ 0x28
 8004938:	4611      	mov	r1, r2
 800493a:	f7fd feff 	bl	800273c <_ZN5Eigen8internal31generic_dense_assignment_kernelINS0_9evaluatorINS_6MatrixIdLi4ELi4ELi0ELi4ELi4EEEEENS2_INS_14CwiseNullaryOpINS0_18scalar_constant_opIdEES4_EEEENS0_13mul_assign_opIddEELi0EE11assignCoeffEi>
 800493e:	2102      	movs	r1, #2
 8004940:	a80a      	add	r0, sp, #40	@ 0x28
 8004942:	f7fd fefb 	bl	800273c <_ZN5Eigen8internal31generic_dense_assignment_kernelINS0_9evaluatorINS_6MatrixIdLi4ELi4ELi0ELi4ELi4EEEEENS2_INS_14CwiseNullaryOpINS0_18scalar_constant_opIdEES4_EEEENS0_13mul_assign_opIddEELi0EE11assignCoeffEi>
 8004946:	2103      	movs	r1, #3
 8004948:	a80a      	add	r0, sp, #40	@ 0x28
 800494a:	f7fd fef7 	bl	800273c <_ZN5Eigen8internal31generic_dense_assignment_kernelINS0_9evaluatorINS_6MatrixIdLi4ELi4ELi0ELi4ELi4EEEEENS2_INS_14CwiseNullaryOpINS0_18scalar_constant_opIdEES4_EEEENS0_13mul_assign_opIddEELi0EE11assignCoeffEi>
 800494e:	4631      	mov	r1, r6
 8004950:	a80a      	add	r0, sp, #40	@ 0x28
 8004952:	f7fd fef3 	bl	800273c <_ZN5Eigen8internal31generic_dense_assignment_kernelINS0_9evaluatorINS_6MatrixIdLi4ELi4ELi0ELi4ELi4EEEEENS2_INS_14CwiseNullaryOpINS0_18scalar_constant_opIdEES4_EEEENS0_13mul_assign_opIddEELi0EE11assignCoeffEi>
 8004956:	2105      	movs	r1, #5
 8004958:	a80a      	add	r0, sp, #40	@ 0x28
 800495a:	f7fd feef 	bl	800273c <_ZN5Eigen8internal31generic_dense_assignment_kernelINS0_9evaluatorINS_6MatrixIdLi4ELi4ELi0ELi4ELi4EEEEENS2_INS_14CwiseNullaryOpINS0_18scalar_constant_opIdEES4_EEEENS0_13mul_assign_opIddEELi0EE11assignCoeffEi>
 800495e:	2106      	movs	r1, #6
 8004960:	a80a      	add	r0, sp, #40	@ 0x28
 8004962:	f7fd feeb 	bl	800273c <_ZN5Eigen8internal31generic_dense_assignment_kernelINS0_9evaluatorINS_6MatrixIdLi4ELi4ELi0ELi4ELi4EEEEENS2_INS_14CwiseNullaryOpINS0_18scalar_constant_opIdEES4_EEEENS0_13mul_assign_opIddEELi0EE11assignCoeffEi>
 8004966:	2107      	movs	r1, #7
 8004968:	a80a      	add	r0, sp, #40	@ 0x28
 800496a:	f7fd fee7 	bl	800273c <_ZN5Eigen8internal31generic_dense_assignment_kernelINS0_9evaluatorINS_6MatrixIdLi4ELi4ELi0ELi4ELi4EEEEENS2_INS_14CwiseNullaryOpINS0_18scalar_constant_opIdEES4_EEEENS0_13mul_assign_opIddEELi0EE11assignCoeffEi>
 800496e:	2108      	movs	r1, #8
 8004970:	a80a      	add	r0, sp, #40	@ 0x28
 8004972:	f7fd fee3 	bl	800273c <_ZN5Eigen8internal31generic_dense_assignment_kernelINS0_9evaluatorINS_6MatrixIdLi4ELi4ELi0ELi4ELi4EEEEENS2_INS_14CwiseNullaryOpINS0_18scalar_constant_opIdEES4_EEEENS0_13mul_assign_opIddEELi0EE11assignCoeffEi>
 8004976:	2109      	movs	r1, #9
 8004978:	a80a      	add	r0, sp, #40	@ 0x28
 800497a:	f7fd fedf 	bl	800273c <_ZN5Eigen8internal31generic_dense_assignment_kernelINS0_9evaluatorINS_6MatrixIdLi4ELi4ELi0ELi4ELi4EEEEENS2_INS_14CwiseNullaryOpINS0_18scalar_constant_opIdEES4_EEEENS0_13mul_assign_opIddEELi0EE11assignCoeffEi>
 800497e:	210a      	movs	r1, #10
 8004980:	a80a      	add	r0, sp, #40	@ 0x28
 8004982:	f7fd fedb 	bl	800273c <_ZN5Eigen8internal31generic_dense_assignment_kernelINS0_9evaluatorINS_6MatrixIdLi4ELi4ELi0ELi4ELi4EEEEENS2_INS_14CwiseNullaryOpINS0_18scalar_constant_opIdEES4_EEEENS0_13mul_assign_opIddEELi0EE11assignCoeffEi>
 8004986:	210b      	movs	r1, #11
 8004988:	a80a      	add	r0, sp, #40	@ 0x28
 800498a:	f7fd fed7 	bl	800273c <_ZN5Eigen8internal31generic_dense_assignment_kernelINS0_9evaluatorINS_6MatrixIdLi4ELi4ELi0ELi4ELi4EEEEENS2_INS_14CwiseNullaryOpINS0_18scalar_constant_opIdEES4_EEEENS0_13mul_assign_opIddEELi0EE11assignCoeffEi>
 800498e:	210c      	movs	r1, #12
 8004990:	a80a      	add	r0, sp, #40	@ 0x28
 8004992:	f7fd fed3 	bl	800273c <_ZN5Eigen8internal31generic_dense_assignment_kernelINS0_9evaluatorINS_6MatrixIdLi4ELi4ELi0ELi4ELi4EEEEENS2_INS_14CwiseNullaryOpINS0_18scalar_constant_opIdEES4_EEEENS0_13mul_assign_opIddEELi0EE11assignCoeffEi>
 8004996:	210d      	movs	r1, #13
 8004998:	a80a      	add	r0, sp, #40	@ 0x28
 800499a:	f7fd fecf 	bl	800273c <_ZN5Eigen8internal31generic_dense_assignment_kernelINS0_9evaluatorINS_6MatrixIdLi4ELi4ELi0ELi4ELi4EEEEENS2_INS_14CwiseNullaryOpINS0_18scalar_constant_opIdEES4_EEEENS0_13mul_assign_opIddEELi0EE11assignCoeffEi>
 800499e:	210e      	movs	r1, #14
 80049a0:	a80a      	add	r0, sp, #40	@ 0x28
 80049a2:	f7fd fecb 	bl	800273c <_ZN5Eigen8internal31generic_dense_assignment_kernelINS0_9evaluatorINS_6MatrixIdLi4ELi4ELi0ELi4ELi4EEEEENS2_INS_14CwiseNullaryOpINS0_18scalar_constant_opIdEES4_EEEENS0_13mul_assign_opIddEELi0EE11assignCoeffEi>
 80049a6:	210f      	movs	r1, #15
 80049a8:	a80a      	add	r0, sp, #40	@ 0x28
 80049aa:	f7fd fec7 	bl	800273c <_ZN5Eigen8internal31generic_dense_assignment_kernelINS0_9evaluatorINS_6MatrixIdLi4ELi4ELi0ELi4ELi4EEEEENS2_INS_14CwiseNullaryOpINS0_18scalar_constant_opIdEES4_EEEENS0_13mul_assign_opIddEELi0EE11assignCoeffEi>
 80049ae:	f44f 7290 	mov.w	r2, #288	@ 0x120
 80049b2:	4641      	mov	r1, r8
 80049b4:	4628      	mov	r0, r5
 80049b6:	f005 fbbb 	bl	800a130 <memset>
 80049ba:	4623      	mov	r3, r4
 80049bc:	3338      	adds	r3, #56	@ 0x38
 80049be:	ed83 9b66 	vstr	d9, [r3, #408]	@ 0x198
 80049c2:	4599      	cmp	r9, r3
 80049c4:	d1fa      	bne.n	80049bc <_ZN20ExtendedKalmanFilterC1Ev+0x15c>
 80049c6:	2200      	movs	r2, #0
 80049c8:	4b17      	ldr	r3, [pc, #92]	@ (8004a28 <_ZN20ExtendedKalmanFilterC1Ev+0x1c8>)
 80049ca:	a80a      	add	r0, sp, #40	@ 0x28
 80049cc:	2100      	movs	r1, #0
 80049ce:	9504      	str	r5, [sp, #16]
 80049d0:	e9cd 2306 	strd	r2, r3, [sp, #24]
 80049d4:	ab04      	add	r3, sp, #16
 80049d6:	930a      	str	r3, [sp, #40]	@ 0x28
 80049d8:	ab06      	add	r3, sp, #24
 80049da:	930b      	str	r3, [sp, #44]	@ 0x2c
 80049dc:	ab02      	add	r3, sp, #8
 80049de:	e9cd 350c 	strd	r3, r5, [sp, #48]	@ 0x30
 80049e2:	f7fd feb9 	bl	8002758 <_ZN5Eigen8internal31generic_dense_assignment_kernelINS0_9evaluatorINS_6MatrixIdLi6ELi6ELi0ELi6ELi6EEEEENS2_INS_14CwiseNullaryOpINS0_18scalar_constant_opIdEES4_EEEENS0_13mul_assign_opIddEELi0EE11assignCoeffEi>
 80049e6:	a80a      	add	r0, sp, #40	@ 0x28
 80049e8:	2101      	movs	r1, #1
 80049ea:	f7fd feb5 	bl	8002758 <_ZN5Eigen8internal31generic_dense_assignment_kernelINS0_9evaluatorINS_6MatrixIdLi6ELi6ELi0ELi6ELi6EEEEENS2_INS_14CwiseNullaryOpINS0_18scalar_constant_opIdEES4_EEEENS0_13mul_assign_opIddEELi0EE11assignCoeffEi>
 80049ee:	2102      	movs	r1, #2
 80049f0:	a80a      	add	r0, sp, #40	@ 0x28
 80049f2:	f7fd feb1 	bl	8002758 <_ZN5Eigen8internal31generic_dense_assignment_kernelINS0_9evaluatorINS_6MatrixIdLi6ELi6ELi0ELi6ELi6EEEEENS2_INS_14CwiseNullaryOpINS0_18scalar_constant_opIdEES4_EEEENS0_13mul_assign_opIddEELi0EE11assignCoeffEi>
 80049f6:	a80a      	add	r0, sp, #40	@ 0x28
 80049f8:	f7ff ff09 	bl	800480e <_ZN5Eigen8internal54copy_using_evaluator_LinearTraversal_CompleteUnrollingINS0_31generic_dense_assignment_kernelINS0_9evaluatorINS_6MatrixIdLi6ELi6ELi0ELi6ELi6EEEEENS3_INS_14CwiseNullaryOpINS0_18scalar_constant_opIdEES5_EEEENS0_13mul_assign_opIddEELi0EEELi3ELi36EE3runERSE_>
 80049fc:	4620      	mov	r0, r4
 80049fe:	b00f      	add	sp, #60	@ 0x3c
 8004a00:	ecbd 8b04 	vpop	{d8-d9}
 8004a04:	e8bd 8ff0 	ldmia.w	sp!, {r4, r5, r6, r7, r8, r9, sl, fp, pc}
	...
 8004a10:	47ae147b 	.word	0x47ae147b
 8004a14:	3f847ae1 	.word	0x3f847ae1
 8004a18:	0800dd44 	.word	0x0800dd44
 8004a1c:	0800bc22 	.word	0x0800bc22
 8004a20:	0800cc99 	.word	0x0800cc99
 8004a24:	0800b6c8 	.word	0x0800b6c8
 8004a28:	40140000 	.word	0x40140000
 8004a2c:	00000000 	.word	0x00000000

08004a30 <_ZN15DroneControllerC1E19__SPI_HandleTypeDeftP12GPIO_TypeDef20__UART_HandleTypeDef>:
 8004a30:	b084      	sub	sp, #16
 8004a32:	e92d 4ff0 	stmdb	sp!, {r4, r5, r6, r7, r8, r9, sl, fp, lr}
 8004a36:	ed2d 8b02 	vpush	{d8}
 8004a3a:	b0b5      	sub	sp, #212	@ 0xd4
 8004a3c:	4605      	mov	r5, r0
 8004a3e:	eeb7 8b00 	vmov.f64	d8, #112	@ 0x3f800000  1.0
 8004a42:	f04f 0a00 	mov.w	sl, #0
 8004a46:	ae41      	add	r6, sp, #260	@ 0x104
 8004a48:	4668      	mov	r0, sp
 8004a4a:	f505 7818 	add.w	r8, r5, #608	@ 0x260
 8004a4e:	f10d 04b7 	add.w	r4, sp, #183	@ 0xb7
 8004a52:	af28      	add	r7, sp, #160	@ 0xa0
 8004a54:	f04f 0b00 	mov.w	fp, #0
 8004a58:	f024 040f 	bic.w	r4, r4, #15
 8004a5c:	f505 7928 	add.w	r9, r5, #672	@ 0x2a0
 8004a60:	e886 000e 	stmia.w	r6, {r1, r2, r3}
 8004a64:	9b64      	ldr	r3, [sp, #400]	@ 0x190
 8004a66:	a944      	add	r1, sp, #272	@ 0x110
 8004a68:	227c      	movs	r2, #124	@ 0x7c
 8004a6a:	9320      	str	r3, [sp, #128]	@ 0x80
 8004a6c:	f8bd 318c 	ldrh.w	r3, [sp, #396]	@ 0x18c
 8004a70:	931f      	str	r3, [sp, #124]	@ 0x7c
 8004a72:	f005 fba2 	bl	800a1ba <memcpy>
 8004a76:	4628      	mov	r0, r5
 8004a78:	e896 000e 	ldmia.w	r6, {r1, r2, r3}
 8004a7c:	f7fc fa2c 	bl	8000ed8 <_ZN7MPU9250C1E19__SPI_HandleTypeDeftP12GPIO_TypeDef>
 8004a80:	a965      	add	r1, sp, #404	@ 0x194
 8004a82:	2294      	movs	r2, #148	@ 0x94
 8004a84:	f505 70e0 	add.w	r0, r5, #448	@ 0x1c0
 8004a88:	f005 fb97 	bl	800a1ba <memcpy>
 8004a8c:	4640      	mov	r0, r8
 8004a8e:	f7fd fdb7 	bl	8002600 <_ZN7IFilterC1Ev>
 8004a92:	4b2b      	ldr	r3, [pc, #172]	@ (8004b40 <_ZN15DroneControllerC1E19__SPI_HandleTypeDeftP12GPIO_TypeDef20__UART_HandleTypeDef+0x110>)
 8004a94:	a926      	add	r1, sp, #152	@ 0x98
 8004a96:	4620      	mov	r0, r4
 8004a98:	f8c5 3260 	str.w	r3, [r5, #608]	@ 0x260
 8004a9c:	f505 761c 	add.w	r6, r5, #624	@ 0x270
 8004aa0:	a325      	add	r3, pc, #148	@ (adr r3, 8004b38 <_ZN15DroneControllerC1E19__SPI_HandleTypeDeftP12GPIO_TypeDef20__UART_HandleTypeDef+0x108>)
 8004aa2:	e9d3 2300 	ldrd	r2, r3, [r3]
 8004aa6:	ed8d 8b28 	vstr	d8, [sp, #160]	@ 0xa0
 8004aaa:	e9c5 23a4 	strd	r2, r3, [r5, #656]	@ 0x290
 8004aae:	ab22      	add	r3, sp, #136	@ 0x88
 8004ab0:	aa24      	add	r2, sp, #144	@ 0x90
 8004ab2:	9700      	str	r7, [sp, #0]
 8004ab4:	e9cd ab26 	strd	sl, fp, [sp, #152]	@ 0x98
 8004ab8:	e9cd ab24 	strd	sl, fp, [sp, #144]	@ 0x90
 8004abc:	e9cd ab22 	strd	sl, fp, [sp, #136]	@ 0x88
 8004ac0:	f7fb ff6e 	bl	80009a0 <_ZN5Eigen6MatrixIdLi4ELi1ELi0ELi4ELi1EEC1ERKdS3_S3_S3_>
 8004ac4:	46a4      	mov	ip, r4
 8004ac6:	e8bc 000f 	ldmia.w	ip!, {r0, r1, r2, r3}
 8004aca:	c60f      	stmia	r6!, {r0, r1, r2, r3}
 8004acc:	e89c 000f 	ldmia.w	ip, {r0, r1, r2, r3}
 8004ad0:	e886 000f 	stmia.w	r6, {r0, r1, r2, r3}
 8004ad4:	4648      	mov	r0, r9
 8004ad6:	f505 762c 	add.w	r6, r5, #688	@ 0x2b0
 8004ada:	f7fd fd91 	bl	8002600 <_ZN7IFilterC1Ev>
 8004ade:	4b19      	ldr	r3, [pc, #100]	@ (8004b44 <_ZN15DroneControllerC1E19__SPI_HandleTypeDeftP12GPIO_TypeDef20__UART_HandleTypeDef+0x114>)
 8004ae0:	aa24      	add	r2, sp, #144	@ 0x90
 8004ae2:	a926      	add	r1, sp, #152	@ 0x98
 8004ae4:	f8c5 32a0 	str.w	r3, [r5, #672]	@ 0x2a0
 8004ae8:	4620      	mov	r0, r4
 8004aea:	ab22      	add	r3, sp, #136	@ 0x88
 8004aec:	9700      	str	r7, [sp, #0]
 8004aee:	ed8d 8b28 	vstr	d8, [sp, #160]	@ 0xa0
 8004af2:	e9cd ab26 	strd	sl, fp, [sp, #152]	@ 0x98
 8004af6:	e9cd ab24 	strd	sl, fp, [sp, #144]	@ 0x90
 8004afa:	e9cd ab22 	strd	sl, fp, [sp, #136]	@ 0x88
 8004afe:	f7fb ff4f 	bl	80009a0 <_ZN5Eigen6MatrixIdLi4ELi1ELi0ELi4ELi1EEC1ERKdS3_S3_S3_>
 8004b02:	cc0f      	ldmia	r4!, {r0, r1, r2, r3}
 8004b04:	c60f      	stmia	r6!, {r0, r1, r2, r3}
 8004b06:	e894 000f 	ldmia.w	r4, {r0, r1, r2, r3}
 8004b0a:	f505 7434 	add.w	r4, r5, #720	@ 0x2d0
 8004b0e:	e886 000f 	stmia.w	r6, {r0, r1, r2, r3}
 8004b12:	4620      	mov	r0, r4
 8004b14:	f7ff fea4 	bl	8004860 <_ZN20ExtendedKalmanFilterC1Ev>
 8004b18:	4628      	mov	r0, r5
 8004b1a:	f8c5 85c0 	str.w	r8, [r5, #1472]	@ 0x5c0
 8004b1e:	f8c5 95c4 	str.w	r9, [r5, #1476]	@ 0x5c4
 8004b22:	f8c5 45c8 	str.w	r4, [r5, #1480]	@ 0x5c8
 8004b26:	b035      	add	sp, #212	@ 0xd4
 8004b28:	ecbd 8b02 	vpop	{d8}
 8004b2c:	e8bd 4ff0 	ldmia.w	sp!, {r4, r5, r6, r7, r8, r9, sl, fp, lr}
 8004b30:	b004      	add	sp, #16
 8004b32:	4770      	bx	lr
 8004b34:	f3af 8000 	nop.w
 8004b38:	f5c28f5c 	.word	0xf5c28f5c
 8004b3c:	3fef5c28 	.word	0x3fef5c28
 8004b40:	0800b25c 	.word	0x0800b25c
 8004b44:	0800b268 	.word	0x0800b268

08004b48 <_ZN5Eigen8internal31generic_dense_assignment_kernelINS0_9evaluatorINS_6MatrixIdLi6ELi6ELi0ELi6ELi6EEEEES5_NS0_9assign_opIddEELi0EE11assignCoeffEi>:
 8004b48:	6843      	ldr	r3, [r0, #4]
 8004b4a:	681b      	ldr	r3, [r3, #0]
 8004b4c:	eb03 03c1 	add.w	r3, r3, r1, lsl #3
 8004b50:	b530      	push	{r4, r5, lr}
 8004b52:	e9d3 4500 	ldrd	r4, r5, [r3]
 8004b56:	6803      	ldr	r3, [r0, #0]
 8004b58:	681b      	ldr	r3, [r3, #0]
 8004b5a:	eb03 03c1 	add.w	r3, r3, r1, lsl #3
 8004b5e:	e9c3 4500 	strd	r4, r5, [r3]
 8004b62:	bd30      	pop	{r4, r5, pc}

08004b64 <_ZN5Eigen8internal31generic_dense_assignment_kernelINS0_9evaluatorINS_5BlockINS_3RefINS_6MatrixIdLi6ELi6ELi0ELi6ELi6EEELi0ENS_11OuterStrideILin1EEEEELi1ELi6ELb0EEEEESB_NS0_14swap_assign_opIdEELi1EE11assignCoeffEi>:
 8004b64:	6802      	ldr	r2, [r0, #0]
 8004b66:	6853      	ldr	r3, [r2, #4]
 8004b68:	6812      	ldr	r2, [r2, #0]
 8004b6a:	434b      	muls	r3, r1
 8004b6c:	eb02 02c3 	add.w	r2, r2, r3, lsl #3
 8004b70:	6843      	ldr	r3, [r0, #4]
 8004b72:	6858      	ldr	r0, [r3, #4]
 8004b74:	681b      	ldr	r3, [r3, #0]
 8004b76:	4341      	muls	r1, r0
 8004b78:	eb03 03c1 	add.w	r3, r3, r1, lsl #3
 8004b7c:	b530      	push	{r4, r5, lr}
 8004b7e:	e9d2 0100 	ldrd	r0, r1, [r2]
 8004b82:	e9d3 4500 	ldrd	r4, r5, [r3]
 8004b86:	e9c2 4500 	strd	r4, r5, [r2]
 8004b8a:	e9c3 0100 	strd	r0, r1, [r3]
 8004b8e:	bd30      	pop	{r4, r5, pc}

08004b90 <_ZN5Eigen8internal23triangular_solve_matrixIdiLi1ELi2ELb0ELi0ELi0ELi1EE3runEiiPKdiPdiiRNS0_15level3_blockingIddEE>:
 8004b90:	e92d 4ff0 	stmdb	sp!, {r4, r5, r6, r7, r8, r9, sl, fp, lr}
 8004b94:	ed2d 8b02 	vpush	{d8}
 8004b98:	b0bb      	sub	sp, #236	@ 0xec
 8004b9a:	469a      	mov	sl, r3
 8004b9c:	4604      	mov	r4, r0
 8004b9e:	af06      	add	r7, sp, #24
 8004ba0:	f8d7 3104 	ldr.w	r3, [r7, #260]	@ 0x104
 8004ba4:	f8d7 810c 	ldr.w	r8, [r7, #268]	@ 0x10c
 8004ba8:	2b01      	cmp	r3, #1
 8004baa:	f8c7 1084 	str.w	r1, [r7, #132]	@ 0x84
 8004bae:	673a      	str	r2, [r7, #112]	@ 0x70
 8004bb0:	d005      	beq.n	8004bbe <_ZN5Eigen8internal23triangular_solve_matrixIdiLi1ELi2ELb0ELi0ELi0ELi1EE3runEiiPKdiPdiiRNS0_15level3_blockingIddEE+0x2e>
 8004bb2:	4bac      	ldr	r3, [pc, #688]	@ (8004e64 <_ZN5Eigen8internal23triangular_solve_matrixIdiLi1ELi2ELb0ELi0ELi0ELi1EE3runEiiPKdiPdiiRNS0_15level3_blockingIddEE+0x2d4>)
 8004bb4:	21ae      	movs	r1, #174	@ 0xae
 8004bb6:	4aac      	ldr	r2, [pc, #688]	@ (8004e68 <_ZN5Eigen8internal23triangular_solve_matrixIdiLi1ELi2ELb0ELi0ELi0ELi1EE3runEiiPKdiPdiiRNS0_15level3_blockingIddEE+0x2d8>)
 8004bb8:	48ac      	ldr	r0, [pc, #688]	@ (8004e6c <_ZN5Eigen8internal23triangular_solve_matrixIdiLi1ELi2ELb0ELi0ELi0ELi1EE3runEiiPKdiPdiiRNS0_15level3_blockingIddEE+0x2dc>)
 8004bba:	f005 f8e9 	bl	8009d90 <__assert_func>
 8004bbe:	f8d8 3010 	ldr.w	r3, [r8, #16]
 8004bc2:	f8c7 3098 	str.w	r3, [r7, #152]	@ 0x98
 8004bc6:	f8d8 3008 	ldr.w	r3, [r8, #8]
 8004bca:	f8d7 2098 	ldr.w	r2, [r7, #152]	@ 0x98
 8004bce:	4283      	cmp	r3, r0
 8004bd0:	bfa8      	it	ge
 8004bd2:	4603      	movge	r3, r0
 8004bd4:	fb02 f903 	mul.w	r9, r2, r3
 8004bd8:	67fb      	str	r3, [r7, #124]	@ 0x7c
 8004bda:	f8d7 3084 	ldr.w	r3, [r7, #132]	@ 0x84
 8004bde:	ea4f 06c9 	mov.w	r6, r9, lsl #3
 8004be2:	fb02 f503 	mul.w	r5, r2, r3
 8004be6:	f8d8 3000 	ldr.w	r3, [r8]
 8004bea:	f8c7 309c 	str.w	r3, [r7, #156]	@ 0x9c
 8004bee:	b96b      	cbnz	r3, 8004c0c <_ZN5Eigen8internal23triangular_solve_matrixIdiLi1ELi2ELb0ELi0ELi0ELi1EE3runEiiPKdiPdiiRNS0_15level3_blockingIddEE+0x7c>
 8004bf0:	f5b6 3f00 	cmp.w	r6, #131072	@ 0x20000
 8004bf4:	f200 80b5 	bhi.w	8004d62 <_ZN5Eigen8internal23triangular_solve_matrixIdiLi1ELi2ELb0ELi0ELi0ELi1EE3runEiiPKdiPdiiRNS0_15level3_blockingIddEE+0x1d2>
 8004bf8:	f106 0310 	add.w	r3, r6, #16
 8004bfc:	ebad 0d03 	sub.w	sp, sp, r3
 8004c00:	f10d 0327 	add.w	r3, sp, #39	@ 0x27
 8004c04:	f023 030f 	bic.w	r3, r3, #15
 8004c08:	f8c7 309c 	str.w	r3, [r7, #156]	@ 0x9c
 8004c0c:	f8d8 3000 	ldr.w	r3, [r8]
 8004c10:	2b00      	cmp	r3, #0
 8004c12:	f8d7 309c 	ldr.w	r3, [r7, #156]	@ 0x9c
 8004c16:	bf18      	it	ne
 8004c18:	2300      	movne	r3, #0
 8004c1a:	f5b6 3f00 	cmp.w	r6, #131072	@ 0x20000
 8004c1e:	e9c7 392e 	strd	r3, r9, [r7, #184]	@ 0xb8
 8004c22:	bf94      	ite	ls
 8004c24:	2600      	movls	r6, #0
 8004c26:	2601      	movhi	r6, #1
 8004c28:	f8d8 3004 	ldr.w	r3, [r8, #4]
 8004c2c:	f887 60c0 	strb.w	r6, [r7, #192]	@ 0xc0
 8004c30:	00ee      	lsls	r6, r5, #3
 8004c32:	f8c7 3090 	str.w	r3, [r7, #144]	@ 0x90
 8004c36:	b96b      	cbnz	r3, 8004c54 <_ZN5Eigen8internal23triangular_solve_matrixIdiLi1ELi2ELb0ELi0ELi0ELi1EE3runEiiPKdiPdiiRNS0_15level3_blockingIddEE+0xc4>
 8004c38:	f5b6 3f00 	cmp.w	r6, #131072	@ 0x20000
 8004c3c:	f200 8097 	bhi.w	8004d6e <_ZN5Eigen8internal23triangular_solve_matrixIdiLi1ELi2ELb0ELi0ELi0ELi1EE3runEiiPKdiPdiiRNS0_15level3_blockingIddEE+0x1de>
 8004c40:	f106 0310 	add.w	r3, r6, #16
 8004c44:	ebad 0d03 	sub.w	sp, sp, r3
 8004c48:	f10d 0327 	add.w	r3, sp, #39	@ 0x27
 8004c4c:	f023 030f 	bic.w	r3, r3, #15
 8004c50:	f8c7 3090 	str.w	r3, [r7, #144]	@ 0x90
 8004c54:	f8d8 3004 	ldr.w	r3, [r8, #4]
 8004c58:	f107 02a8 	add.w	r2, r7, #168	@ 0xa8
 8004c5c:	f107 01a4 	add.w	r1, r7, #164	@ 0xa4
 8004c60:	2000      	movs	r0, #0
 8004c62:	2b00      	cmp	r3, #0
 8004c64:	f8d7 3090 	ldr.w	r3, [r7, #144]	@ 0x90
 8004c68:	bf18      	it	ne
 8004c6a:	2300      	movne	r3, #0
 8004c6c:	f5b6 3f00 	cmp.w	r6, #131072	@ 0x20000
 8004c70:	bf94      	ite	ls
 8004c72:	2600      	movls	r6, #0
 8004c74:	2601      	movhi	r6, #1
 8004c76:	e9c7 3531 	strd	r3, r5, [r7, #196]	@ 0xc4
 8004c7a:	f107 03ac 	add.w	r3, r7, #172	@ 0xac
 8004c7e:	f887 60cc 	strb.w	r6, [r7, #204]	@ 0xcc
 8004c82:	f7fd fb59 	bl	8002338 <_ZN5Eigen8internal20manage_caching_sizesENS_6ActionEPiS2_S2_>
 8004c86:	f8d7 3084 	ldr.w	r3, [r7, #132]	@ 0x84
 8004c8a:	2b00      	cmp	r3, #0
 8004c8c:	dd75      	ble.n	8004d7a <_ZN5Eigen8internal23triangular_solve_matrixIdiLi1ELi2ELb0ELi0ELi0ELi1EE3runEiiPKdiPdiiRNS0_15level3_blockingIddEE+0x1ea>
 8004c8e:	f8d7 2108 	ldr.w	r2, [r7, #264]	@ 0x108
 8004c92:	f8d7 30a8 	ldr.w	r3, [r7, #168]	@ 0xa8
 8004c96:	42a2      	cmp	r2, r4
 8004c98:	bfb8      	it	lt
 8004c9a:	4622      	movlt	r2, r4
 8004c9c:	0152      	lsls	r2, r2, #5
 8004c9e:	fbb3 f3f2 	udiv	r3, r3, r2
 8004ca2:	4259      	negs	r1, r3
 8004ca4:	f003 0203 	and.w	r2, r3, #3
 8004ca8:	eeb7 8b00 	vmov.f64	d8, #112	@ 0x3f800000  1.0
 8004cac:	f001 0103 	and.w	r1, r1, #3
 8004cb0:	bf58      	it	pl
 8004cb2:	424a      	negpl	r2, r1
 8004cb4:	6f39      	ldr	r1, [r7, #112]	@ 0x70
 8004cb6:	1a9b      	subs	r3, r3, r2
 8004cb8:	f8d7 2098 	ldr.w	r2, [r7, #152]	@ 0x98
 8004cbc:	2b04      	cmp	r3, #4
 8004cbe:	bfb8      	it	lt
 8004cc0:	2304      	movlt	r3, #4
 8004cc2:	f8c7 3094 	str.w	r3, [r7, #148]	@ 0x94
 8004cc6:	f8d7 3098 	ldr.w	r3, [r7, #152]	@ 0x98
 8004cca:	425b      	negs	r3, r3
 8004ccc:	fb0a f303 	mul.w	r3, sl, r3
 8004cd0:	657b      	str	r3, [r7, #84]	@ 0x54
 8004cd2:	f8d7 3098 	ldr.w	r3, [r7, #152]	@ 0x98
 8004cd6:	1ae3      	subs	r3, r4, r3
 8004cd8:	fb0a f303 	mul.w	r3, sl, r3
 8004cdc:	65bb      	str	r3, [r7, #88]	@ 0x58
 8004cde:	6d7b      	ldr	r3, [r7, #84]	@ 0x54
 8004ce0:	1a9b      	subs	r3, r3, r2
 8004ce2:	00db      	lsls	r3, r3, #3
 8004ce4:	613b      	str	r3, [r7, #16]
 8004ce6:	1e63      	subs	r3, r4, #1
 8004ce8:	fb0a f303 	mul.w	r3, sl, r3
 8004cec:	18e2      	adds	r2, r4, r3
 8004cee:	eb01 02c2 	add.w	r2, r1, r2, lsl #3
 8004cf2:	f8d7 1094 	ldr.w	r1, [r7, #148]	@ 0x94
 8004cf6:	e9c7 3213 	strd	r3, r2, [r7, #76]	@ 0x4c
 8004cfa:	f06f 0307 	mvn.w	r3, #7
 8004cfe:	f8d7 2098 	ldr.w	r2, [r7, #152]	@ 0x98
 8004d02:	435a      	muls	r2, r3
 8004d04:	fb03 f30a 	mul.w	r3, r3, sl
 8004d08:	60fa      	str	r2, [r7, #12]
 8004d0a:	f8d7 2100 	ldr.w	r2, [r7, #256]	@ 0x100
 8004d0e:	62fb      	str	r3, [r7, #44]	@ 0x2c
 8004d10:	eb02 02c4 	add.w	r2, r2, r4, lsl #3
 8004d14:	f8d7 3108 	ldr.w	r3, [r7, #264]	@ 0x108
 8004d18:	64ba      	str	r2, [r7, #72]	@ 0x48
 8004d1a:	00db      	lsls	r3, r3, #3
 8004d1c:	f8d7 2108 	ldr.w	r2, [r7, #264]	@ 0x108
 8004d20:	63fb      	str	r3, [r7, #60]	@ 0x3c
 8004d22:	434a      	muls	r2, r1
 8004d24:	61fa      	str	r2, [r7, #28]
 8004d26:	f06f 021f 	mvn.w	r2, #31
 8004d2a:	fb0a 2202 	mla	r2, sl, r2, r2
 8004d2e:	623a      	str	r2, [r7, #32]
 8004d30:	f06f 0203 	mvn.w	r2, #3
 8004d34:	fb02 f20a 	mul.w	r2, r2, sl
 8004d38:	633a      	str	r2, [r7, #48]	@ 0x30
 8004d3a:	ea6f 020a 	mvn.w	r2, sl
 8004d3e:	00d2      	lsls	r2, r2, #3
 8004d40:	637a      	str	r2, [r7, #52]	@ 0x34
 8004d42:	2c00      	cmp	r4, #0
 8004d44:	dc1b      	bgt.n	8004d7e <_ZN5Eigen8internal23triangular_solve_matrixIdiLi1ELi2ELb0ELi0ELi0ELi1EE3runEiiPKdiPdiiRNS0_15level3_blockingIddEE+0x1ee>
 8004d46:	f107 00c4 	add.w	r0, r7, #196	@ 0xc4
 8004d4a:	f7ff fb04 	bl	8004356 <_ZN5Eigen8internal28aligned_stack_memory_handlerIdED1Ev>
 8004d4e:	f107 00b8 	add.w	r0, r7, #184	@ 0xb8
 8004d52:	f7ff fb00 	bl	8004356 <_ZN5Eigen8internal28aligned_stack_memory_handlerIdED1Ev>
 8004d56:	37d4      	adds	r7, #212	@ 0xd4
 8004d58:	46bd      	mov	sp, r7
 8004d5a:	ecbd 8b02 	vpop	{d8}
 8004d5e:	e8bd 8ff0 	ldmia.w	sp!, {r4, r5, r6, r7, r8, r9, sl, fp, pc}
 8004d62:	4630      	mov	r0, r6
 8004d64:	f7fd fadc 	bl	8002320 <_ZN5Eigen8internal14aligned_mallocEj>
 8004d68:	f8c7 009c 	str.w	r0, [r7, #156]	@ 0x9c
 8004d6c:	e74e      	b.n	8004c0c <_ZN5Eigen8internal23triangular_solve_matrixIdiLi1ELi2ELb0ELi0ELi0ELi1EE3runEiiPKdiPdiiRNS0_15level3_blockingIddEE+0x7c>
 8004d6e:	4630      	mov	r0, r6
 8004d70:	f7fd fad6 	bl	8002320 <_ZN5Eigen8internal14aligned_mallocEj>
 8004d74:	f8c7 0090 	str.w	r0, [r7, #144]	@ 0x90
 8004d78:	e76c      	b.n	8004c54 <_ZN5Eigen8internal23triangular_solve_matrixIdiLi1ELi2ELb0ELi0ELi0ELi1EE3runEiiPKdiPdiiRNS0_15level3_blockingIddEE+0xc4>
 8004d7a:	2300      	movs	r3, #0
 8004d7c:	e791      	b.n	8004ca2 <_ZN5Eigen8internal23triangular_solve_matrixIdiLi1ELi2ELb0ELi0ELi0ELi1EE3runEiiPKdiPdiiRNS0_15level3_blockingIddEE+0x112>
 8004d7e:	f8d7 3098 	ldr.w	r3, [r7, #152]	@ 0x98
 8004d82:	f04f 0800 	mov.w	r8, #0
 8004d86:	42a3      	cmp	r3, r4
 8004d88:	f8c7 8088 	str.w	r8, [r7, #136]	@ 0x88
 8004d8c:	bfa8      	it	ge
 8004d8e:	4623      	movge	r3, r4
 8004d90:	469b      	mov	fp, r3
 8004d92:	f8d7 3084 	ldr.w	r3, [r7, #132]	@ 0x84
 8004d96:	65fb      	str	r3, [r7, #92]	@ 0x5c
 8004d98:	f8d7 3094 	ldr.w	r3, [r7, #148]	@ 0x94
 8004d9c:	fb0b f303 	mul.w	r3, fp, r3
 8004da0:	00db      	lsls	r3, r3, #3
 8004da2:	61bb      	str	r3, [r7, #24]
 8004da4:	f8d7 3090 	ldr.w	r3, [r7, #144]	@ 0x90
 8004da8:	677b      	str	r3, [r7, #116]	@ 0x74
 8004daa:	6cbb      	ldr	r3, [r7, #72]	@ 0x48
 8004dac:	eba3 03cb 	sub.w	r3, r3, fp, lsl #3
 8004db0:	617b      	str	r3, [r7, #20]
 8004db2:	eba4 030b 	sub.w	r3, r4, fp
 8004db6:	607b      	str	r3, [r7, #4]
 8004db8:	e9d7 2321 	ldrd	r2, r3, [r7, #132]	@ 0x84
 8004dbc:	4293      	cmp	r3, r2
 8004dbe:	db1f      	blt.n	8004e00 <_ZN5Eigen8internal23triangular_solve_matrixIdiLi1ELi2ELb0ELi0ELi0ELi1EE3runEiiPKdiPdiiRNS0_15level3_blockingIddEE+0x270>
 8004dc0:	f8d7 3098 	ldr.w	r3, [r7, #152]	@ 0x98
 8004dc4:	2500      	movs	r5, #0
 8004dc6:	6dba      	ldr	r2, [r7, #88]	@ 0x58
 8004dc8:	1ae4      	subs	r4, r4, r3
 8004dca:	6f3b      	ldr	r3, [r7, #112]	@ 0x70
 8004dcc:	46a8      	mov	r8, r5
 8004dce:	eb03 03c2 	add.w	r3, r3, r2, lsl #3
 8004dd2:	46a1      	mov	r9, r4
 8004dd4:	f8c7 308c 	str.w	r3, [r7, #140]	@ 0x8c
 8004dd8:	42a5      	cmp	r5, r4
 8004dda:	f2c0 8100 	blt.w	8004fde <_ZN5Eigen8internal23triangular_solve_matrixIdiLi1ELi2ELb0ELi0ELi0ELi1EE3runEiiPKdiPdiiRNS0_15level3_blockingIddEE+0x44e>
 8004dde:	e9d7 2315 	ldrd	r2, r3, [r7, #84]	@ 0x54
 8004de2:	4413      	add	r3, r2
 8004de4:	693a      	ldr	r2, [r7, #16]
 8004de6:	65bb      	str	r3, [r7, #88]	@ 0x58
 8004de8:	6d3b      	ldr	r3, [r7, #80]	@ 0x50
 8004dea:	4413      	add	r3, r2
 8004dec:	6d7a      	ldr	r2, [r7, #84]	@ 0x54
 8004dee:	653b      	str	r3, [r7, #80]	@ 0x50
 8004df0:	6cfb      	ldr	r3, [r7, #76]	@ 0x4c
 8004df2:	4413      	add	r3, r2
 8004df4:	68fa      	ldr	r2, [r7, #12]
 8004df6:	64fb      	str	r3, [r7, #76]	@ 0x4c
 8004df8:	6cbb      	ldr	r3, [r7, #72]	@ 0x48
 8004dfa:	4413      	add	r3, r2
 8004dfc:	64bb      	str	r3, [r7, #72]	@ 0x48
 8004dfe:	e7a0      	b.n	8004d42 <_ZN5Eigen8internal23triangular_solve_matrixIdiLi1ELi2ELb0ELi0ELi0ELi1EE3runEiiPKdiPdiiRNS0_15level3_blockingIddEE+0x1b2>
 8004e00:	6dfb      	ldr	r3, [r7, #92]	@ 0x5c
 8004e02:	f8d7 2094 	ldr.w	r2, [r7, #148]	@ 0x94
 8004e06:	67bc      	str	r4, [r7, #120]	@ 0x78
 8004e08:	4293      	cmp	r3, r2
 8004e0a:	bfa8      	it	ge
 8004e0c:	4613      	movge	r3, r2
 8004e0e:	66fb      	str	r3, [r7, #108]	@ 0x6c
 8004e10:	697b      	ldr	r3, [r7, #20]
 8004e12:	6efa      	ldr	r2, [r7, #108]	@ 0x6c
 8004e14:	eb03 03c8 	add.w	r3, r3, r8, lsl #3
 8004e18:	63bb      	str	r3, [r7, #56]	@ 0x38
 8004e1a:	f8d7 3100 	ldr.w	r3, [r7, #256]	@ 0x100
 8004e1e:	eb03 03c8 	add.w	r3, r3, r8, lsl #3
 8004e22:	62bb      	str	r3, [r7, #40]	@ 0x28
 8004e24:	6cfb      	ldr	r3, [r7, #76]	@ 0x4c
 8004e26:	663b      	str	r3, [r7, #96]	@ 0x60
 8004e28:	6d3b      	ldr	r3, [r7, #80]	@ 0x50
 8004e2a:	667b      	str	r3, [r7, #100]	@ 0x64
 8004e2c:	2300      	movs	r3, #0
 8004e2e:	f8c7 3080 	str.w	r3, [r7, #128]	@ 0x80
 8004e32:	f8d7 3088 	ldr.w	r3, [r7, #136]	@ 0x88
 8004e36:	4413      	add	r3, r2
 8004e38:	60bb      	str	r3, [r7, #8]
 8004e3a:	f8d7 3080 	ldr.w	r3, [r7, #128]	@ 0x80
 8004e3e:	455b      	cmp	r3, fp
 8004e40:	db16      	blt.n	8004e70 <_ZN5Eigen8internal23triangular_solve_matrixIdiLi1ELi2ELb0ELi0ELi0ELi1EE3runEiiPKdiPdiiRNS0_15level3_blockingIddEE+0x2e0>
 8004e42:	f8d7 2094 	ldr.w	r2, [r7, #148]	@ 0x94
 8004e46:	f8d7 3088 	ldr.w	r3, [r7, #136]	@ 0x88
 8004e4a:	4413      	add	r3, r2
 8004e4c:	f8c7 3088 	str.w	r3, [r7, #136]	@ 0x88
 8004e50:	6dfb      	ldr	r3, [r7, #92]	@ 0x5c
 8004e52:	1a9b      	subs	r3, r3, r2
 8004e54:	69ba      	ldr	r2, [r7, #24]
 8004e56:	65fb      	str	r3, [r7, #92]	@ 0x5c
 8004e58:	69fb      	ldr	r3, [r7, #28]
 8004e5a:	4498      	add	r8, r3
 8004e5c:	6f7b      	ldr	r3, [r7, #116]	@ 0x74
 8004e5e:	4413      	add	r3, r2
 8004e60:	677b      	str	r3, [r7, #116]	@ 0x74
 8004e62:	e7a9      	b.n	8004db8 <_ZN5Eigen8internal23triangular_solve_matrixIdiLi1ELi2ELb0ELi0ELi0ELi1EE3runEiiPKdiPdiiRNS0_15level3_blockingIddEE+0x228>
 8004e64:	0800cb95 	.word	0x0800cb95
 8004e68:	0800cb9d 	.word	0x0800cb9d
 8004e6c:	0800cc68 	.word	0x0800cc68
 8004e70:	f8d7 3080 	ldr.w	r3, [r7, #128]	@ 0x80
 8004e74:	6fb8      	ldr	r0, [r7, #120]	@ 0x78
 8004e76:	ebab 0303 	sub.w	r3, fp, r3
 8004e7a:	2b04      	cmp	r3, #4
 8004e7c:	461d      	mov	r5, r3
 8004e7e:	647b      	str	r3, [r7, #68]	@ 0x44
 8004e80:	bfa8      	it	ge
 8004e82:	2504      	movge	r5, #4
 8004e84:	6fbb      	ldr	r3, [r7, #120]	@ 0x78
 8004e86:	1b5e      	subs	r6, r3, r5
 8004e88:	6e3b      	ldr	r3, [r7, #96]	@ 0x60
 8004e8a:	46ae      	mov	lr, r5
 8004e8c:	18f2      	adds	r2, r6, r3
 8004e8e:	00d3      	lsls	r3, r2, #3
 8004e90:	4619      	mov	r1, r3
 8004e92:	6e7b      	ldr	r3, [r7, #100]	@ 0x64
 8004e94:	66bb      	str	r3, [r7, #104]	@ 0x68
 8004e96:	6eba      	ldr	r2, [r7, #104]	@ 0x68
 8004e98:	f8d7 c088 	ldr.w	ip, [r7, #136]	@ 0x88
 8004e9c:	ed12 7b02 	vldr	d7, [r2, #-8]
 8004ea0:	6aba      	ldr	r2, [r7, #40]	@ 0x28
 8004ea2:	ee88 5b07 	vdiv.f64	d5, d8, d7
 8004ea6:	eb02 03c0 	add.w	r3, r2, r0, lsl #3
 8004eaa:	f06f 0207 	mvn.w	r2, #7
 8004eae:	3801      	subs	r0, #1
 8004eb0:	fb02 f20e 	mul.w	r2, r2, lr
 8004eb4:	627a      	str	r2, [r7, #36]	@ 0x24
 8004eb6:	f10e 32ff 	add.w	r2, lr, #4294967295	@ 0xffffffff
 8004eba:	f8c7 208c 	str.w	r2, [r7, #140]	@ 0x8c
 8004ebe:	6f3a      	ldr	r2, [r7, #112]	@ 0x70
 8004ec0:	f04f 0e00 	mov.w	lr, #0
 8004ec4:	ed13 7b02 	vldr	d7, [r3, #-8]
 8004ec8:	440a      	add	r2, r1
 8004eca:	ee25 7b07 	vmul.f64	d7, d5, d7
 8004ece:	643a      	str	r2, [r7, #64]	@ 0x40
 8004ed0:	6a7a      	ldr	r2, [r7, #36]	@ 0x24
 8004ed2:	eb03 0902 	add.w	r9, r3, r2
 8004ed6:	ed03 7b02 	vstr	d7, [r3, #-8]
 8004eda:	eeb1 7b47 	vneg.f64	d7, d7
 8004ede:	f8d7 208c 	ldr.w	r2, [r7, #140]	@ 0x8c
 8004ee2:	4596      	cmp	lr, r2
 8004ee4:	db6e      	blt.n	8004fc4 <_ZN5Eigen8internal23triangular_solve_matrixIdiLi1ELi2ELb0ELi0ELi0ELi1EE3runEiiPKdiPdiiRNS0_15level3_blockingIddEE+0x434>
 8004ee6:	6bfa      	ldr	r2, [r7, #60]	@ 0x3c
 8004ee8:	f10c 0c01 	add.w	ip, ip, #1
 8004eec:	4413      	add	r3, r2
 8004eee:	68ba      	ldr	r2, [r7, #8]
 8004ef0:	4562      	cmp	r2, ip
 8004ef2:	d1e4      	bne.n	8004ebe <_ZN5Eigen8internal23triangular_solve_matrixIdiLi1ELi2ELb0ELi0ELi0ELi1EE3runEiiPKdiPdiiRNS0_15level3_blockingIddEE+0x32e>
 8004ef4:	6b7b      	ldr	r3, [r7, #52]	@ 0x34
 8004ef6:	6eba      	ldr	r2, [r7, #104]	@ 0x68
 8004ef8:	f8d7 e08c 	ldr.w	lr, [r7, #140]	@ 0x8c
 8004efc:	441a      	add	r2, r3
 8004efe:	6afb      	ldr	r3, [r7, #44]	@ 0x2c
 8004f00:	66ba      	str	r2, [r7, #104]	@ 0x68
 8004f02:	460a      	mov	r2, r1
 8004f04:	441a      	add	r2, r3
 8004f06:	4673      	mov	r3, lr
 8004f08:	4611      	mov	r1, r2
 8004f0a:	2b00      	cmp	r3, #0
 8004f0c:	d1c3      	bne.n	8004e96 <_ZN5Eigen8internal23triangular_solve_matrixIdiLi1ELi2ELb0ELi0ELi0ELi1EE3runEiiPKdiPdiiRNS0_15level3_blockingIddEE+0x306>
 8004f0e:	6c7b      	ldr	r3, [r7, #68]	@ 0x44
 8004f10:	f107 01b0 	add.w	r1, r7, #176	@ 0xb0
 8004f14:	f8d7 2100 	ldr.w	r2, [r7, #256]	@ 0x100
 8004f18:	eba3 0905 	sub.w	r9, r3, r5
 8004f1c:	eb08 0306 	add.w	r3, r8, r6
 8004f20:	eb02 03c3 	add.w	r3, r2, r3, lsl #3
 8004f24:	462a      	mov	r2, r5
 8004f26:	f8c7 30b0 	str.w	r3, [r7, #176]	@ 0xb0
 8004f2a:	f8d7 3108 	ldr.w	r3, [r7, #264]	@ 0x108
 8004f2e:	f8c7 30b4 	str.w	r3, [r7, #180]	@ 0xb4
 8004f32:	e9cd b900 	strd	fp, r9, [sp]
 8004f36:	6efb      	ldr	r3, [r7, #108]	@ 0x6c
 8004f38:	6f78      	ldr	r0, [r7, #116]	@ 0x74
 8004f3a:	f7fc ff15 	bl	8001d68 <_ZN5Eigen8internal13gemm_pack_rhsIdiNS0_16blas_data_mapperIdiLi0ELi0ELi1EEELi4ELi0ELb0ELb1EEclEPdRKS3_iiii.isra.0>
 8004f3e:	f1b9 0f00 	cmp.w	r9, #0
 8004f42:	dd2e      	ble.n	8004fa2 <_ZN5Eigen8internal23triangular_solve_matrixIdiLi1ELi2ELb0ELi0ELi0ELi1EE3runEiiPKdiPdiiRNS0_15level3_blockingIddEE+0x412>
 8004f44:	687b      	ldr	r3, [r7, #4]
 8004f46:	462a      	mov	r2, r5
 8004f48:	f107 01b0 	add.w	r1, r7, #176	@ 0xb0
 8004f4c:	fb06 360a 	mla	r6, r6, sl, r3
 8004f50:	6f3b      	ldr	r3, [r7, #112]	@ 0x70
 8004f52:	eb03 06c6 	add.w	r6, r3, r6, lsl #3
 8004f56:	f8d7 308c 	ldr.w	r3, [r7, #140]	@ 0x8c
 8004f5a:	e9c7 6a2c 	strd	r6, sl, [r7, #176]	@ 0xb0
 8004f5e:	e9cd 3300 	strd	r3, r3, [sp]
 8004f62:	464b      	mov	r3, r9
 8004f64:	f8d7 009c 	ldr.w	r0, [r7, #156]	@ 0x9c
 8004f68:	f7fc fed0 	bl	8001d0c <_ZN5Eigen8internal13gemm_pack_lhsIdiNS0_22const_blas_data_mapperIdiLi0EEELi1ELi1EdLi0ELb0ELb0EEclEPdRKS3_iiii.isra.0>
 8004f6c:	6bbb      	ldr	r3, [r7, #56]	@ 0x38
 8004f6e:	eebf 0b00 	vmov.f64	d0, #240	@ 0xbf800000 -1.0
 8004f72:	f107 00b0 	add.w	r0, r7, #176	@ 0xb0
 8004f76:	f8c7 30b0 	str.w	r3, [r7, #176]	@ 0xb0
 8004f7a:	f8d7 3108 	ldr.w	r3, [r7, #264]	@ 0x108
 8004f7e:	f8c7 30b4 	str.w	r3, [r7, #180]	@ 0xb4
 8004f82:	f8cd 9014 	str.w	r9, [sp, #20]
 8004f86:	f8d7 308c 	ldr.w	r3, [r7, #140]	@ 0x8c
 8004f8a:	9502      	str	r5, [sp, #8]
 8004f8c:	e9cd b303 	strd	fp, r3, [sp, #12]
 8004f90:	6efb      	ldr	r3, [r7, #108]	@ 0x6c
 8004f92:	e9cd 5300 	strd	r5, r3, [sp]
 8004f96:	464b      	mov	r3, r9
 8004f98:	6f7a      	ldr	r2, [r7, #116]	@ 0x74
 8004f9a:	f8d7 109c 	ldr.w	r1, [r7, #156]	@ 0x9c
 8004f9e:	f7fc ff77 	bl	8001e90 <_ZN5Eigen8internal11gebp_kernelIddiNS0_16blas_data_mapperIdiLi0ELi0ELi1EEELi1ELi4ELb0ELb0EEclERKS3_PKdS8_iiidiiii.isra.0>
 8004fa2:	f8d7 3080 	ldr.w	r3, [r7, #128]	@ 0x80
 8004fa6:	6a3a      	ldr	r2, [r7, #32]
 8004fa8:	3304      	adds	r3, #4
 8004faa:	f8c7 3080 	str.w	r3, [r7, #128]	@ 0x80
 8004fae:	6fbb      	ldr	r3, [r7, #120]	@ 0x78
 8004fb0:	3b04      	subs	r3, #4
 8004fb2:	67bb      	str	r3, [r7, #120]	@ 0x78
 8004fb4:	6e7b      	ldr	r3, [r7, #100]	@ 0x64
 8004fb6:	4413      	add	r3, r2
 8004fb8:	6b3a      	ldr	r2, [r7, #48]	@ 0x30
 8004fba:	667b      	str	r3, [r7, #100]	@ 0x64
 8004fbc:	6e3b      	ldr	r3, [r7, #96]	@ 0x60
 8004fbe:	4413      	add	r3, r2
 8004fc0:	663b      	str	r3, [r7, #96]	@ 0x60
 8004fc2:	e73a      	b.n	8004e3a <_ZN5Eigen8internal23triangular_solve_matrixIdiLi1ELi2ELb0ELi0ELi0ELi1EE3runEiiPKdiPdiiRNS0_15level3_blockingIddEE+0x2aa>
 8004fc4:	6c3a      	ldr	r2, [r7, #64]	@ 0x40
 8004fc6:	f10e 0e01 	add.w	lr, lr, #1
 8004fca:	ecb2 4b02 	vldmia	r2!, {d4}
 8004fce:	ed99 6b00 	vldr	d6, [r9]
 8004fd2:	643a      	str	r2, [r7, #64]	@ 0x40
 8004fd4:	eea4 6b07 	vfma.f64	d6, d4, d7
 8004fd8:	eca9 6b02 	vstmia	r9!, {d6}
 8004fdc:	e77f      	b.n	8004ede <_ZN5Eigen8internal23triangular_solve_matrixIdiLi1ELi2ELb0ELi0ELi0ELi1EE3runEiiPKdiPdiiRNS0_15level3_blockingIddEE+0x34e>
 8004fde:	6ffb      	ldr	r3, [r7, #124]	@ 0x7c
 8004fe0:	454b      	cmp	r3, r9
 8004fe2:	bfa8      	it	ge
 8004fe4:	464b      	movge	r3, r9
 8004fe6:	2b00      	cmp	r3, #0
 8004fe8:	dd30      	ble.n	800504c <_ZN5Eigen8internal23triangular_solve_matrixIdiLi1ELi2ELb0ELi0ELi0ELi1EE3runEiiPKdiPdiiRNS0_15level3_blockingIddEE+0x4bc>
 8004fea:	f8d7 208c 	ldr.w	r2, [r7, #140]	@ 0x8c
 8004fee:	f107 01b0 	add.w	r1, r7, #176	@ 0xb0
 8004ff2:	00ee      	lsls	r6, r5, #3
 8004ff4:	eb02 02c5 	add.w	r2, r2, r5, lsl #3
 8004ff8:	e9c7 2a2c 	strd	r2, sl, [r7, #176]	@ 0xb0
 8004ffc:	e9cd 8800 	strd	r8, r8, [sp]
 8005000:	465a      	mov	r2, fp
 8005002:	f8d7 009c 	ldr.w	r0, [r7, #156]	@ 0x9c
 8005006:	f8c7 3088 	str.w	r3, [r7, #136]	@ 0x88
 800500a:	f7fc fe7f 	bl	8001d0c <_ZN5Eigen8internal13gemm_pack_lhsIdiNS0_22const_blas_data_mapperIdiLi0EEELi1ELi1EdLi0ELb0ELb0EEclEPdRKS3_iiii.isra.0>
 800500e:	f8d7 3100 	ldr.w	r3, [r7, #256]	@ 0x100
 8005012:	eebf 0b00 	vmov.f64	d0, #240	@ 0xbf800000 -1.0
 8005016:	f107 00b0 	add.w	r0, r7, #176	@ 0xb0
 800501a:	441e      	add	r6, r3
 800501c:	f8d7 3108 	ldr.w	r3, [r7, #264]	@ 0x108
 8005020:	f8c7 30b4 	str.w	r3, [r7, #180]	@ 0xb4
 8005024:	f04f 33ff 	mov.w	r3, #4294967295	@ 0xffffffff
 8005028:	f8c7 60b0 	str.w	r6, [r7, #176]	@ 0xb0
 800502c:	e9cd 8804 	strd	r8, r8, [sp, #16]
 8005030:	e9cd 3302 	strd	r3, r3, [sp, #8]
 8005034:	f8d7 3084 	ldr.w	r3, [r7, #132]	@ 0x84
 8005038:	e9cd b300 	strd	fp, r3, [sp]
 800503c:	f8d7 3088 	ldr.w	r3, [r7, #136]	@ 0x88
 8005040:	f8d7 2090 	ldr.w	r2, [r7, #144]	@ 0x90
 8005044:	f8d7 109c 	ldr.w	r1, [r7, #156]	@ 0x9c
 8005048:	f7fc ff22 	bl	8001e90 <_ZN5Eigen8internal11gebp_kernelIddiNS0_16blas_data_mapperIdiLi0ELi0ELi1EEELi1ELi4ELb0ELb0EEclERKS3_PKdS8_iiidiiii.isra.0>
 800504c:	6ffb      	ldr	r3, [r7, #124]	@ 0x7c
 800504e:	441d      	add	r5, r3
 8005050:	eba9 0903 	sub.w	r9, r9, r3
 8005054:	e6c0      	b.n	8004dd8 <_ZN5Eigen8internal23triangular_solve_matrixIdiLi1ELi2ELb0ELi0ELi0ELi1EE3runEiiPKdiPdiiRNS0_15level3_blockingIddEE+0x248>
 8005056:	bf00      	nop

08005058 <_ZNK5Eigen8internal17product_evaluatorINS_7ProductINS_5BlockINS3_INS_3RefINS_6MatrixIdLi6ELi6ELi0ELi6ELi6EEELi0ENS_11OuterStrideILin1EEEEELi6ELi1ELb1EEELin1ELi1ELb0EEENS3_INS3_IS9_Li1ELi6ELb0EEELi1ELin1ELb0EEELi1EEELi4ENS_10DenseShapeESF_ddE5coeffEii>:
 8005058:	6803      	ldr	r3, [r0, #0]
 800505a:	2900      	cmp	r1, #0
 800505c:	eb03 03c1 	add.w	r3, r3, r1, lsl #3
 8005060:	b510      	push	{r4, lr}
 8005062:	db02      	blt.n	800506a <_ZNK5Eigen8internal17product_evaluatorINS_7ProductINS_5BlockINS3_INS_3RefINS_6MatrixIdLi6ELi6ELi0ELi6ELi6EEELi0ENS_11OuterStrideILin1EEEEELi6ELi1ELb1EEELin1ELi1ELb0EEENS3_INS3_IS9_Li1ELi6ELb0EEELi1ELin1ELb0EEELi1EEELi4ENS_10DenseShapeESF_ddE5coeffEii+0x12>
 8005064:	6844      	ldr	r4, [r0, #4]
 8005066:	42a1      	cmp	r1, r4
 8005068:	db05      	blt.n	8005076 <_ZNK5Eigen8internal17product_evaluatorINS_7ProductINS_5BlockINS3_INS_3RefINS_6MatrixIdLi6ELi6ELi0ELi6ELi6EEELi0ENS_11OuterStrideILin1EEEEELi6ELi1ELb1EEELin1ELi1ELb0EEENS3_INS3_IS9_Li1ELi6ELb0EEELi1ELin1ELb0EEELi1EEELi4ENS_10DenseShapeESF_ddE5coeffEii+0x1e>
 800506a:	4b0e      	ldr	r3, [pc, #56]	@ (80050a4 <_ZNK5Eigen8internal17product_evaluatorINS_7ProductINS_5BlockINS3_INS_3RefINS_6MatrixIdLi6ELi6ELi0ELi6ELi6EEELi0ENS_11OuterStrideILin1EEEEELi6ELi1ELb1EEELin1ELi1ELb0EEENS3_INS3_IS9_Li1ELi6ELb0EEELi1ELin1ELb0EEELi1EEELi4ENS_10DenseShapeESF_ddE5coeffEii+0x4c>)
 800506c:	4a0e      	ldr	r2, [pc, #56]	@ (80050a8 <_ZNK5Eigen8internal17product_evaluatorINS_7ProductINS_5BlockINS3_INS_3RefINS_6MatrixIdLi6ELi6ELi0ELi6ELi6EEELi0ENS_11OuterStrideILin1EEEEELi6ELi1ELb1EEELin1ELi1ELb0EEENS3_INS3_IS9_Li1ELi6ELb0EEELi1ELin1ELb0EEELi1EEELi4ENS_10DenseShapeESF_ddE5coeffEii+0x50>)
 800506e:	2178      	movs	r1, #120	@ 0x78
 8005070:	480e      	ldr	r0, [pc, #56]	@ (80050ac <_ZNK5Eigen8internal17product_evaluatorINS_7ProductINS_5BlockINS3_INS_3RefINS_6MatrixIdLi6ELi6ELi0ELi6ELi6EEELi0ENS_11OuterStrideILin1EEEEELi6ELi1ELb1EEELin1ELi1ELb0EEENS3_INS3_IS9_Li1ELi6ELb0EEELi1ELin1ELb0EEELi1EEELi4ENS_10DenseShapeESF_ddE5coeffEii+0x54>)
 8005072:	f004 fe8d 	bl	8009d90 <__assert_func>
 8005076:	6c41      	ldr	r1, [r0, #68]	@ 0x44
 8005078:	2a00      	cmp	r2, #0
 800507a:	688c      	ldr	r4, [r1, #8]
 800507c:	6b01      	ldr	r1, [r0, #48]	@ 0x30
 800507e:	fb02 f404 	mul.w	r4, r2, r4
 8005082:	eb01 01c4 	add.w	r1, r1, r4, lsl #3
 8005086:	db02      	blt.n	800508e <_ZNK5Eigen8internal17product_evaluatorINS_7ProductINS_5BlockINS3_INS_3RefINS_6MatrixIdLi6ELi6ELi0ELi6ELi6EEELi0ENS_11OuterStrideILin1EEEEELi6ELi1ELb1EEELin1ELi1ELb0EEENS3_INS3_IS9_Li1ELi6ELb0EEELi1ELin1ELb0EEELi1EEELi4ENS_10DenseShapeESF_ddE5coeffEii+0x36>
 8005088:	6b80      	ldr	r0, [r0, #56]	@ 0x38
 800508a:	4282      	cmp	r2, r0
 800508c:	db02      	blt.n	8005094 <_ZNK5Eigen8internal17product_evaluatorINS_7ProductINS_5BlockINS3_INS_3RefINS_6MatrixIdLi6ELi6ELi0ELi6ELi6EEELi0ENS_11OuterStrideILin1EEEEELi6ELi1ELb1EEELin1ELi1ELb0EEENS3_INS3_IS9_Li1ELi6ELb0EEELi1ELin1ELb0EEELi1EEELi4ENS_10DenseShapeESF_ddE5coeffEii+0x3c>
 800508e:	4b05      	ldr	r3, [pc, #20]	@ (80050a4 <_ZNK5Eigen8internal17product_evaluatorINS_7ProductINS_5BlockINS3_INS_3RefINS_6MatrixIdLi6ELi6ELi0ELi6ELi6EEELi0ENS_11OuterStrideILin1EEEEELi6ELi1ELb1EEELin1ELi1ELb0EEENS3_INS3_IS9_Li1ELi6ELb0EEELi1ELin1ELb0EEELi1EEELi4ENS_10DenseShapeESF_ddE5coeffEii+0x4c>)
 8005090:	4a07      	ldr	r2, [pc, #28]	@ (80050b0 <_ZNK5Eigen8internal17product_evaluatorINS_7ProductINS_5BlockINS3_INS_3RefINS_6MatrixIdLi6ELi6ELi0ELi6ELi6EEELi0ENS_11OuterStrideILin1EEEEELi6ELi1ELb1EEELin1ELi1ELb0EEENS3_INS3_IS9_Li1ELi6ELb0EEELi1ELin1ELb0EEELi1EEELi4ENS_10DenseShapeESF_ddE5coeffEii+0x58>)
 8005092:	e7ec      	b.n	800506e <_ZNK5Eigen8internal17product_evaluatorINS_7ProductINS_5BlockINS3_INS_3RefINS_6MatrixIdLi6ELi6ELi0ELi6ELi6EEELi0ENS_11OuterStrideILin1EEEEELi6ELi1ELb1EEELin1ELi1ELb0EEENS3_INS3_IS9_Li1ELi6ELb0EEELi1ELin1ELb0EEELi1EEELi4ENS_10DenseShapeESF_ddE5coeffEii+0x16>
 8005094:	ed91 0b00 	vldr	d0, [r1]
 8005098:	ed93 7b00 	vldr	d7, [r3]
 800509c:	ee20 0b07 	vmul.f64	d0, d0, d7
 80050a0:	bd10      	pop	{r4, pc}
 80050a2:	bf00      	nop
 80050a4:	0800bd26 	.word	0x0800bd26
 80050a8:	0800ccff 	.word	0x0800ccff
 80050ac:	0800beaa 	.word	0x0800beaa
 80050b0:	0800ce38 	.word	0x0800ce38

080050b4 <_ZN5Eigen8internal21dense_assignment_loopINS0_31generic_dense_assignment_kernelINS0_9evaluatorINS_5BlockINS_3RefINS_6MatrixIdLi6ELi6ELi0ELi6ELi6EEELi0ENS_11OuterStrideILin1EEEEELin1ELin1ELb0EEEEENS3_INS_7ProductINS4_INS4_ISA_Li6ELi1ELb1EEELin1ELi1ELb0EEENS4_INS4_ISA_Li1ELi6ELb0EEELi1ELin1ELb0EEELi1EEEEENS0_13sub_assign_opIddEELi0EEELi0ELi0EE3runERSM_>:
 80050b4:	e92d 47f0 	stmdb	sp!, {r4, r5, r6, r7, r8, r9, sl, lr}
 80050b8:	f8d0 800c 	ldr.w	r8, [r0, #12]
 80050bc:	4606      	mov	r6, r0
 80050be:	2500      	movs	r5, #0
 80050c0:	f8d8 a008 	ldr.w	sl, [r8, #8]
 80050c4:	4555      	cmp	r5, sl
 80050c6:	da1a      	bge.n	80050fe <_ZN5Eigen8internal21dense_assignment_loopINS0_31generic_dense_assignment_kernelINS0_9evaluatorINS_5BlockINS_3RefINS_6MatrixIdLi6ELi6ELi0ELi6ELi6EEELi0ENS_11OuterStrideILin1EEEEELin1ELin1ELb0EEEEENS3_INS_7ProductINS4_INS4_ISA_Li6ELi1ELb1EEELin1ELi1ELb0EEENS4_INS4_ISA_Li1ELi6ELb0EEELi1ELin1ELb0EEELi1EEEEENS0_13sub_assign_opIddEELi0EEELi0ELi0EE3runERSM_+0x4a>
 80050c8:	f8d8 9004 	ldr.w	r9, [r8, #4]
 80050cc:	2400      	movs	r4, #0
 80050ce:	e012      	b.n	80050f6 <_ZN5Eigen8internal21dense_assignment_loopINS0_31generic_dense_assignment_kernelINS0_9evaluatorINS_5BlockINS_3RefINS_6MatrixIdLi6ELi6ELi0ELi6ELi6EEELi0ENS_11OuterStrideILin1EEEEELin1ELin1ELb0EEEEENS3_INS_7ProductINS4_INS4_ISA_Li6ELi1ELb1EEELin1ELi1ELb0EEENS4_INS4_ISA_Li1ELi6ELb0EEELi1ELin1ELb0EEELi1EEEEENS0_13sub_assign_opIddEELi0EEELi0ELi0EE3runERSM_+0x42>
 80050d0:	6832      	ldr	r2, [r6, #0]
 80050d2:	4621      	mov	r1, r4
 80050d4:	6870      	ldr	r0, [r6, #4]
 80050d6:	6893      	ldr	r3, [r2, #8]
 80050d8:	6817      	ldr	r7, [r2, #0]
 80050da:	462a      	mov	r2, r5
 80050dc:	fb03 4305 	mla	r3, r3, r5, r4
 80050e0:	3401      	adds	r4, #1
 80050e2:	eb07 07c3 	add.w	r7, r7, r3, lsl #3
 80050e6:	f7ff ffb7 	bl	8005058 <_ZNK5Eigen8internal17product_evaluatorINS_7ProductINS_5BlockINS3_INS_3RefINS_6MatrixIdLi6ELi6ELi0ELi6ELi6EEELi0ENS_11OuterStrideILin1EEEEELi6ELi1ELb1EEELin1ELi1ELb0EEENS3_INS3_IS9_Li1ELi6ELb0EEELi1ELin1ELb0EEELi1EEELi4ENS_10DenseShapeESF_ddE5coeffEii>
 80050ea:	ed97 7b00 	vldr	d7, [r7]
 80050ee:	ee37 7b40 	vsub.f64	d7, d7, d0
 80050f2:	ed87 7b00 	vstr	d7, [r7]
 80050f6:	454c      	cmp	r4, r9
 80050f8:	dbea      	blt.n	80050d0 <_ZN5Eigen8internal21dense_assignment_loopINS0_31generic_dense_assignment_kernelINS0_9evaluatorINS_5BlockINS_3RefINS_6MatrixIdLi6ELi6ELi0ELi6ELi6EEELi0ENS_11OuterStrideILin1EEEEELin1ELin1ELb0EEEEENS3_INS_7ProductINS4_INS4_ISA_Li6ELi1ELb1EEELin1ELi1ELb0EEENS4_INS4_ISA_Li1ELi6ELb0EEELi1ELin1ELb0EEELi1EEEEENS0_13sub_assign_opIddEELi0EEELi0ELi0EE3runERSM_+0x1c>
 80050fa:	3501      	adds	r5, #1
 80050fc:	e7e2      	b.n	80050c4 <_ZN5Eigen8internal21dense_assignment_loopINS0_31generic_dense_assignment_kernelINS0_9evaluatorINS_5BlockINS_3RefINS_6MatrixIdLi6ELi6ELi0ELi6ELi6EEELi0ENS_11OuterStrideILin1EEEEELin1ELin1ELb0EEEEENS3_INS_7ProductINS4_INS4_ISA_Li6ELi1ELb1EEELin1ELi1ELb0EEENS4_INS4_ISA_Li1ELi6ELb0EEELi1ELin1ELb0EEELi1EEEEENS0_13sub_assign_opIddEELi0EEELi0ELi0EE3runERSM_+0x10>
 80050fe:	e8bd 87f0 	ldmia.w	sp!, {r4, r5, r6, r7, r8, r9, sl, pc}
	...

08005104 <_ZN5Eigen8internal15partial_lu_implIdLi0EiLi6EE12unblocked_luERNS_3RefINS_6MatrixIdLi6ELi6ELi0ELi6ELi6EEELi0ENS_11OuterStrideILin1EEEEEPiRi.isra.0>:
 8005104:	e92d 4ff0 	stmdb	sp!, {r4, r5, r6, r7, r8, r9, sl, fp, lr}
 8005108:	2500      	movs	r5, #0
 800510a:	f5ad 7d07 	sub.w	sp, sp, #540	@ 0x21c
 800510e:	4607      	mov	r7, r0
 8005110:	4692      	mov	sl, r2
 8005112:	9103      	str	r1, [sp, #12]
 8005114:	6015      	str	r5, [r2, #0]
 8005116:	462a      	mov	r2, r5
 8005118:	4639      	mov	r1, r7
 800511a:	a84f      	add	r0, sp, #316	@ 0x13c
 800511c:	f1c5 0405 	rsb	r4, r5, #5
 8005120:	f7fe fe02 	bl	8003d28 <_ZN5Eigen5BlockINS_3RefINS_6MatrixIdLi6ELi6ELi0ELi6ELi6EEELi0ENS_11OuterStrideILin1EEEEELi6ELi1ELb1EEC1ERS6_i>
 8005124:	f1c5 0306 	rsb	r3, r5, #6
 8005128:	a94f      	add	r1, sp, #316	@ 0x13c
 800512a:	462a      	mov	r2, r5
 800512c:	a867      	add	r0, sp, #412	@ 0x19c
 800512e:	f7fe fe19 	bl	8003d64 <_ZN5Eigen11VectorBlockINS_5BlockINS_3RefINS_6MatrixIdLi6ELi6ELi0ELi6ELi6EEELi0ENS_11OuterStrideILin1EEEEELi6ELi1ELb1EEELin1EEC1ERS8_ii>
 8005132:	e9dd 3167 	ldrd	r3, r1, [sp, #412]	@ 0x19c
 8005136:	2900      	cmp	r1, #0
 8005138:	dc08      	bgt.n	800514c <_ZN5Eigen8internal15partial_lu_implIdLi0EiLi6EE12unblocked_luERNS_3RefINS_6MatrixIdLi6ELi6ELi0ELi6ELi6EEELi0ENS_11OuterStrideILin1EEEEEPiRi.isra.0+0x48>
 800513a:	4b9b      	ldr	r3, [pc, #620]	@ (80053a8 <_ZN5Eigen8internal15partial_lu_implIdLi0EiLi6EE12unblocked_luERNS_3RefINS_6MatrixIdLi6ELi6ELi0ELi6ELi6EEELi0ENS_11OuterStrideILin1EEEEEPiRi.isra.0+0x2a4>)
 800513c:	f44f 71b9 	mov.w	r1, #370	@ 0x172
 8005140:	4a9a      	ldr	r2, [pc, #616]	@ (80053ac <_ZN5Eigen8internal15partial_lu_implIdLi0EiLi6EE12unblocked_luERNS_3RefINS_6MatrixIdLi6ELi6ELi0ELi6ELi6EEELi0ENS_11OuterStrideILin1EEEEEPiRi.isra.0+0x2a8>)
 8005142:	489b      	ldr	r0, [pc, #620]	@ (80053b0 <_ZN5Eigen8internal15partial_lu_implIdLi0EiLi6EE12unblocked_luERNS_3RefINS_6MatrixIdLi6ELi6ELi0ELi6ELi6EEELi0ENS_11OuterStrideILin1EEEEEPiRi.isra.0+0x2ac>)
 8005144:	f004 fe24 	bl	8009d90 <__assert_func>
 8005148:	4645      	mov	r5, r8
 800514a:	e7e4      	b.n	8005116 <_ZN5Eigen8internal15partial_lu_implIdLi0EiLi6EE12unblocked_luERNS_3RefINS_6MatrixIdLi6ELi6ELi0ELi6ELi6EEELi0ENS_11OuterStrideILin1EEEEEPiRi.isra.0+0x12>
 800514c:	ecb3 7b02 	vldmia	r3!, {d7}
 8005150:	2600      	movs	r6, #0
 8005152:	2201      	movs	r2, #1
 8005154:	eeb0 7bc7 	vabs.f64	d7, d7
 8005158:	428a      	cmp	r2, r1
 800515a:	d160      	bne.n	800521e <_ZN5Eigen8internal15partial_lu_implIdLi0EiLi6EE12unblocked_luERNS_3RefINS_6MatrixIdLi6ELi6ELi0ELi6ELi6EEELi0ENS_11OuterStrideILin1EEEEEPiRi.isra.0+0x11a>
 800515c:	eeb5 7b40 	vcmp.f64	d7, #0.0
 8005160:	442e      	add	r6, r5
 8005162:	9b03      	ldr	r3, [sp, #12]
 8005164:	f105 0801 	add.w	r8, r5, #1
 8005168:	eef1 fa10 	vmrs	APSR_nzcv, fpscr
 800516c:	f843 6025 	str.w	r6, [r3, r5, lsl #2]
 8005170:	d06b      	beq.n	800524a <_ZN5Eigen8internal15partial_lu_implIdLi0EiLi6EE12unblocked_luERNS_3RefINS_6MatrixIdLi6ELi6ELi0ELi6ELi6EEELi0ENS_11OuterStrideILin1EEEEEPiRi.isra.0+0x146>
 8005172:	42ae      	cmp	r6, r5
 8005174:	d038      	beq.n	80051e8 <_ZN5Eigen8internal15partial_lu_implIdLi0EiLi6EE12unblocked_luERNS_3RefINS_6MatrixIdLi6ELi6ELi0ELi6ELi6EEELi0ENS_11OuterStrideILin1EEEEEPiRi.isra.0+0xe4>
 8005176:	462a      	mov	r2, r5
 8005178:	4639      	mov	r1, r7
 800517a:	a867      	add	r0, sp, #412	@ 0x19c
 800517c:	f7fe fe2c 	bl	8003dd8 <_ZN5Eigen5BlockINS_3RefINS_6MatrixIdLi6ELi6ELi0ELi6ELi6EEELi0ENS_11OuterStrideILin1EEEEELi1ELi6ELb0EEC1ERS6_i>
 8005180:	4632      	mov	r2, r6
 8005182:	4639      	mov	r1, r7
 8005184:	a84f      	add	r0, sp, #316	@ 0x13c
 8005186:	f7fe fe27 	bl	8003dd8 <_ZN5Eigen5BlockINS_3RefINS_6MatrixIdLi6ELi6ELi0ELi6ELi6EEELi0ENS_11OuterStrideILin1EEEEELi1ELi6ELb0EEC1ERS6_i>
 800518a:	9a4f      	ldr	r2, [sp, #316]	@ 0x13c
 800518c:	9967      	ldr	r1, [sp, #412]	@ 0x19c
 800518e:	ab1f      	add	r3, sp, #124	@ 0x7c
 8005190:	921f      	str	r2, [sp, #124]	@ 0x7c
 8005192:	a837      	add	r0, sp, #220	@ 0xdc
 8005194:	9a51      	ldr	r2, [sp, #324]	@ 0x144
 8005196:	6892      	ldr	r2, [r2, #8]
 8005198:	912b      	str	r1, [sp, #172]	@ 0xac
 800519a:	9220      	str	r2, [sp, #128]	@ 0x80
 800519c:	aa2b      	add	r2, sp, #172	@ 0xac
 800519e:	9969      	ldr	r1, [sp, #420]	@ 0x1a4
 80051a0:	e9cd 2337 	strd	r2, r3, [sp, #220]	@ 0xdc
 80051a4:	ab18      	add	r3, sp, #96	@ 0x60
 80051a6:	6889      	ldr	r1, [r1, #8]
 80051a8:	9339      	str	r3, [sp, #228]	@ 0xe4
 80051aa:	ab67      	add	r3, sp, #412	@ 0x19c
 80051ac:	912c      	str	r1, [sp, #176]	@ 0xb0
 80051ae:	2100      	movs	r1, #0
 80051b0:	933a      	str	r3, [sp, #232]	@ 0xe8
 80051b2:	f7ff fcd7 	bl	8004b64 <_ZN5Eigen8internal31generic_dense_assignment_kernelINS0_9evaluatorINS_5BlockINS_3RefINS_6MatrixIdLi6ELi6ELi0ELi6ELi6EEELi0ENS_11OuterStrideILin1EEEEELi1ELi6ELb0EEEEESB_NS0_14swap_assign_opIdEELi1EE11assignCoeffEi>
 80051b6:	2101      	movs	r1, #1
 80051b8:	a837      	add	r0, sp, #220	@ 0xdc
 80051ba:	f7ff fcd3 	bl	8004b64 <_ZN5Eigen8internal31generic_dense_assignment_kernelINS0_9evaluatorINS_5BlockINS_3RefINS_6MatrixIdLi6ELi6ELi0ELi6ELi6EEELi0ENS_11OuterStrideILin1EEEEELi1ELi6ELb0EEEEESB_NS0_14swap_assign_opIdEELi1EE11assignCoeffEi>
 80051be:	2102      	movs	r1, #2
 80051c0:	a837      	add	r0, sp, #220	@ 0xdc
 80051c2:	f7ff fccf 	bl	8004b64 <_ZN5Eigen8internal31generic_dense_assignment_kernelINS0_9evaluatorINS_5BlockINS_3RefINS_6MatrixIdLi6ELi6ELi0ELi6ELi6EEELi0ENS_11OuterStrideILin1EEEEELi1ELi6ELb0EEEEESB_NS0_14swap_assign_opIdEELi1EE11assignCoeffEi>
 80051c6:	2103      	movs	r1, #3
 80051c8:	a837      	add	r0, sp, #220	@ 0xdc
 80051ca:	f7ff fccb 	bl	8004b64 <_ZN5Eigen8internal31generic_dense_assignment_kernelINS0_9evaluatorINS_5BlockINS_3RefINS_6MatrixIdLi6ELi6ELi0ELi6ELi6EEELi0ENS_11OuterStrideILin1EEEEELi1ELi6ELb0EEEEESB_NS0_14swap_assign_opIdEELi1EE11assignCoeffEi>
 80051ce:	2104      	movs	r1, #4
 80051d0:	a837      	add	r0, sp, #220	@ 0xdc
 80051d2:	f7ff fcc7 	bl	8004b64 <_ZN5Eigen8internal31generic_dense_assignment_kernelINS0_9evaluatorINS_5BlockINS_3RefINS_6MatrixIdLi6ELi6ELi0ELi6ELi6EEELi0ENS_11OuterStrideILin1EEEEELi1ELi6ELb0EEEEESB_NS0_14swap_assign_opIdEELi1EE11assignCoeffEi>
 80051d6:	2105      	movs	r1, #5
 80051d8:	a837      	add	r0, sp, #220	@ 0xdc
 80051da:	f7ff fcc3 	bl	8004b64 <_ZN5Eigen8internal31generic_dense_assignment_kernelINS0_9evaluatorINS_5BlockINS_3RefINS_6MatrixIdLi6ELi6ELi0ELi6ELi6EEELi0ENS_11OuterStrideILin1EEEEELi1ELi6ELb0EEEEESB_NS0_14swap_assign_opIdEELi1EE11assignCoeffEi>
 80051de:	f8da 3000 	ldr.w	r3, [sl]
 80051e2:	3301      	adds	r3, #1
 80051e4:	f8ca 3000 	str.w	r3, [sl]
 80051e8:	462a      	mov	r2, r5
 80051ea:	4639      	mov	r1, r7
 80051ec:	a84f      	add	r0, sp, #316	@ 0x13c
 80051ee:	f7fe fd9b 	bl	8003d28 <_ZN5Eigen5BlockINS_3RefINS_6MatrixIdLi6ELi6ELi0ELi6ELi6EEELi0ENS_11OuterStrideILin1EEEEELi6ELi1ELb1EEC1ERS6_i>
 80051f2:	4623      	mov	r3, r4
 80051f4:	4642      	mov	r2, r8
 80051f6:	a94f      	add	r1, sp, #316	@ 0x13c
 80051f8:	a867      	add	r0, sp, #412	@ 0x19c
 80051fa:	f7fe fdb3 	bl	8003d64 <_ZN5Eigen11VectorBlockINS_5BlockINS_3RefINS_6MatrixIdLi6ELi6ELi0ELi6ELi6EEELi0ENS_11OuterStrideILin1EEEEELi6ELi1ELb1EEELin1EEC1ERS8_ii>
 80051fe:	68bb      	ldr	r3, [r7, #8]
 8005200:	9a68      	ldr	r2, [sp, #416]	@ 0x1a0
 8005202:	fb03 5105 	mla	r1, r3, r5, r5
 8005206:	683b      	ldr	r3, [r7, #0]
 8005208:	2a00      	cmp	r2, #0
 800520a:	eb03 03c1 	add.w	r3, r3, r1, lsl #3
 800520e:	ed93 7b00 	vldr	d7, [r3]
 8005212:	da15      	bge.n	8005240 <_ZN5Eigen8internal15partial_lu_implIdLi0EiLi6EE12unblocked_luERNS_3RefINS_6MatrixIdLi6ELi6ELi0ELi6ELi6EEELi0ENS_11OuterStrideILin1EEEEEPiRi.isra.0+0x13c>
 8005214:	4b67      	ldr	r3, [pc, #412]	@ (80053b4 <_ZN5Eigen8internal15partial_lu_implIdLi0EiLi6EE12unblocked_luERNS_3RefINS_6MatrixIdLi6ELi6ELi0ELi6ELi6EEELi0ENS_11OuterStrideILin1EEEEEPiRi.isra.0+0x2b0>)
 8005216:	2147      	movs	r1, #71	@ 0x47
 8005218:	4a67      	ldr	r2, [pc, #412]	@ (80053b8 <_ZN5Eigen8internal15partial_lu_implIdLi0EiLi6EE12unblocked_luERNS_3RefINS_6MatrixIdLi6ELi6ELi0ELi6ELi6EEELi0ENS_11OuterStrideILin1EEEEEPiRi.isra.0+0x2b4>)
 800521a:	4868      	ldr	r0, [pc, #416]	@ (80053bc <_ZN5Eigen8internal15partial_lu_implIdLi0EiLi6EE12unblocked_luERNS_3RefINS_6MatrixIdLi6ELi6ELi0ELi6ELi6EEELi0ENS_11OuterStrideILin1EEEEEPiRi.isra.0+0x2b8>)
 800521c:	e792      	b.n	8005144 <_ZN5Eigen8internal15partial_lu_implIdLi0EiLi6EE12unblocked_luERNS_3RefINS_6MatrixIdLi6ELi6ELi0ELi6ELi6EEELi0ENS_11OuterStrideILin1EEEEEPiRi.isra.0+0x40>
 800521e:	ecb3 6b02 	vldmia	r3!, {d6}
 8005222:	eeb0 6bc6 	vabs.f64	d6, d6
 8005226:	eeb4 6bc7 	vcmpe.f64	d6, d7
 800522a:	eef1 fa10 	vmrs	APSR_nzcv, fpscr
 800522e:	dc05      	bgt.n	800523c <_ZN5Eigen8internal15partial_lu_implIdLi0EiLi6EE12unblocked_luERNS_3RefINS_6MatrixIdLi6ELi6ELi0ELi6ELi6EEELi0ENS_11OuterStrideILin1EEEEEPiRi.isra.0+0x138>
 8005230:	eeb0 6b47 	vmov.f64	d6, d7
 8005234:	eeb0 7b46 	vmov.f64	d7, d6
 8005238:	3201      	adds	r2, #1
 800523a:	e78d      	b.n	8005158 <_ZN5Eigen8internal15partial_lu_implIdLi0EiLi6EE12unblocked_luERNS_3RefINS_6MatrixIdLi6ELi6ELi0ELi6ELi6EEELi0ENS_11OuterStrideILin1EEEEEPiRi.isra.0+0x54>
 800523c:	4616      	mov	r6, r2
 800523e:	e7f9      	b.n	8005234 <_ZN5Eigen8internal15partial_lu_implIdLi0EiLi6EE12unblocked_luERNS_3RefINS_6MatrixIdLi6ELi6ELi0ELi6ELi6EEELi0ENS_11OuterStrideILin1EEEEEPiRi.isra.0+0x130>
 8005240:	9b67      	ldr	r3, [sp, #412]	@ 0x19c
 8005242:	eb03 02c2 	add.w	r2, r3, r2, lsl #3
 8005246:	4293      	cmp	r3, r2
 8005248:	d158      	bne.n	80052fc <_ZN5Eigen8internal15partial_lu_implIdLi0EiLi6EE12unblocked_luERNS_3RefINS_6MatrixIdLi6ELi6ELi0ELi6ELi6EEELi0ENS_11OuterStrideILin1EEEEEPiRi.isra.0+0x1f8>
 800524a:	f8d7 b008 	ldr.w	fp, [r7, #8]
 800524e:	f10d 0960 	add.w	r9, sp, #96	@ 0x60
 8005252:	683b      	ldr	r3, [r7, #0]
 8005254:	4639      	mov	r1, r7
 8005256:	fb0b 8208 	mla	r2, fp, r8, r8
 800525a:	a812      	add	r0, sp, #72	@ 0x48
 800525c:	f8c9 b018 	str.w	fp, [r9, #24]
 8005260:	ae22      	add	r6, sp, #136	@ 0x88
 8005262:	eb03 03c2 	add.w	r3, r3, r2, lsl #3
 8005266:	462a      	mov	r2, r5
 8005268:	e9c9 3400 	strd	r3, r4, [r9]
 800526c:	e9c9 4702 	strd	r4, r7, [r9, #8]
 8005270:	e9c9 8804 	strd	r8, r8, [r9, #16]
 8005274:	9301      	str	r3, [sp, #4]
 8005276:	f7fe fd57 	bl	8003d28 <_ZN5Eigen5BlockINS_3RefINS_6MatrixIdLi6ELi6ELi0ELi6ELi6EEELi0ENS_11OuterStrideILin1EEEEELi6ELi1ELb1EEC1ERS6_i>
 800527a:	4623      	mov	r3, r4
 800527c:	4642      	mov	r2, r8
 800527e:	a912      	add	r1, sp, #72	@ 0x48
 8005280:	a82b      	add	r0, sp, #172	@ 0xac
 8005282:	f7fe fd6f 	bl	8003d64 <_ZN5Eigen11VectorBlockINS_5BlockINS_3RefINS_6MatrixIdLi6ELi6ELi0ELi6ELi6EEELi0ENS_11OuterStrideILin1EEEEELi6ELi1ELb1EEELin1EEC1ERS8_ii>
 8005286:	462a      	mov	r2, r5
 8005288:	4639      	mov	r1, r7
 800528a:	a80c      	add	r0, sp, #48	@ 0x30
 800528c:	f7fe fda4 	bl	8003dd8 <_ZN5Eigen5BlockINS_3RefINS_6MatrixIdLi6ELi6ELi0ELi6ELi6EEELi0ENS_11OuterStrideILin1EEEEELi1ELi6ELb0EEC1ERS6_i>
 8005290:	9b0e      	ldr	r3, [sp, #56]	@ 0x38
 8005292:	9a0c      	ldr	r2, [sp, #48]	@ 0x30
 8005294:	ad0c      	add	r5, sp, #48	@ 0x30
 8005296:	689b      	ldr	r3, [r3, #8]
 8005298:	f04f 0e01 	mov.w	lr, #1
 800529c:	fb03 f308 	mul.w	r3, r3, r8
 80052a0:	eb02 03c3 	add.w	r3, r2, r3, lsl #3
 80052a4:	9302      	str	r3, [sp, #8]
 80052a6:	cd0f      	ldmia	r5!, {r0, r1, r2, r3}
 80052a8:	c60f      	stmia	r6!, {r0, r1, r2, r3}
 80052aa:	e895 0003 	ldmia.w	r5, {r0, r1}
 80052ae:	ad37      	add	r5, sp, #220	@ 0xdc
 80052b0:	e886 0003 	stmia.w	r6, {r0, r1}
 80052b4:	ae2b      	add	r6, sp, #172	@ 0xac
 80052b6:	ce0f      	ldmia	r6!, {r0, r1, r2, r3}
 80052b8:	c50f      	stmia	r5!, {r0, r1, r2, r3}
 80052ba:	ce0f      	ldmia	r6!, {r0, r1, r2, r3}
 80052bc:	c50f      	stmia	r5!, {r0, r1, r2, r3}
 80052be:	e896 000f 	ldmia.w	r6, {r0, r1, r2, r3}
 80052c2:	9421      	str	r4, [sp, #132]	@ 0x84
 80052c4:	ac1f      	add	r4, sp, #124	@ 0x7c
 80052c6:	f8cd 80a4 	str.w	r8, [sp, #164]	@ 0xa4
 80052ca:	f8cd e0a8 	str.w	lr, [sp, #168]	@ 0xa8
 80052ce:	9e2c      	ldr	r6, [sp, #176]	@ 0xb0
 80052d0:	e885 000f 	stmia.w	r5, {r0, r1, r2, r3}
 80052d4:	9b02      	ldr	r3, [sp, #8]
 80052d6:	ad43      	add	r5, sp, #268	@ 0x10c
 80052d8:	931f      	str	r3, [sp, #124]	@ 0x7c
 80052da:	cc0f      	ldmia	r4!, {r0, r1, r2, r3}
 80052dc:	c50f      	stmia	r5!, {r0, r1, r2, r3}
 80052de:	cc0f      	ldmia	r4!, {r0, r1, r2, r3}
 80052e0:	c50f      	stmia	r5!, {r0, r1, r2, r3}
 80052e2:	e894 000f 	ldmia.w	r4, {r0, r1, r2, r3}
 80052e6:	e885 000f 	stmia.w	r5, {r0, r1, r2, r3}
 80052ea:	f1c8 0306 	rsb	r3, r8, #6
 80052ee:	42b3      	cmp	r3, r6
 80052f0:	d00b      	beq.n	800530a <_ZN5Eigen8internal15partial_lu_implIdLi0EiLi6EE12unblocked_luERNS_3RefINS_6MatrixIdLi6ELi6ELi0ELi6ELi6EEELi0ENS_11OuterStrideILin1EEEEEPiRi.isra.0+0x206>
 80052f2:	4b33      	ldr	r3, [pc, #204]	@ (80053c0 <_ZN5Eigen8internal15partial_lu_implIdLi0EiLi6EE12unblocked_luERNS_3RefINS_6MatrixIdLi6ELi6ELi0ELi6ELi6EEELi0ENS_11OuterStrideILin1EEEEEPiRi.isra.0+0x2bc>)
 80052f4:	21b0      	movs	r1, #176	@ 0xb0
 80052f6:	4a33      	ldr	r2, [pc, #204]	@ (80053c4 <_ZN5Eigen8internal15partial_lu_implIdLi0EiLi6EE12unblocked_luERNS_3RefINS_6MatrixIdLi6ELi6ELi0ELi6ELi6EEELi0ENS_11OuterStrideILin1EEEEEPiRi.isra.0+0x2c0>)
 80052f8:	4833      	ldr	r0, [pc, #204]	@ (80053c8 <_ZN5Eigen8internal15partial_lu_implIdLi0EiLi6EE12unblocked_luERNS_3RefINS_6MatrixIdLi6ELi6ELi0ELi6ELi6EEELi0ENS_11OuterStrideILin1EEEEEPiRi.isra.0+0x2c4>)
 80052fa:	e723      	b.n	8005144 <_ZN5Eigen8internal15partial_lu_implIdLi0EiLi6EE12unblocked_luERNS_3RefINS_6MatrixIdLi6ELi6ELi0ELi6ELi6EEELi0ENS_11OuterStrideILin1EEEEEPiRi.isra.0+0x40>
 80052fc:	ed93 5b00 	vldr	d5, [r3]
 8005300:	ee85 6b07 	vdiv.f64	d6, d5, d7
 8005304:	eca3 6b02 	vstmia	r3!, {d6}
 8005308:	e79d      	b.n	8005246 <_ZN5Eigen8internal15partial_lu_implIdLi0EiLi6EE12unblocked_luERNS_3RefINS_6MatrixIdLi6ELi6ELi0ELi6ELi6EEELi0ENS_11OuterStrideILin1EEEEEPiRi.isra.0+0x142>
 800530a:	ac37      	add	r4, sp, #220	@ 0xdc
 800530c:	ad4f      	add	r5, sp, #316	@ 0x13c
 800530e:	ae43      	add	r6, sp, #268	@ 0x10c
 8005310:	f50d 7c9e 	add.w	ip, sp, #316	@ 0x13c
 8005314:	cc0f      	ldmia	r4!, {r0, r1, r2, r3}
 8005316:	c50f      	stmia	r5!, {r0, r1, r2, r3}
 8005318:	cc0f      	ldmia	r4!, {r0, r1, r2, r3}
 800531a:	c50f      	stmia	r5!, {r0, r1, r2, r3}
 800531c:	e894 000f 	ldmia.w	r4, {r0, r1, r2, r3}
 8005320:	ac5b      	add	r4, sp, #364	@ 0x16c
 8005322:	e885 000f 	stmia.w	r5, {r0, r1, r2, r3}
 8005326:	ce0f      	ldmia	r6!, {r0, r1, r2, r3}
 8005328:	c40f      	stmia	r4!, {r0, r1, r2, r3}
 800532a:	ce0f      	ldmia	r6!, {r0, r1, r2, r3}
 800532c:	c40f      	stmia	r4!, {r0, r1, r2, r3}
 800532e:	e896 000f 	ldmia.w	r6, {r0, r1, r2, r3}
 8005332:	ae67      	add	r6, sp, #412	@ 0x19c
 8005334:	e884 000f 	stmia.w	r4, {r0, r1, r2, r3}
 8005338:	e8bc 000f 	ldmia.w	ip!, {r0, r1, r2, r3}
 800533c:	c60f      	stmia	r6!, {r0, r1, r2, r3}
 800533e:	e8bc 000f 	ldmia.w	ip!, {r0, r1, r2, r3}
 8005342:	c60f      	stmia	r6!, {r0, r1, r2, r3}
 8005344:	e895 000f 	ldmia.w	r5, {r0, r1, r2, r3}
 8005348:	e886 000f 	stmia.w	r6, {r0, r1, r2, r3}
 800534c:	ae5b      	add	r6, sp, #364	@ 0x16c
 800534e:	ad73      	add	r5, sp, #460	@ 0x1cc
 8005350:	ce0f      	ldmia	r6!, {r0, r1, r2, r3}
 8005352:	c50f      	stmia	r5!, {r0, r1, r2, r3}
 8005354:	ce0f      	ldmia	r6!, {r0, r1, r2, r3}
 8005356:	c50f      	stmia	r5!, {r0, r1, r2, r3}
 8005358:	e894 000f 	ldmia.w	r4, {r0, r1, r2, r3}
 800535c:	e885 000f 	stmia.w	r5, {r0, r1, r2, r3}
 8005360:	9b67      	ldr	r3, [sp, #412]	@ 0x19c
 8005362:	a808      	add	r0, sp, #32
 8005364:	9a01      	ldr	r2, [sp, #4]
 8005366:	937f      	str	r3, [sp, #508]	@ 0x1fc
 8005368:	9b6c      	ldr	r3, [sp, #432]	@ 0x1b0
 800536a:	9205      	str	r2, [sp, #20]
 800536c:	689b      	ldr	r3, [r3, #8]
 800536e:	9381      	str	r3, [sp, #516]	@ 0x204
 8005370:	9b02      	ldr	r3, [sp, #8]
 8005372:	9382      	str	r3, [sp, #520]	@ 0x208
 8005374:	9b78      	ldr	r3, [sp, #480]	@ 0x1e0
 8005376:	689b      	ldr	r3, [r3, #8]
 8005378:	f8cd e214 	str.w	lr, [sp, #532]	@ 0x214
 800537c:	9383      	str	r3, [sp, #524]	@ 0x20c
 800537e:	ab05      	add	r3, sp, #20
 8005380:	e9cd b307 	strd	fp, r3, [sp, #28]
 8005384:	ab67      	add	r3, sp, #412	@ 0x19c
 8005386:	9309      	str	r3, [sp, #36]	@ 0x24
 8005388:	ab04      	add	r3, sp, #16
 800538a:	e9cd 390a 	strd	r3, r9, [sp, #40]	@ 0x28
 800538e:	f7ff fe91 	bl	80050b4 <_ZN5Eigen8internal21dense_assignment_loopINS0_31generic_dense_assignment_kernelINS0_9evaluatorINS_5BlockINS_3RefINS_6MatrixIdLi6ELi6ELi0ELi6ELi6EEELi0ENS_11OuterStrideILin1EEEEELin1ELin1ELb0EEEEENS3_INS_7ProductINS4_INS4_ISA_Li6ELi1ELb1EEELin1ELi1ELb0EEENS4_INS4_ISA_Li1ELi6ELb0EEELi1ELin1ELb0EEELi1EEEEENS0_13sub_assign_opIddEELi0EEELi0ELi0EE3runERSM_>
 8005392:	f1b8 0f05 	cmp.w	r8, #5
 8005396:	f47f aed7 	bne.w	8005148 <_ZN5Eigen8internal15partial_lu_implIdLi0EiLi6EE12unblocked_luERNS_3RefINS_6MatrixIdLi6ELi6ELi0ELi6ELi6EEELi0ENS_11OuterStrideILin1EEEEEPiRi.isra.0+0x44>
 800539a:	9b03      	ldr	r3, [sp, #12]
 800539c:	f8c3 8014 	str.w	r8, [r3, #20]
 80053a0:	f50d 7d07 	add.w	sp, sp, #540	@ 0x21c
 80053a4:	e8bd 8ff0 	ldmia.w	sp!, {r4, r5, r6, r7, r8, r9, sl, fp, pc}
 80053a8:	0800cf72 	.word	0x0800cf72
 80053ac:	0800cfb6 	.word	0x0800cfb6
 80053b0:	0800d14c 	.word	0x0800d14c
 80053b4:	0800d177 	.word	0x0800d177
 80053b8:	0800d20c 	.word	0x0800d20c
 80053bc:	0800d303 	.word	0x0800d303
 80053c0:	0800d335 	.word	0x0800d335
 80053c4:	0800d36a 	.word	0x0800d36a
 80053c8:	0800d78b 	.word	0x0800d78b

080053cc <_ZNK5Eigen8internal15unary_evaluatorINS_5BlockIKNS_12CwiseUnaryOpINS0_13scalar_abs_opIdEEKNS_6MatrixIdLi6ELi6ELi0ELi6ELi6EEEEELi6ELi1ELb1EEENS0_10IndexBasedEdE5coeffEii>:
 80053cc:	68c3      	ldr	r3, [r0, #12]
 80053ce:	441a      	add	r2, r3
 80053d0:	6883      	ldr	r3, [r0, #8]
 80053d2:	4419      	add	r1, r3
 80053d4:	2306      	movs	r3, #6
 80053d6:	fb03 1102 	mla	r1, r3, r2, r1
 80053da:	6843      	ldr	r3, [r0, #4]
 80053dc:	eb03 03c1 	add.w	r3, r3, r1, lsl #3
 80053e0:	ed93 0b00 	vldr	d0, [r3]
 80053e4:	eeb0 0bc0 	vabs.f64	d0, d0
 80053e8:	4770      	bx	lr
	...

080053ec <_ZNK5Eigen8internal9evaluatorINS_16PartialReduxExprIKNS_12CwiseUnaryOpINS0_13scalar_abs_opIdEEKNS_6MatrixIdLi6ELi6ELi0ELi6ELi6EEEEENS0_10member_sumIddEELi0EEEE5coeffEi>:
 80053ec:	2905      	cmp	r1, #5
 80053ee:	6803      	ldr	r3, [r0, #0]
 80053f0:	b510      	push	{r4, lr}
 80053f2:	ed2d 8b06 	vpush	{d8-d10}
 80053f6:	b086      	sub	sp, #24
 80053f8:	d905      	bls.n	8005406 <_ZNK5Eigen8internal9evaluatorINS_16PartialReduxExprIKNS_12CwiseUnaryOpINS0_13scalar_abs_opIdEEKNS_6MatrixIdLi6ELi6ELi0ELi6ELi6EEEEENS0_10member_sumIddEELi0EEEE5coeffEi+0x1a>
 80053fa:	4b21      	ldr	r3, [pc, #132]	@ (8005480 <_ZNK5Eigen8internal9evaluatorINS_16PartialReduxExprIKNS_12CwiseUnaryOpINS0_13scalar_abs_opIdEEKNS_6MatrixIdLi6ELi6ELi0ELi6ELi6EEEEENS0_10member_sumIddEELi0EEEE5coeffEi+0x94>)
 80053fc:	2178      	movs	r1, #120	@ 0x78
 80053fe:	4a21      	ldr	r2, [pc, #132]	@ (8005484 <_ZNK5Eigen8internal9evaluatorINS_16PartialReduxExprIKNS_12CwiseUnaryOpINS0_13scalar_abs_opIdEEKNS_6MatrixIdLi6ELi6ELi0ELi6ELi6EEEEENS0_10member_sumIddEELi0EEEE5coeffEi+0x98>)
 8005400:	4821      	ldr	r0, [pc, #132]	@ (8005488 <_ZNK5Eigen8internal9evaluatorINS_16PartialReduxExprIKNS_12CwiseUnaryOpINS0_13scalar_abs_opIdEEKNS_6MatrixIdLi6ELi6ELi0ELi6ELi6EEEEENS0_10member_sumIddEELi0EEEE5coeffEi+0x9c>)
 8005402:	f004 fcc5 	bl	8009d90 <__assert_func>
 8005406:	2400      	movs	r4, #0
 8005408:	9302      	str	r3, [sp, #8]
 800540a:	2306      	movs	r3, #6
 800540c:	a801      	add	r0, sp, #4
 800540e:	4622      	mov	r2, r4
 8005410:	e9cd 4103 	strd	r4, r1, [sp, #12]
 8005414:	4359      	muls	r1, r3
 8005416:	9105      	str	r1, [sp, #20]
 8005418:	4621      	mov	r1, r4
 800541a:	f7ff ffd7 	bl	80053cc <_ZNK5Eigen8internal15unary_evaluatorINS_5BlockIKNS_12CwiseUnaryOpINS0_13scalar_abs_opIdEEKNS_6MatrixIdLi6ELi6ELi0ELi6ELi6EEEEELi6ELi1ELb1EEENS0_10IndexBasedEdE5coeffEii>
 800541e:	4622      	mov	r2, r4
 8005420:	a801      	add	r0, sp, #4
 8005422:	2101      	movs	r1, #1
 8005424:	eeb0 9b40 	vmov.f64	d9, d0
 8005428:	f7ff ffd0 	bl	80053cc <_ZNK5Eigen8internal15unary_evaluatorINS_5BlockIKNS_12CwiseUnaryOpINS0_13scalar_abs_opIdEEKNS_6MatrixIdLi6ELi6ELi0ELi6ELi6EEEEELi6ELi1ELb1EEENS0_10IndexBasedEdE5coeffEii>
 800542c:	eeb0 8b40 	vmov.f64	d8, d0
 8005430:	4622      	mov	r2, r4
 8005432:	a801      	add	r0, sp, #4
 8005434:	2102      	movs	r1, #2
 8005436:	f7ff ffc9 	bl	80053cc <_ZNK5Eigen8internal15unary_evaluatorINS_5BlockIKNS_12CwiseUnaryOpINS0_13scalar_abs_opIdEEKNS_6MatrixIdLi6ELi6ELi0ELi6ELi6EEEEELi6ELi1ELb1EEENS0_10IndexBasedEdE5coeffEii>
 800543a:	4622      	mov	r2, r4
 800543c:	a801      	add	r0, sp, #4
 800543e:	2103      	movs	r1, #3
 8005440:	ee30 8b08 	vadd.f64	d8, d0, d8
 8005444:	f7ff ffc2 	bl	80053cc <_ZNK5Eigen8internal15unary_evaluatorINS_5BlockIKNS_12CwiseUnaryOpINS0_13scalar_abs_opIdEEKNS_6MatrixIdLi6ELi6ELi0ELi6ELi6EEEEELi6ELi1ELb1EEENS0_10IndexBasedEdE5coeffEii>
 8005448:	2104      	movs	r1, #4
 800544a:	4622      	mov	r2, r4
 800544c:	eb0d 0001 	add.w	r0, sp, r1
 8005450:	ee38 8b09 	vadd.f64	d8, d8, d9
 8005454:	eeb0 9b40 	vmov.f64	d9, d0
 8005458:	f7ff ffb8 	bl	80053cc <_ZNK5Eigen8internal15unary_evaluatorINS_5BlockIKNS_12CwiseUnaryOpINS0_13scalar_abs_opIdEEKNS_6MatrixIdLi6ELi6ELi0ELi6ELi6EEEEELi6ELi1ELb1EEENS0_10IndexBasedEdE5coeffEii>
 800545c:	eeb0 ab40 	vmov.f64	d10, d0
 8005460:	4622      	mov	r2, r4
 8005462:	2105      	movs	r1, #5
 8005464:	a801      	add	r0, sp, #4
 8005466:	f7ff ffb1 	bl	80053cc <_ZNK5Eigen8internal15unary_evaluatorINS_5BlockIKNS_12CwiseUnaryOpINS0_13scalar_abs_opIdEEKNS_6MatrixIdLi6ELi6ELi0ELi6ELi6EEEEELi6ELi1ELb1EEENS0_10IndexBasedEdE5coeffEii>
 800546a:	ee30 0b0a 	vadd.f64	d0, d0, d10
 800546e:	ee30 0b09 	vadd.f64	d0, d0, d9
 8005472:	ee30 0b08 	vadd.f64	d0, d0, d8
 8005476:	b006      	add	sp, #24
 8005478:	ecbd 8b06 	vpop	{d8-d10}
 800547c:	bd10      	pop	{r4, pc}
 800547e:	bf00      	nop
 8005480:	0800bd26 	.word	0x0800bd26
 8005484:	0800d7c0 	.word	0x0800d7c0
 8005488:	0800beaa 	.word	0x0800beaa

0800548c <_ZN5Eigen12PartialPivLUINS_6MatrixIdLi6ELi6ELi0ELi6ELi6EEEE7computeEv>:
 800548c:	b530      	push	{r4, r5, lr}
 800548e:	ed2d 8b06 	vpush	{d8-d10}
 8005492:	b087      	sub	sp, #28
 8005494:	4604      	mov	r4, r0
 8005496:	2100      	movs	r1, #0
 8005498:	9002      	str	r0, [sp, #8]
 800549a:	a802      	add	r0, sp, #8
 800549c:	f7ff ffa6 	bl	80053ec <_ZNK5Eigen8internal9evaluatorINS_16PartialReduxExprIKNS_12CwiseUnaryOpINS0_13scalar_abs_opIdEEKNS_6MatrixIdLi6ELi6ELi0ELi6ELi6EEEEENS0_10member_sumIddEELi0EEEE5coeffEi>
 80054a0:	2101      	movs	r1, #1
 80054a2:	a802      	add	r0, sp, #8
 80054a4:	eeb0 8b40 	vmov.f64	d8, d0
 80054a8:	f7ff ffa0 	bl	80053ec <_ZNK5Eigen8internal9evaluatorINS_16PartialReduxExprIKNS_12CwiseUnaryOpINS0_13scalar_abs_opIdEEKNS_6MatrixIdLi6ELi6ELi0ELi6ELi6EEEEENS0_10member_sumIddEELi0EEEE5coeffEi>
 80054ac:	eeb0 9b40 	vmov.f64	d9, d0
 80054b0:	2102      	movs	r1, #2
 80054b2:	a802      	add	r0, sp, #8
 80054b4:	f7ff ff9a 	bl	80053ec <_ZNK5Eigen8internal9evaluatorINS_16PartialReduxExprIKNS_12CwiseUnaryOpINS0_13scalar_abs_opIdEEKNS_6MatrixIdLi6ELi6ELi0ELi6ELi6EEEEENS0_10member_sumIddEELi0EEEE5coeffEi>
 80054b8:	2103      	movs	r1, #3
 80054ba:	eeb4 9b40 	vcmp.f64	d9, d0
 80054be:	a802      	add	r0, sp, #8
 80054c0:	f504 759c 	add.w	r5, r4, #312	@ 0x138
 80054c4:	eef1 fa10 	vmrs	APSR_nzcv, fpscr
 80054c8:	bf48      	it	mi
 80054ca:	eeb0 9b40 	vmovmi.f64	d9, d0
 80054ce:	eeb4 8b49 	vcmp.f64	d8, d9
 80054d2:	eef1 fa10 	vmrs	APSR_nzcv, fpscr
 80054d6:	bf48      	it	mi
 80054d8:	eeb0 8b49 	vmovmi.f64	d8, d9
 80054dc:	f7ff ff86 	bl	80053ec <_ZNK5Eigen8internal9evaluatorINS_16PartialReduxExprIKNS_12CwiseUnaryOpINS0_13scalar_abs_opIdEEKNS_6MatrixIdLi6ELi6ELi0ELi6ELi6EEEEENS0_10member_sumIddEELi0EEEE5coeffEi>
 80054e0:	2104      	movs	r1, #4
 80054e2:	a802      	add	r0, sp, #8
 80054e4:	eeb0 9b40 	vmov.f64	d9, d0
 80054e8:	f7ff ff80 	bl	80053ec <_ZNK5Eigen8internal9evaluatorINS_16PartialReduxExprIKNS_12CwiseUnaryOpINS0_13scalar_abs_opIdEEKNS_6MatrixIdLi6ELi6ELi0ELi6ELi6EEEEENS0_10member_sumIddEELi0EEEE5coeffEi>
 80054ec:	eeb0 ab40 	vmov.f64	d10, d0
 80054f0:	2105      	movs	r1, #5
 80054f2:	a802      	add	r0, sp, #8
 80054f4:	f7ff ff7a 	bl	80053ec <_ZNK5Eigen8internal9evaluatorINS_16PartialReduxExprIKNS_12CwiseUnaryOpINS0_13scalar_abs_opIdEEKNS_6MatrixIdLi6ELi6ELi0ELi6ELi6EEEEENS0_10member_sumIddEELi0EEEE5coeffEi>
 80054f8:	2306      	movs	r3, #6
 80054fa:	eeb4 ab40 	vcmp.f64	d10, d0
 80054fe:	aa01      	add	r2, sp, #4
 8005500:	4629      	mov	r1, r5
 8005502:	a802      	add	r0, sp, #8
 8005504:	9304      	str	r3, [sp, #16]
 8005506:	eef1 fa10 	vmrs	APSR_nzcv, fpscr
 800550a:	9402      	str	r4, [sp, #8]
 800550c:	bf48      	it	mi
 800550e:	eeb0 ab40 	vmovmi.f64	d10, d0
 8005512:	eeb4 9b4a 	vcmp.f64	d9, d10
 8005516:	eef1 fa10 	vmrs	APSR_nzcv, fpscr
 800551a:	bf48      	it	mi
 800551c:	eeb0 9b4a 	vmovmi.f64	d9, d10
 8005520:	eeb4 8b49 	vcmp.f64	d8, d9
 8005524:	eef1 fa10 	vmrs	APSR_nzcv, fpscr
 8005528:	bf48      	it	mi
 800552a:	eeb0 8b49 	vmovmi.f64	d8, d9
 800552e:	ed84 8b54 	vstr	d8, [r4, #336]	@ 0x150
 8005532:	f7ff fde7 	bl	8005104 <_ZN5Eigen8internal15partial_lu_implIdLi0EiLi6EE12unblocked_luERNS_3RefINS_6MatrixIdLi6ELi6ELi0ELi6ELi6EEELi0ENS_11OuterStrideILin1EEEEEPiRi.isra.0>
 8005536:	9b01      	ldr	r3, [sp, #4]
 8005538:	f504 728e 	add.w	r2, r4, #284	@ 0x11c
 800553c:	f013 0f01 	tst.w	r3, #1
 8005540:	bf0c      	ite	eq
 8005542:	2301      	moveq	r3, #1
 8005544:	f04f 33ff 	movne.w	r3, #4294967295	@ 0xffffffff
 8005548:	f884 3158 	strb.w	r3, [r4, #344]	@ 0x158
 800554c:	2300      	movs	r3, #0
 800554e:	f842 3f04 	str.w	r3, [r2, #4]!
 8005552:	3301      	adds	r3, #1
 8005554:	2b06      	cmp	r3, #6
 8005556:	d1fa      	bne.n	800554e <_ZN5Eigen12PartialPivLUINS_6MatrixIdLi6ELi6ELi0ELi6ELi6EEEE7computeEv+0xc2>
 8005558:	4629      	mov	r1, r5
 800555a:	f504 7290 	add.w	r2, r4, #288	@ 0x120
 800555e:	694b      	ldr	r3, [r1, #20]
 8005560:	2b05      	cmp	r3, #5
 8005562:	d905      	bls.n	8005570 <_ZN5Eigen12PartialPivLUINS_6MatrixIdLi6ELi6ELi0ELi6ELi6EEEE7computeEv+0xe4>
 8005564:	4b0b      	ldr	r3, [pc, #44]	@ (8005594 <_ZN5Eigen12PartialPivLUINS_6MatrixIdLi6ELi6ELi0ELi6ELi6EEEE7computeEv+0x108>)
 8005566:	21b0      	movs	r1, #176	@ 0xb0
 8005568:	4a0b      	ldr	r2, [pc, #44]	@ (8005598 <_ZN5Eigen12PartialPivLUINS_6MatrixIdLi6ELi6ELi0ELi6ELi6EEEE7computeEv+0x10c>)
 800556a:	480c      	ldr	r0, [pc, #48]	@ (800559c <_ZN5Eigen12PartialPivLUINS_6MatrixIdLi6ELi6ELi0ELi6ELi6EEEE7computeEv+0x110>)
 800556c:	f004 fc10 	bl	8009d90 <__assert_func>
 8005570:	009b      	lsls	r3, r3, #2
 8005572:	f851 0d04 	ldr.w	r0, [r1, #-4]!
 8005576:	f503 7390 	add.w	r3, r3, #288	@ 0x120
 800557a:	4291      	cmp	r1, r2
 800557c:	58e5      	ldr	r5, [r4, r3]
 800557e:	600d      	str	r5, [r1, #0]
 8005580:	50e0      	str	r0, [r4, r3]
 8005582:	d1ec      	bne.n	800555e <_ZN5Eigen12PartialPivLUINS_6MatrixIdLi6ELi6ELi0ELi6ELi6EEEE7computeEv+0xd2>
 8005584:	2301      	movs	r3, #1
 8005586:	f884 3159 	strb.w	r3, [r4, #345]	@ 0x159
 800558a:	b007      	add	sp, #28
 800558c:	ecbd 8b06 	vpop	{d8-d10}
 8005590:	bd30      	pop	{r4, r5, pc}
 8005592:	bf00      	nop
 8005594:	0800da81 	.word	0x0800da81
 8005598:	0800daa6 	.word	0x0800daa6
 800559c:	0800db52 	.word	0x0800db52

080055a0 <_ZN5Eigen8internal54copy_using_evaluator_LinearTraversal_CompleteUnrollingINS0_31generic_dense_assignment_kernelINS0_9evaluatorINS_6MatrixIdLi6ELi6ELi0ELi6ELi6EEEEES6_NS0_9assign_opIddEELi0EEELi17ELi36EE3runERS9_>:
 80055a0:	b510      	push	{r4, lr}
 80055a2:	4604      	mov	r4, r0
 80055a4:	2111      	movs	r1, #17
 80055a6:	f7ff facf 	bl	8004b48 <_ZN5Eigen8internal31generic_dense_assignment_kernelINS0_9evaluatorINS_6MatrixIdLi6ELi6ELi0ELi6ELi6EEEEES5_NS0_9assign_opIddEELi0EE11assignCoeffEi>
 80055aa:	2112      	movs	r1, #18
 80055ac:	4620      	mov	r0, r4
 80055ae:	f7ff facb 	bl	8004b48 <_ZN5Eigen8internal31generic_dense_assignment_kernelINS0_9evaluatorINS_6MatrixIdLi6ELi6ELi0ELi6ELi6EEEEES5_NS0_9assign_opIddEELi0EE11assignCoeffEi>
 80055b2:	4620      	mov	r0, r4
 80055b4:	2113      	movs	r1, #19
 80055b6:	f7ff fac7 	bl	8004b48 <_ZN5Eigen8internal31generic_dense_assignment_kernelINS0_9evaluatorINS_6MatrixIdLi6ELi6ELi0ELi6ELi6EEEEES5_NS0_9assign_opIddEELi0EE11assignCoeffEi>
 80055ba:	4620      	mov	r0, r4
 80055bc:	2114      	movs	r1, #20
 80055be:	f7ff fac3 	bl	8004b48 <_ZN5Eigen8internal31generic_dense_assignment_kernelINS0_9evaluatorINS_6MatrixIdLi6ELi6ELi0ELi6ELi6EEEEES5_NS0_9assign_opIddEELi0EE11assignCoeffEi>
 80055c2:	4620      	mov	r0, r4
 80055c4:	2115      	movs	r1, #21
 80055c6:	f7ff fabf 	bl	8004b48 <_ZN5Eigen8internal31generic_dense_assignment_kernelINS0_9evaluatorINS_6MatrixIdLi6ELi6ELi0ELi6ELi6EEEEES5_NS0_9assign_opIddEELi0EE11assignCoeffEi>
 80055ca:	4620      	mov	r0, r4
 80055cc:	2116      	movs	r1, #22
 80055ce:	f7ff fabb 	bl	8004b48 <_ZN5Eigen8internal31generic_dense_assignment_kernelINS0_9evaluatorINS_6MatrixIdLi6ELi6ELi0ELi6ELi6EEEEES5_NS0_9assign_opIddEELi0EE11assignCoeffEi>
 80055d2:	4620      	mov	r0, r4
 80055d4:	2117      	movs	r1, #23
 80055d6:	f7ff fab7 	bl	8004b48 <_ZN5Eigen8internal31generic_dense_assignment_kernelINS0_9evaluatorINS_6MatrixIdLi6ELi6ELi0ELi6ELi6EEEEES5_NS0_9assign_opIddEELi0EE11assignCoeffEi>
 80055da:	4620      	mov	r0, r4
 80055dc:	2118      	movs	r1, #24
 80055de:	f7ff fab3 	bl	8004b48 <_ZN5Eigen8internal31generic_dense_assignment_kernelINS0_9evaluatorINS_6MatrixIdLi6ELi6ELi0ELi6ELi6EEEEES5_NS0_9assign_opIddEELi0EE11assignCoeffEi>
 80055e2:	4620      	mov	r0, r4
 80055e4:	2119      	movs	r1, #25
 80055e6:	f7ff faaf 	bl	8004b48 <_ZN5Eigen8internal31generic_dense_assignment_kernelINS0_9evaluatorINS_6MatrixIdLi6ELi6ELi0ELi6ELi6EEEEES5_NS0_9assign_opIddEELi0EE11assignCoeffEi>
 80055ea:	4620      	mov	r0, r4
 80055ec:	211a      	movs	r1, #26
 80055ee:	f7ff faab 	bl	8004b48 <_ZN5Eigen8internal31generic_dense_assignment_kernelINS0_9evaluatorINS_6MatrixIdLi6ELi6ELi0ELi6ELi6EEEEES5_NS0_9assign_opIddEELi0EE11assignCoeffEi>
 80055f2:	4620      	mov	r0, r4
 80055f4:	211b      	movs	r1, #27
 80055f6:	f7ff faa7 	bl	8004b48 <_ZN5Eigen8internal31generic_dense_assignment_kernelINS0_9evaluatorINS_6MatrixIdLi6ELi6ELi0ELi6ELi6EEEEES5_NS0_9assign_opIddEELi0EE11assignCoeffEi>
 80055fa:	4620      	mov	r0, r4
 80055fc:	211c      	movs	r1, #28
 80055fe:	f7ff faa3 	bl	8004b48 <_ZN5Eigen8internal31generic_dense_assignment_kernelINS0_9evaluatorINS_6MatrixIdLi6ELi6ELi0ELi6ELi6EEEEES5_NS0_9assign_opIddEELi0EE11assignCoeffEi>
 8005602:	4620      	mov	r0, r4
 8005604:	211d      	movs	r1, #29
 8005606:	f7ff fa9f 	bl	8004b48 <_ZN5Eigen8internal31generic_dense_assignment_kernelINS0_9evaluatorINS_6MatrixIdLi6ELi6ELi0ELi6ELi6EEEEES5_NS0_9assign_opIddEELi0EE11assignCoeffEi>
 800560a:	4620      	mov	r0, r4
 800560c:	211e      	movs	r1, #30
 800560e:	f7ff fa9b 	bl	8004b48 <_ZN5Eigen8internal31generic_dense_assignment_kernelINS0_9evaluatorINS_6MatrixIdLi6ELi6ELi0ELi6ELi6EEEEES5_NS0_9assign_opIddEELi0EE11assignCoeffEi>
 8005612:	4620      	mov	r0, r4
 8005614:	211f      	movs	r1, #31
 8005616:	f7ff fa97 	bl	8004b48 <_ZN5Eigen8internal31generic_dense_assignment_kernelINS0_9evaluatorINS_6MatrixIdLi6ELi6ELi0ELi6ELi6EEEEES5_NS0_9assign_opIddEELi0EE11assignCoeffEi>
 800561a:	4620      	mov	r0, r4
 800561c:	2120      	movs	r1, #32
 800561e:	f7ff fa93 	bl	8004b48 <_ZN5Eigen8internal31generic_dense_assignment_kernelINS0_9evaluatorINS_6MatrixIdLi6ELi6ELi0ELi6ELi6EEEEES5_NS0_9assign_opIddEELi0EE11assignCoeffEi>
 8005622:	4620      	mov	r0, r4
 8005624:	2121      	movs	r1, #33	@ 0x21
 8005626:	f7ff fa8f 	bl	8004b48 <_ZN5Eigen8internal31generic_dense_assignment_kernelINS0_9evaluatorINS_6MatrixIdLi6ELi6ELi0ELi6ELi6EEEEES5_NS0_9assign_opIddEELi0EE11assignCoeffEi>
 800562a:	4620      	mov	r0, r4
 800562c:	2122      	movs	r1, #34	@ 0x22
 800562e:	f7ff fa8b 	bl	8004b48 <_ZN5Eigen8internal31generic_dense_assignment_kernelINS0_9evaluatorINS_6MatrixIdLi6ELi6ELi0ELi6ELi6EEEEES5_NS0_9assign_opIddEELi0EE11assignCoeffEi>
 8005632:	2123      	movs	r1, #35	@ 0x23
 8005634:	4620      	mov	r0, r4
 8005636:	f7ff fa87 	bl	8004b48 <_ZN5Eigen8internal31generic_dense_assignment_kernelINS0_9evaluatorINS_6MatrixIdLi6ELi6ELi0ELi6ELi6EEEEES5_NS0_9assign_opIddEELi0EE11assignCoeffEi>
 800563a:	bd10      	pop	{r4, pc}

0800563c <_ZN5Eigen8internal54copy_using_evaluator_LinearTraversal_CompleteUnrollingINS0_31generic_dense_assignment_kernelINS0_9evaluatorINS_6MatrixIdLi6ELi6ELi0ELi6ELi6EEEEES6_NS0_9assign_opIddEELi0EEELi9ELi36EE3runERS9_>:
 800563c:	b510      	push	{r4, lr}
 800563e:	4604      	mov	r4, r0
 8005640:	2109      	movs	r1, #9
 8005642:	f7ff fa81 	bl	8004b48 <_ZN5Eigen8internal31generic_dense_assignment_kernelINS0_9evaluatorINS_6MatrixIdLi6ELi6ELi0ELi6ELi6EEEEES5_NS0_9assign_opIddEELi0EE11assignCoeffEi>
 8005646:	210a      	movs	r1, #10
 8005648:	4620      	mov	r0, r4
 800564a:	f7ff fa7d 	bl	8004b48 <_ZN5Eigen8internal31generic_dense_assignment_kernelINS0_9evaluatorINS_6MatrixIdLi6ELi6ELi0ELi6ELi6EEEEES5_NS0_9assign_opIddEELi0EE11assignCoeffEi>
 800564e:	4620      	mov	r0, r4
 8005650:	210b      	movs	r1, #11
 8005652:	f7ff fa79 	bl	8004b48 <_ZN5Eigen8internal31generic_dense_assignment_kernelINS0_9evaluatorINS_6MatrixIdLi6ELi6ELi0ELi6ELi6EEEEES5_NS0_9assign_opIddEELi0EE11assignCoeffEi>
 8005656:	4620      	mov	r0, r4
 8005658:	210c      	movs	r1, #12
 800565a:	f7ff fa75 	bl	8004b48 <_ZN5Eigen8internal31generic_dense_assignment_kernelINS0_9evaluatorINS_6MatrixIdLi6ELi6ELi0ELi6ELi6EEEEES5_NS0_9assign_opIddEELi0EE11assignCoeffEi>
 800565e:	4620      	mov	r0, r4
 8005660:	210d      	movs	r1, #13
 8005662:	f7ff fa71 	bl	8004b48 <_ZN5Eigen8internal31generic_dense_assignment_kernelINS0_9evaluatorINS_6MatrixIdLi6ELi6ELi0ELi6ELi6EEEEES5_NS0_9assign_opIddEELi0EE11assignCoeffEi>
 8005666:	4620      	mov	r0, r4
 8005668:	210e      	movs	r1, #14
 800566a:	f7ff fa6d 	bl	8004b48 <_ZN5Eigen8internal31generic_dense_assignment_kernelINS0_9evaluatorINS_6MatrixIdLi6ELi6ELi0ELi6ELi6EEEEES5_NS0_9assign_opIddEELi0EE11assignCoeffEi>
 800566e:	4620      	mov	r0, r4
 8005670:	210f      	movs	r1, #15
 8005672:	f7ff fa69 	bl	8004b48 <_ZN5Eigen8internal31generic_dense_assignment_kernelINS0_9evaluatorINS_6MatrixIdLi6ELi6ELi0ELi6ELi6EEEEES5_NS0_9assign_opIddEELi0EE11assignCoeffEi>
 8005676:	4620      	mov	r0, r4
 8005678:	2110      	movs	r1, #16
 800567a:	f7ff fa65 	bl	8004b48 <_ZN5Eigen8internal31generic_dense_assignment_kernelINS0_9evaluatorINS_6MatrixIdLi6ELi6ELi0ELi6ELi6EEEEES5_NS0_9assign_opIddEELi0EE11assignCoeffEi>
 800567e:	4620      	mov	r0, r4
 8005680:	f7ff ff8e 	bl	80055a0 <_ZN5Eigen8internal54copy_using_evaluator_LinearTraversal_CompleteUnrollingINS0_31generic_dense_assignment_kernelINS0_9evaluatorINS_6MatrixIdLi6ELi6ELi0ELi6ELi6EEEEES6_NS0_9assign_opIddEELi0EEELi17ELi36EE3runERS9_>
 8005684:	bd10      	pop	{r4, pc}

08005686 <_ZN5Eigen8internal54copy_using_evaluator_LinearTraversal_CompleteUnrollingINS0_31generic_dense_assignment_kernelINS0_9evaluatorINS_6MatrixIdLi6ELi6ELi0ELi6ELi6EEEEES6_NS0_9assign_opIddEELi0EEELi0ELi36EE3runERS9_>:
 8005686:	b510      	push	{r4, lr}
 8005688:	4604      	mov	r4, r0
 800568a:	2100      	movs	r1, #0
 800568c:	f7ff fa5c 	bl	8004b48 <_ZN5Eigen8internal31generic_dense_assignment_kernelINS0_9evaluatorINS_6MatrixIdLi6ELi6ELi0ELi6ELi6EEEEES5_NS0_9assign_opIddEELi0EE11assignCoeffEi>
 8005690:	2101      	movs	r1, #1
 8005692:	4620      	mov	r0, r4
 8005694:	f7ff fa58 	bl	8004b48 <_ZN5Eigen8internal31generic_dense_assignment_kernelINS0_9evaluatorINS_6MatrixIdLi6ELi6ELi0ELi6ELi6EEEEES5_NS0_9assign_opIddEELi0EE11assignCoeffEi>
 8005698:	4620      	mov	r0, r4
 800569a:	2102      	movs	r1, #2
 800569c:	f7ff fa54 	bl	8004b48 <_ZN5Eigen8internal31generic_dense_assignment_kernelINS0_9evaluatorINS_6MatrixIdLi6ELi6ELi0ELi6ELi6EEEEES5_NS0_9assign_opIddEELi0EE11assignCoeffEi>
 80056a0:	4620      	mov	r0, r4
 80056a2:	2103      	movs	r1, #3
 80056a4:	f7ff fa50 	bl	8004b48 <_ZN5Eigen8internal31generic_dense_assignment_kernelINS0_9evaluatorINS_6MatrixIdLi6ELi6ELi0ELi6ELi6EEEEES5_NS0_9assign_opIddEELi0EE11assignCoeffEi>
 80056a8:	4620      	mov	r0, r4
 80056aa:	2104      	movs	r1, #4
 80056ac:	f7ff fa4c 	bl	8004b48 <_ZN5Eigen8internal31generic_dense_assignment_kernelINS0_9evaluatorINS_6MatrixIdLi6ELi6ELi0ELi6ELi6EEEEES5_NS0_9assign_opIddEELi0EE11assignCoeffEi>
 80056b0:	4620      	mov	r0, r4
 80056b2:	2105      	movs	r1, #5
 80056b4:	f7ff fa48 	bl	8004b48 <_ZN5Eigen8internal31generic_dense_assignment_kernelINS0_9evaluatorINS_6MatrixIdLi6ELi6ELi0ELi6ELi6EEEEES5_NS0_9assign_opIddEELi0EE11assignCoeffEi>
 80056b8:	4620      	mov	r0, r4
 80056ba:	2106      	movs	r1, #6
 80056bc:	f7ff fa44 	bl	8004b48 <_ZN5Eigen8internal31generic_dense_assignment_kernelINS0_9evaluatorINS_6MatrixIdLi6ELi6ELi0ELi6ELi6EEEEES5_NS0_9assign_opIddEELi0EE11assignCoeffEi>
 80056c0:	4620      	mov	r0, r4
 80056c2:	2107      	movs	r1, #7
 80056c4:	f7ff fa40 	bl	8004b48 <_ZN5Eigen8internal31generic_dense_assignment_kernelINS0_9evaluatorINS_6MatrixIdLi6ELi6ELi0ELi6ELi6EEEEES5_NS0_9assign_opIddEELi0EE11assignCoeffEi>
 80056c8:	4620      	mov	r0, r4
 80056ca:	2108      	movs	r1, #8
 80056cc:	f7ff fa3c 	bl	8004b48 <_ZN5Eigen8internal31generic_dense_assignment_kernelINS0_9evaluatorINS_6MatrixIdLi6ELi6ELi0ELi6ELi6EEEEES5_NS0_9assign_opIddEELi0EE11assignCoeffEi>
 80056d0:	4620      	mov	r0, r4
 80056d2:	f7ff ffb3 	bl	800563c <_ZN5Eigen8internal54copy_using_evaluator_LinearTraversal_CompleteUnrollingINS0_31generic_dense_assignment_kernelINS0_9evaluatorINS_6MatrixIdLi6ELi6ELi0ELi6ELi6EEEEES6_NS0_9assign_opIddEELi0EEELi9ELi36EE3runERS9_>
 80056d6:	bd10      	pop	{r4, pc}

080056d8 <_ZN5Eigen8internal31generic_dense_assignment_kernelINS0_9evaluatorINS_5BlockINS_6MatrixIdLi6ELi6ELi0ELi6ELi6EEELi1ELi6ELb0EEEEENS2_INS3_IKNS_14CwiseNullaryOpINS0_18scalar_identity_opIdEES5_EELi1ELi6ELb0EEEEENS0_9assign_opIddEELi0EE11assignCoeffEi>:
 80056d8:	6803      	ldr	r3, [r0, #0]
 80056da:	2230      	movs	r2, #48	@ 0x30
 80056dc:	eeb7 6b00 	vmov.f64	d6, #112	@ 0x3f800000  1.0
 80056e0:	681b      	ldr	r3, [r3, #0]
 80056e2:	fb02 3301 	mla	r3, r2, r1, r3
 80056e6:	6842      	ldr	r2, [r0, #4]
 80056e8:	6890      	ldr	r0, [r2, #8]
 80056ea:	6852      	ldr	r2, [r2, #4]
 80056ec:	4401      	add	r1, r0
 80056ee:	ed9f 7b04 	vldr	d7, [pc, #16]	@ 8005700 <_ZN5Eigen8internal31generic_dense_assignment_kernelINS0_9evaluatorINS_5BlockINS_6MatrixIdLi6ELi6ELi0ELi6ELi6EEELi1ELi6ELb0EEEEENS2_INS3_IKNS_14CwiseNullaryOpINS0_18scalar_identity_opIdEES5_EELi1ELi6ELb0EEEEENS0_9assign_opIddEELi0EE11assignCoeffEi+0x28>
 80056f2:	428a      	cmp	r2, r1
 80056f4:	fe06 7b07 	vseleq.f64	d7, d6, d7
 80056f8:	ed83 7b00 	vstr	d7, [r3]
 80056fc:	4770      	bx	lr
 80056fe:	bf00      	nop
	...

08005708 <_ZN5Eigen8internal15compute_inverseINS_6MatrixIdLi6ELi6ELi0ELi6ELi6EEES3_Li6EE3runERKS3_RS3_>:
 8005708:	e92d 4ff0 	stmdb	sp!, {r4, r5, r6, r7, r8, r9, sl, fp, lr}
 800570c:	f2ad 5d8c 	subw	sp, sp, #1420	@ 0x58c
 8005710:	4607      	mov	r7, r0
 8005712:	2500      	movs	r5, #0
 8005714:	f10d 046f 	add.w	r4, sp, #111	@ 0x6f
 8005718:	ae0a      	add	r6, sp, #40	@ 0x28
 800571a:	f10d 0948 	add.w	r9, sp, #72	@ 0x48
 800571e:	9104      	str	r1, [sp, #16]
 8005720:	f024 040f 	bic.w	r4, r4, #15
 8005724:	f10d 0838 	add.w	r8, sp, #56	@ 0x38
 8005728:	f504 7a70 	add.w	sl, r4, #960	@ 0x3c0
 800572c:	f504 6ba2 	add.w	fp, r4, #1296	@ 0x510
 8005730:	4650      	mov	r0, sl
 8005732:	f7fc ffa5 	bl	8002680 <_ZN5Eigen8internal11plain_arrayIdLi36ELi0ELi16EEC1Ev>
 8005736:	6037      	str	r7, [r6, #0]
 8005738:	af08      	add	r7, sp, #32
 800573a:	2300      	movs	r3, #0
 800573c:	2200      	movs	r2, #0
 800573e:	4648      	mov	r0, r9
 8005740:	f8c8 a000 	str.w	sl, [r8]
 8005744:	f8a4 5518 	strh.w	r5, [r4, #1304]	@ 0x518
 8005748:	e9c9 8600 	strd	r8, r6, [r9]
 800574c:	e9c9 7a02 	strd	r7, sl, [r9, #8]
 8005750:	e9cb 2300 	strd	r2, r3, [fp]
 8005754:	f7ff ff97 	bl	8005686 <_ZN5Eigen8internal54copy_using_evaluator_LinearTraversal_CompleteUnrollingINS0_31generic_dense_assignment_kernelINS0_9evaluatorINS_6MatrixIdLi6ELi6ELi0ELi6ELi6EEEEES6_NS0_9assign_opIddEELi0EEELi0ELi36EE3runERS9_>
 8005758:	4650      	mov	r0, sl
 800575a:	f7ff fe97 	bl	800548c <_ZN5Eigen12PartialPivLUINS_6MatrixIdLi6ELi6ELi0ELi6ELi6EEEE7computeEv>
 800575e:	f894 3519 	ldrb.w	r3, [r4, #1305]	@ 0x519
 8005762:	b92b      	cbnz	r3, 8005770 <_ZN5Eigen8internal15compute_inverseINS_6MatrixIdLi6ELi6ELi0ELi6ELi6EEES3_Li6EE3runERKS3_RS3_+0x68>
 8005764:	4b4c      	ldr	r3, [pc, #304]	@ (8005898 <_ZN5Eigen8internal15compute_inverseINS_6MatrixIdLi6ELi6ELi0ELi6ELi6EEES3_Li6EE3runERKS3_RS3_+0x190>)
 8005766:	21c6      	movs	r1, #198	@ 0xc6
 8005768:	4a4c      	ldr	r2, [pc, #304]	@ (800589c <_ZN5Eigen8internal15compute_inverseINS_6MatrixIdLi6ELi6ELi0ELi6ELi6EEES3_Li6EE3runERKS3_RS3_+0x194>)
 800576a:	484d      	ldr	r0, [pc, #308]	@ (80058a0 <_ZN5Eigen8internal15compute_inverseINS_6MatrixIdLi6ELi6ELi0ELi6ELi6EEES3_Li6EE3runERKS3_RS3_+0x198>)
 800576c:	f004 fb10 	bl	8009d90 <__assert_func>
 8005770:	f504 7318 	add.w	r3, r4, #608	@ 0x260
 8005774:	4651      	mov	r1, sl
 8005776:	f44f 7290 	mov.w	r2, #288	@ 0x120
 800577a:	f04f 0a01 	mov.w	sl, #1
 800577e:	4618      	mov	r0, r3
 8005780:	9305      	str	r3, [sp, #20]
 8005782:	f004 fd1a 	bl	800a1ba <memcpy>
 8005786:	f504 6e9c 	add.w	lr, r4, #1248	@ 0x4e0
 800578a:	f504 7c60 	add.w	ip, r4, #896	@ 0x380
 800578e:	e8be 000f 	ldmia.w	lr!, {r0, r1, r2, r3}
 8005792:	e8ac 000f 	stmia.w	ip!, {r0, r1, r2, r3}
 8005796:	e89e 0003 	ldmia.w	lr, {r0, r1}
 800579a:	f504 6e9f 	add.w	lr, r4, #1272	@ 0x4f8
 800579e:	e88c 0003 	stmia.w	ip, {r0, r1}
 80057a2:	e8be 000f 	ldmia.w	lr!, {r0, r1, r2, r3}
 80057a6:	f504 7c66 	add.w	ip, r4, #920	@ 0x398
 80057aa:	e8ac 000f 	stmia.w	ip!, {r0, r1, r2, r3}
 80057ae:	e9db 2300 	ldrd	r2, r3, [fp]
 80057b2:	e89e 0003 	ldmia.w	lr, {r0, r1}
 80057b6:	f504 7b5f 	add.w	fp, r4, #892	@ 0x37c
 80057ba:	e88c 0003 	stmia.w	ip, {r0, r1}
 80057be:	e9c4 23ec 	strd	r2, r3, [r4, #944]	@ 0x3b0
 80057c2:	f894 3518 	ldrb.w	r3, [r4, #1304]	@ 0x518
 80057c6:	aa07      	add	r2, sp, #28
 80057c8:	f884 a3b9 	strb.w	sl, [r4, #953]	@ 0x3b9
 80057cc:	f884 33b8 	strb.w	r3, [r4, #952]	@ 0x3b8
 80057d0:	462b      	mov	r3, r5
 80057d2:	f85b 1f04 	ldr.w	r1, [fp, #4]!
 80057d6:	9804      	ldr	r0, [sp, #16]
 80057d8:	2905      	cmp	r1, #5
 80057da:	eb00 0cc1 	add.w	ip, r0, r1, lsl #3
 80057de:	e9c9 0102 	strd	r0, r1, [r9, #8]
 80057e2:	f8c9 c000 	str.w	ip, [r9]
 80057e6:	e9c9 3a04 	strd	r3, sl, [r9, #16]
 80057ea:	d904      	bls.n	80057f6 <_ZN5Eigen8internal15compute_inverseINS_6MatrixIdLi6ELi6ELi0ELi6ELi6EEES3_Li6EE3runERKS3_RS3_+0xee>
 80057ec:	4b2d      	ldr	r3, [pc, #180]	@ (80058a4 <_ZN5Eigen8internal15compute_inverseINS_6MatrixIdLi6ELi6ELi0ELi6ELi6EEES3_Li6EE3runERKS3_RS3_+0x19c>)
 80057ee:	2178      	movs	r1, #120	@ 0x78
 80057f0:	4a2d      	ldr	r2, [pc, #180]	@ (80058a8 <_ZN5Eigen8internal15compute_inverseINS_6MatrixIdLi6ELi6ELi0ELi6ELi6EEES3_Li6EE3runERKS3_RS3_+0x1a0>)
 80057f2:	482e      	ldr	r0, [pc, #184]	@ (80058ac <_ZN5Eigen8internal15compute_inverseINS_6MatrixIdLi6ELi6ELi0ELi6ELi6EEES3_Li6EE3runERKS3_RS3_+0x1a4>)
 80057f4:	e7ba      	b.n	800576c <_ZN5Eigen8internal15compute_inverseINS_6MatrixIdLi6ELi6ELi0ELi6ELi6EEES3_Li6EE3runERKS3_RS3_+0x64>
 80057f6:	e9c6 5301 	strd	r5, r3, [r6, #4]
 80057fa:	e9c8 2902 	strd	r2, r9, [r8, #8]
 80057fe:	f8c7 c000 	str.w	ip, [r7]
 8005802:	2100      	movs	r1, #0
 8005804:	4640      	mov	r0, r8
 8005806:	3501      	adds	r5, #1
 8005808:	e9c8 7600 	strd	r7, r6, [r8]
 800580c:	f7ff ff64 	bl	80056d8 <_ZN5Eigen8internal31generic_dense_assignment_kernelINS0_9evaluatorINS_5BlockINS_6MatrixIdLi6ELi6ELi0ELi6ELi6EEELi1ELi6ELb0EEEEENS2_INS3_IKNS_14CwiseNullaryOpINS0_18scalar_identity_opIdEES5_EELi1ELi6ELb0EEEEENS0_9assign_opIddEELi0EE11assignCoeffEi>
 8005810:	2101      	movs	r1, #1
 8005812:	4640      	mov	r0, r8
 8005814:	f7ff ff60 	bl	80056d8 <_ZN5Eigen8internal31generic_dense_assignment_kernelINS0_9evaluatorINS_5BlockINS_6MatrixIdLi6ELi6ELi0ELi6ELi6EEELi1ELi6ELb0EEEEENS2_INS3_IKNS_14CwiseNullaryOpINS0_18scalar_identity_opIdEES5_EELi1ELi6ELb0EEEEENS0_9assign_opIddEELi0EE11assignCoeffEi>
 8005818:	2102      	movs	r1, #2
 800581a:	4640      	mov	r0, r8
 800581c:	f7ff ff5c 	bl	80056d8 <_ZN5Eigen8internal31generic_dense_assignment_kernelINS0_9evaluatorINS_5BlockINS_6MatrixIdLi6ELi6ELi0ELi6ELi6EEELi1ELi6ELb0EEEEENS2_INS3_IKNS_14CwiseNullaryOpINS0_18scalar_identity_opIdEES5_EELi1ELi6ELb0EEEEENS0_9assign_opIddEELi0EE11assignCoeffEi>
 8005820:	2103      	movs	r1, #3
 8005822:	4640      	mov	r0, r8
 8005824:	f7ff ff58 	bl	80056d8 <_ZN5Eigen8internal31generic_dense_assignment_kernelINS0_9evaluatorINS_5BlockINS_6MatrixIdLi6ELi6ELi0ELi6ELi6EEELi1ELi6ELb0EEEEENS2_INS3_IKNS_14CwiseNullaryOpINS0_18scalar_identity_opIdEES5_EELi1ELi6ELb0EEEEENS0_9assign_opIddEELi0EE11assignCoeffEi>
 8005828:	2104      	movs	r1, #4
 800582a:	4640      	mov	r0, r8
 800582c:	f7ff ff54 	bl	80056d8 <_ZN5Eigen8internal31generic_dense_assignment_kernelINS0_9evaluatorINS_5BlockINS_6MatrixIdLi6ELi6ELi0ELi6ELi6EEELi1ELi6ELb0EEEEENS2_INS3_IKNS_14CwiseNullaryOpINS0_18scalar_identity_opIdEES5_EELi1ELi6ELb0EEEEENS0_9assign_opIddEELi0EE11assignCoeffEi>
 8005830:	2105      	movs	r1, #5
 8005832:	4640      	mov	r0, r8
 8005834:	f7ff ff50 	bl	80056d8 <_ZN5Eigen8internal31generic_dense_assignment_kernelINS0_9evaluatorINS_5BlockINS_6MatrixIdLi6ELi6ELi0ELi6ELi6EEELi1ELi6ELb0EEEEENS2_INS3_IKNS_14CwiseNullaryOpINS0_18scalar_identity_opIdEES5_EELi1ELi6ELb0EEEEENS0_9assign_opIddEELi0EE11assignCoeffEi>
 8005838:	2d06      	cmp	r5, #6
 800583a:	aa07      	add	r2, sp, #28
 800583c:	f04f 0300 	mov.w	r3, #0
 8005840:	d1c7      	bne.n	80057d2 <_ZN5Eigen8internal15compute_inverseINS_6MatrixIdLi6ELi6ELi0ELi6ELi6EEES3_Li6EE3runERKS3_RS3_+0xca>
 8005842:	9b04      	ldr	r3, [sp, #16]
 8005844:	f104 0720 	add.w	r7, r4, #32
 8005848:	f504 76a0 	add.w	r6, r4, #320	@ 0x140
 800584c:	6125      	str	r5, [r4, #16]
 800584e:	6027      	str	r7, [r4, #0]
 8005850:	4629      	mov	r1, r5
 8005852:	6066      	str	r6, [r4, #4]
 8005854:	4628      	mov	r0, r5
 8005856:	9a05      	ldr	r2, [sp, #20]
 8005858:	e9c4 5502 	strd	r5, r5, [r4, #8]
 800585c:	9300      	str	r3, [sp, #0]
 800585e:	462b      	mov	r3, r5
 8005860:	f8cd a004 	str.w	sl, [sp, #4]
 8005864:	e9cd 5402 	strd	r5, r4, [sp, #8]
 8005868:	f7fe fd82 	bl	8004370 <_ZN5Eigen8internal23triangular_solve_matrixIdiLi1ELi5ELb0ELi0ELi0ELi1EE3runEiiPKdiPdiiRNS0_15level3_blockingIddEE>
 800586c:	9b04      	ldr	r3, [sp, #16]
 800586e:	6125      	str	r5, [r4, #16]
 8005870:	4629      	mov	r1, r5
 8005872:	9a05      	ldr	r2, [sp, #20]
 8005874:	4628      	mov	r0, r5
 8005876:	e9c4 5502 	strd	r5, r5, [r4, #8]
 800587a:	e9c4 7600 	strd	r7, r6, [r4]
 800587e:	9300      	str	r3, [sp, #0]
 8005880:	462b      	mov	r3, r5
 8005882:	f8cd a004 	str.w	sl, [sp, #4]
 8005886:	e9cd 5402 	strd	r5, r4, [sp, #8]
 800588a:	f7ff f981 	bl	8004b90 <_ZN5Eigen8internal23triangular_solve_matrixIdiLi1ELi2ELb0ELi0ELi0ELi1EE3runEiiPKdiPdiiRNS0_15level3_blockingIddEE>
 800588e:	f20d 5d8c 	addw	sp, sp, #1420	@ 0x58c
 8005892:	e8bd 8ff0 	ldmia.w	sp!, {r4, r5, r6, r7, r8, r9, sl, fp, pc}
 8005896:	bf00      	nop
 8005898:	0800db87 	.word	0x0800db87
 800589c:	0800dbbd 	.word	0x0800dbbd
 80058a0:	0800da53 	.word	0x0800da53
 80058a4:	0800bd26 	.word	0x0800bd26
 80058a8:	0800dc56 	.word	0x0800dc56
 80058ac:	0800beaa 	.word	0x0800beaa

080058b0 <_ZN5Eigen8internal15call_assignmentINS_6MatrixIdLi4ELi6ELi0ELi4ELi6EEENS_7ProductINS4_INS2_IdLi4ELi4ELi0ELi4ELi4EEENS_9TransposeINS2_IdLi6ELi4ELi0ELi6ELi4EEEEELi0EEENS_7InverseINS2_IdLi6ELi6ELi0ELi6ELi6EEEEELi0EEEEEvRT_RKT0_>:
 80058b0:	e92d 43f0 	stmdb	sp!, {r4, r5, r6, r7, r8, r9, lr}
 80058b4:	f5ad 7d39 	sub.w	sp, sp, #740	@ 0x2e4
 80058b8:	460e      	mov	r6, r1
 80058ba:	4607      	mov	r7, r0
 80058bc:	f10d 0437 	add.w	r4, sp, #55	@ 0x37
 80058c0:	ad03      	add	r5, sp, #12
 80058c2:	f024 040f 	bic.w	r4, r4, #15
 80058c6:	f504 78f8 	add.w	r8, r4, #496	@ 0x1f0
 80058ca:	4640      	mov	r0, r8
 80058cc:	f7fc fef8 	bl	80026c0 <_ZN5Eigen8internal11plain_arrayIdLi24ELi0ELi16EEC1Ev>
 80058d0:	f8d6 9008 	ldr.w	r9, [r6, #8]
 80058d4:	e896 0003 	ldmia.w	r6, {r0, r1}
 80058d8:	f104 06c0 	add.w	r6, r4, #192	@ 0xc0
 80058dc:	f8c5 9008 	str.w	r9, [r5, #8]
 80058e0:	e885 0003 	stmia.w	r5, {r0, r1}
 80058e4:	4629      	mov	r1, r5
 80058e6:	4620      	mov	r0, r4
 80058e8:	f7fe f9ec 	bl	8003cc4 <_ZN5Eigen6MatrixIdLi4ELi6ELi0ELi4ELi6EEC1INS_7ProductINS0_IdLi4ELi4ELi0ELi4ELi4EEENS_9TransposeINS0_IdLi6ELi4ELi0ELi6ELi4EEEEELi0EEEEERKT_>
 80058ec:	4630      	mov	r0, r6
 80058ee:	f7fc fec7 	bl	8002680 <_ZN5Eigen8internal11plain_arrayIdLi36ELi0ELi16EEC1Ev>
 80058f2:	4631      	mov	r1, r6
 80058f4:	4648      	mov	r0, r9
 80058f6:	f7ff ff07 	bl	8005708 <_ZN5Eigen8internal15compute_inverseINS_6MatrixIdLi6ELi6ELi0ELi6ELi6EEES3_Li6EE3runERKS3_RS3_>
 80058fa:	2306      	movs	r3, #6
 80058fc:	e9c4 4678 	strd	r4, r6, [r4, #480]	@ 0x1e0
 8005900:	ae02      	add	r6, sp, #8
 8005902:	f8c4 31e8 	str.w	r3, [r4, #488]	@ 0x1e8
 8005906:	ab01      	add	r3, sp, #4
 8005908:	f8c6 8000 	str.w	r8, [r6]
 800590c:	e9cd 6406 	strd	r6, r4, [sp, #24]
 8005910:	2400      	movs	r4, #0
 8005912:	e9cd 3808 	strd	r3, r8, [sp, #32]
 8005916:	4622      	mov	r2, r4
 8005918:	2100      	movs	r1, #0
 800591a:	a806      	add	r0, sp, #24
 800591c:	f7fd fd14 	bl	8003348 <_ZN5Eigen8internal31generic_dense_assignment_kernelINS0_9evaluatorINS_6MatrixIdLi4ELi6ELi0ELi4ELi6EEEEENS2_INS_7ProductINS6_INS3_IdLi4ELi4ELi0ELi4ELi4EEENS_9TransposeINS3_IdLi6ELi4ELi0ELi6ELi4EEEEELi0EEENS_7InverseINS3_IdLi6ELi6ELi0ELi6ELi6EEEEELi1EEEEENS0_9assign_opIddEELi0EE11assignCoeffEii>
 8005920:	4622      	mov	r2, r4
 8005922:	2101      	movs	r1, #1
 8005924:	a806      	add	r0, sp, #24
 8005926:	f7fd fd0f 	bl	8003348 <_ZN5Eigen8internal31generic_dense_assignment_kernelINS0_9evaluatorINS_6MatrixIdLi4ELi6ELi0ELi4ELi6EEEEENS2_INS_7ProductINS6_INS3_IdLi4ELi4ELi0ELi4ELi4EEENS_9TransposeINS3_IdLi6ELi4ELi0ELi6ELi4EEEEELi0EEENS_7InverseINS3_IdLi6ELi6ELi0ELi6ELi6EEEEELi1EEEEENS0_9assign_opIddEELi0EE11assignCoeffEii>
 800592a:	4622      	mov	r2, r4
 800592c:	2102      	movs	r1, #2
 800592e:	a806      	add	r0, sp, #24
 8005930:	f7fd fd0a 	bl	8003348 <_ZN5Eigen8internal31generic_dense_assignment_kernelINS0_9evaluatorINS_6MatrixIdLi4ELi6ELi0ELi4ELi6EEEEENS2_INS_7ProductINS6_INS3_IdLi4ELi4ELi0ELi4ELi4EEENS_9TransposeINS3_IdLi6ELi4ELi0ELi6ELi4EEEEELi0EEENS_7InverseINS3_IdLi6ELi6ELi0ELi6ELi6EEEEELi1EEEEENS0_9assign_opIddEELi0EE11assignCoeffEii>
 8005934:	4622      	mov	r2, r4
 8005936:	3401      	adds	r4, #1
 8005938:	2103      	movs	r1, #3
 800593a:	a806      	add	r0, sp, #24
 800593c:	f7fd fd04 	bl	8003348 <_ZN5Eigen8internal31generic_dense_assignment_kernelINS0_9evaluatorINS_6MatrixIdLi4ELi6ELi0ELi4ELi6EEEEENS2_INS_7ProductINS6_INS3_IdLi4ELi4ELi0ELi4ELi4EEENS_9TransposeINS3_IdLi6ELi4ELi0ELi6ELi4EEEEELi0EEENS_7InverseINS3_IdLi6ELi6ELi0ELi6ELi6EEEEELi1EEEEENS0_9assign_opIddEELi0EE11assignCoeffEii>
 8005940:	2c06      	cmp	r4, #6
 8005942:	ab01      	add	r3, sp, #4
 8005944:	d1e7      	bne.n	8005916 <_ZN5Eigen8internal15call_assignmentINS_6MatrixIdLi4ELi6ELi0ELi4ELi6EEENS_7ProductINS4_INS2_IdLi4ELi4ELi0ELi4ELi4EEENS_9TransposeINS2_IdLi6ELi4ELi0ELi6ELi4EEEEELi0EEENS_7InverseINS2_IdLi6ELi6ELi0ELi6ELi6EEEEELi0EEEEEvRT_RKT0_+0x66>
 8005946:	a806      	add	r0, sp, #24
 8005948:	2100      	movs	r1, #0
 800594a:	f8c6 8000 	str.w	r8, [r6]
 800594e:	602f      	str	r7, [r5, #0]
 8005950:	e9cd 3708 	strd	r3, r7, [sp, #32]
 8005954:	e9cd 5606 	strd	r5, r6, [sp, #24]
 8005958:	f7fd f81e 	bl	8002998 <_ZN5Eigen8internal31generic_dense_assignment_kernelINS0_9evaluatorINS_6MatrixIdLi4ELi6ELi0ELi4ELi6EEEEES5_NS0_9assign_opIddEELi0EE11assignCoeffEi>
 800595c:	a806      	add	r0, sp, #24
 800595e:	2101      	movs	r1, #1
 8005960:	f7fd f81a 	bl	8002998 <_ZN5Eigen8internal31generic_dense_assignment_kernelINS0_9evaluatorINS_6MatrixIdLi4ELi6ELi0ELi4ELi6EEEEES5_NS0_9assign_opIddEELi0EE11assignCoeffEi>
 8005964:	a806      	add	r0, sp, #24
 8005966:	2102      	movs	r1, #2
 8005968:	f7fd f816 	bl	8002998 <_ZN5Eigen8internal31generic_dense_assignment_kernelINS0_9evaluatorINS_6MatrixIdLi4ELi6ELi0ELi4ELi6EEEEES5_NS0_9assign_opIddEELi0EE11assignCoeffEi>
 800596c:	a806      	add	r0, sp, #24
 800596e:	2103      	movs	r1, #3
 8005970:	f7fd f812 	bl	8002998 <_ZN5Eigen8internal31generic_dense_assignment_kernelINS0_9evaluatorINS_6MatrixIdLi4ELi6ELi0ELi4ELi6EEEEES5_NS0_9assign_opIddEELi0EE11assignCoeffEi>
 8005974:	a806      	add	r0, sp, #24
 8005976:	2104      	movs	r1, #4
 8005978:	f7fd f80e 	bl	8002998 <_ZN5Eigen8internal31generic_dense_assignment_kernelINS0_9evaluatorINS_6MatrixIdLi4ELi6ELi0ELi4ELi6EEEEES5_NS0_9assign_opIddEELi0EE11assignCoeffEi>
 800597c:	a806      	add	r0, sp, #24
 800597e:	2105      	movs	r1, #5
 8005980:	f7fd f80a 	bl	8002998 <_ZN5Eigen8internal31generic_dense_assignment_kernelINS0_9evaluatorINS_6MatrixIdLi4ELi6ELi0ELi4ELi6EEEEES5_NS0_9assign_opIddEELi0EE11assignCoeffEi>
 8005984:	4621      	mov	r1, r4
 8005986:	a806      	add	r0, sp, #24
 8005988:	f7fd f806 	bl	8002998 <_ZN5Eigen8internal31generic_dense_assignment_kernelINS0_9evaluatorINS_6MatrixIdLi4ELi6ELi0ELi4ELi6EEEEES5_NS0_9assign_opIddEELi0EE11assignCoeffEi>
 800598c:	a806      	add	r0, sp, #24
 800598e:	2107      	movs	r1, #7
 8005990:	f7fd f802 	bl	8002998 <_ZN5Eigen8internal31generic_dense_assignment_kernelINS0_9evaluatorINS_6MatrixIdLi4ELi6ELi0ELi4ELi6EEEEES5_NS0_9assign_opIddEELi0EE11assignCoeffEi>
 8005994:	a806      	add	r0, sp, #24
 8005996:	2108      	movs	r1, #8
 8005998:	f7fc fffe 	bl	8002998 <_ZN5Eigen8internal31generic_dense_assignment_kernelINS0_9evaluatorINS_6MatrixIdLi4ELi6ELi0ELi4ELi6EEEEES5_NS0_9assign_opIddEELi0EE11assignCoeffEi>
 800599c:	2109      	movs	r1, #9
 800599e:	a806      	add	r0, sp, #24
 80059a0:	f7fc fffa 	bl	8002998 <_ZN5Eigen8internal31generic_dense_assignment_kernelINS0_9evaluatorINS_6MatrixIdLi4ELi6ELi0ELi4ELi6EEEEES5_NS0_9assign_opIddEELi0EE11assignCoeffEi>
 80059a4:	a806      	add	r0, sp, #24
 80059a6:	f7fd fc79 	bl	800329c <_ZN5Eigen8internal54copy_using_evaluator_LinearTraversal_CompleteUnrollingINS0_31generic_dense_assignment_kernelINS0_9evaluatorINS_6MatrixIdLi4ELi6ELi0ELi4ELi6EEEEES6_NS0_9assign_opIddEELi0EEELi10ELi24EE3runERS9_>
 80059aa:	f50d 7d39 	add.w	sp, sp, #740	@ 0x2e4
 80059ae:	e8bd 83f0 	ldmia.w	sp!, {r4, r5, r6, r7, r8, r9, pc}

080059b2 <_ZN20ExtendedKalmanFilter6updateERKN5Eigen6MatrixIdLi6ELi1ELi0ELi6ELi1EEE>:
 80059b2:	e92d 4ff0 	stmdb	sp!, {r4, r5, r6, r7, r8, r9, sl, fp, lr}
 80059b6:	f5ad 7d71 	sub.w	sp, sp, #964	@ 0x3c4
 80059ba:	6803      	ldr	r3, [r0, #0]
 80059bc:	4605      	mov	r5, r0
 80059be:	460a      	mov	r2, r1
 80059c0:	f10d 0447 	add.w	r4, sp, #71	@ 0x47
 80059c4:	468b      	mov	fp, r1
 80059c6:	68db      	ldr	r3, [r3, #12]
 80059c8:	4601      	mov	r1, r0
 80059ca:	f024 040f 	bic.w	r4, r4, #15
 80059ce:	f105 0750 	add.w	r7, r5, #80	@ 0x50
 80059d2:	f10d 0a14 	add.w	sl, sp, #20
 80059d6:	f504 76f0 	add.w	r6, r4, #480	@ 0x1e0
 80059da:	f504 7890 	add.w	r8, r4, #288	@ 0x120
 80059de:	f504 7948 	add.w	r9, r4, #800	@ 0x320
 80059e2:	4630      	mov	r0, r6
 80059e4:	4798      	blx	r3
 80059e6:	f505 73e8 	add.w	r3, r5, #464	@ 0x1d0
 80059ea:	4620      	mov	r0, r4
 80059ec:	960a      	str	r6, [sp, #40]	@ 0x28
 80059ee:	930b      	str	r3, [sp, #44]	@ 0x2c
 80059f0:	e9cd 6708 	strd	r6, r7, [sp, #32]
 80059f4:	f7fc fe44 	bl	8002680 <_ZN5Eigen8internal11plain_arrayIdLi36ELi0ELi16EEC1Ev>
 80059f8:	4652      	mov	r2, sl
 80059fa:	a908      	add	r1, sp, #32
 80059fc:	4620      	mov	r0, r4
 80059fe:	f7fe fb3b 	bl	8004078 <_ZN5Eigen8internal26call_dense_assignment_loopINS_6MatrixIdLi6ELi6ELi0ELi6ELi6EEENS_13CwiseBinaryOpINS0_13scalar_sum_opIddEEKNS_7ProductINS7_INS2_IdLi6ELi4ELi0ELi6ELi4EEENS2_IdLi4ELi4ELi0ELi4ELi4EEELi0EEENS_9TransposeIS8_EELi0EEEKS3_EENS0_9assign_opIddEEEEvRT_RKT0_RKT1_>
 8005a02:	4640      	mov	r0, r8
 8005a04:	f7fc fe5c 	bl	80026c0 <_ZN5Eigen8internal11plain_arrayIdLi24ELi0ELi16EEC1Ev>
 8005a08:	a908      	add	r1, sp, #32
 8005a0a:	4640      	mov	r0, r8
 8005a0c:	940a      	str	r4, [sp, #40]	@ 0x28
 8005a0e:	e9cd 7608 	strd	r7, r6, [sp, #32]
 8005a12:	f7ff ff4d 	bl	80058b0 <_ZN5Eigen8internal15call_assignmentINS_6MatrixIdLi4ELi6ELi0ELi4ELi6EEENS_7ProductINS4_INS2_IdLi4ELi4ELi0ELi4ELi4EEENS_9TransposeINS2_IdLi6ELi4ELi0ELi6ELi4EEEEELi0EEENS_7InverseINS2_IdLi6ELi6ELi0ELi6ELi6EEEEELi0EEEEEvRT_RKT0_>
 8005a16:	682a      	ldr	r2, [r5, #0]
 8005a18:	f504 7354 	add.w	r3, r4, #848	@ 0x350
 8005a1c:	4629      	mov	r1, r5
 8005a1e:	6912      	ldr	r2, [r2, #16]
 8005a20:	3530      	adds	r5, #48	@ 0x30
 8005a22:	4618      	mov	r0, r3
 8005a24:	9301      	str	r3, [sp, #4]
 8005a26:	4790      	blx	r2
 8005a28:	4648      	mov	r0, r9
 8005a2a:	f7fc fe39 	bl	80026a0 <_ZN5Eigen8internal11plain_arrayIdLi6ELi0ELi16EEC1Ev>
 8005a2e:	9b01      	ldr	r3, [sp, #4]
 8005a30:	a808      	add	r0, sp, #32
 8005a32:	2100      	movs	r1, #0
 8005a34:	9307      	str	r3, [sp, #28]
 8005a36:	ab04      	add	r3, sp, #16
 8005a38:	f8cd b018 	str.w	fp, [sp, #24]
 8005a3c:	f504 7428 	add.w	r4, r4, #672	@ 0x2a0
 8005a40:	f8cd 9010 	str.w	r9, [sp, #16]
 8005a44:	e9cd 3a08 	strd	r3, sl, [sp, #32]
 8005a48:	ab03      	add	r3, sp, #12
 8005a4a:	e9cd 390a 	strd	r3, r9, [sp, #40]	@ 0x28
 8005a4e:	f7fc fef6 	bl	800283e <_ZN5Eigen8internal31generic_dense_assignment_kernelINS0_9evaluatorINS_6MatrixIdLi6ELi1ELi0ELi6ELi1EEEEENS2_INS_13CwiseBinaryOpINS0_20scalar_difference_opIddEEKS4_S9_EEEENS0_9assign_opIddEELi0EE11assignCoeffEi>
 8005a52:	a808      	add	r0, sp, #32
 8005a54:	2101      	movs	r1, #1
 8005a56:	f7fc fef2 	bl	800283e <_ZN5Eigen8internal31generic_dense_assignment_kernelINS0_9evaluatorINS_6MatrixIdLi6ELi1ELi0ELi6ELi1EEEEENS2_INS_13CwiseBinaryOpINS0_20scalar_difference_opIddEEKS4_S9_EEEENS0_9assign_opIddEELi0EE11assignCoeffEi>
 8005a5a:	a808      	add	r0, sp, #32
 8005a5c:	2102      	movs	r1, #2
 8005a5e:	f7fc feee 	bl	800283e <_ZN5Eigen8internal31generic_dense_assignment_kernelINS0_9evaluatorINS_6MatrixIdLi6ELi1ELi0ELi6ELi1EEEEENS2_INS_13CwiseBinaryOpINS0_20scalar_difference_opIddEEKS4_S9_EEEENS0_9assign_opIddEELi0EE11assignCoeffEi>
 8005a62:	a808      	add	r0, sp, #32
 8005a64:	2103      	movs	r1, #3
 8005a66:	f7fc feea 	bl	800283e <_ZN5Eigen8internal31generic_dense_assignment_kernelINS0_9evaluatorINS_6MatrixIdLi6ELi1ELi0ELi6ELi1EEEEENS2_INS_13CwiseBinaryOpINS0_20scalar_difference_opIddEEKS4_S9_EEEENS0_9assign_opIddEELi0EE11assignCoeffEi>
 8005a6a:	a808      	add	r0, sp, #32
 8005a6c:	2104      	movs	r1, #4
 8005a6e:	f7fc fee6 	bl	800283e <_ZN5Eigen8internal31generic_dense_assignment_kernelINS0_9evaluatorINS_6MatrixIdLi6ELi1ELi0ELi6ELi1EEEEENS2_INS_13CwiseBinaryOpINS0_20scalar_difference_opIddEEKS4_S9_EEEENS0_9assign_opIddEELi0EE11assignCoeffEi>
 8005a72:	a808      	add	r0, sp, #32
 8005a74:	2105      	movs	r1, #5
 8005a76:	f7fc fee2 	bl	800283e <_ZN5Eigen8internal31generic_dense_assignment_kernelINS0_9evaluatorINS_6MatrixIdLi6ELi1ELi0ELi6ELi1EEEEENS2_INS_13CwiseBinaryOpINS0_20scalar_difference_opIddEEKS4_S9_EEEENS0_9assign_opIddEELi0EE11assignCoeffEi>
 8005a7a:	a908      	add	r1, sp, #32
 8005a7c:	4628      	mov	r0, r5
 8005a7e:	f8cd 9028 	str.w	r9, [sp, #40]	@ 0x28
 8005a82:	e9cd 5808 	strd	r5, r8, [sp, #32]
 8005a86:	f7fd fcfd 	bl	8003484 <_ZN5Eigen8internal15call_assignmentINS_6MatrixIdLi4ELi1ELi0ELi4ELi1EEENS_13CwiseBinaryOpINS0_13scalar_sum_opIddEEKS3_KNS_7ProductINS2_IdLi4ELi6ELi0ELi4ELi6EEENS2_IdLi6ELi1ELi0ELi6ELi1EEELi0EEEEEEEvRT_RKT0_>
 8005a8a:	2300      	movs	r3, #0
 8005a8c:	a808      	add	r0, sp, #32
 8005a8e:	9508      	str	r5, [sp, #32]
 8005a90:	930b      	str	r3, [sp, #44]	@ 0x2c
 8005a92:	2304      	movs	r3, #4
 8005a94:	950a      	str	r5, [sp, #40]	@ 0x28
 8005a96:	930d      	str	r3, [sp, #52]	@ 0x34
 8005a98:	f7fc fe98 	bl	80027cc <_ZN5Eigen10MatrixBaseINS_5BlockINS_6MatrixIdLi4ELi1ELi0ELi4ELi1EEELi4ELi1ELb0EEEE9normalizeEv>
 8005a9c:	4620      	mov	r0, r4
 8005a9e:	f7fc fddf 	bl	8002660 <_ZN5Eigen8internal11plain_arrayIdLi16ELi0ELi16EEC1Ev>
 8005aa2:	4620      	mov	r0, r4
 8005aa4:	f7fc fc28 	bl	80022f8 <_ZN5Eigen10MatrixBaseINS_6MatrixIdLi4ELi4ELi0ELi4ELi4EEEE11setIdentityEv.isra.0>
 8005aa8:	a908      	add	r1, sp, #32
 8005aaa:	4638      	mov	r0, r7
 8005aac:	960a      	str	r6, [sp, #40]	@ 0x28
 8005aae:	970c      	str	r7, [sp, #48]	@ 0x30
 8005ab0:	e9cd 4808 	strd	r4, r8, [sp, #32]
 8005ab4:	f7fe fa0c 	bl	8003ed0 <_ZN5Eigen8internal15call_assignmentINS_6MatrixIdLi4ELi4ELi0ELi4ELi4EEENS_7ProductINS_13CwiseBinaryOpINS0_20scalar_difference_opIddEEKS3_KNS4_INS2_IdLi4ELi6ELi0ELi4ELi6EEENS2_IdLi6ELi4ELi0ELi6ELi4EEELi0EEEEES3_Li0EEEEEvRT_RKT0_>
 8005ab8:	f50d 7d71 	add.w	sp, sp, #964	@ 0x3c4
 8005abc:	e8bd 8ff0 	ldmia.w	sp!, {r4, r5, r6, r7, r8, r9, sl, fp, pc}

08005ac0 <_ZN20ExtendedKalmanFilter7computeERKN5Eigen6MatrixIdLi3ELi1ELi0ELi3ELi1EEES4_S4_RKd>:
 8005ac0:	b5f0      	push	{r4, r5, r6, r7, lr}
 8005ac2:	b0af      	sub	sp, #188	@ 0xbc
 8005ac4:	4616      	mov	r6, r2
 8005ac6:	460d      	mov	r5, r1
 8005ac8:	4607      	mov	r7, r0
 8005aca:	930f      	str	r3, [sp, #60]	@ 0x3c
 8005acc:	a804      	add	r0, sp, #16
 8005ace:	2100      	movs	r1, #0
 8005ad0:	f10d 045f 	add.w	r4, sp, #95	@ 0x5f
 8005ad4:	a32a      	add	r3, pc, #168	@ (adr r3, 8005b80 <_ZN20ExtendedKalmanFilter7computeERKN5Eigen6MatrixIdLi3ELi1ELi0ELi3ELi1EEES4_S4_RKd+0xc0>)
 8005ad6:	e9d3 2300 	ldrd	r2, r3, [r3]
 8005ada:	f024 040f 	bic.w	r4, r4, #15
 8005ade:	e9cd 2310 	strd	r2, r3, [sp, #64]	@ 0x40
 8005ae2:	aa03      	add	r2, sp, #12
 8005ae4:	ab08      	add	r3, sp, #32
 8005ae6:	9204      	str	r2, [sp, #16]
 8005ae8:	aa0e      	add	r2, sp, #56	@ 0x38
 8005aea:	9303      	str	r3, [sp, #12]
 8005aec:	9205      	str	r2, [sp, #20]
 8005aee:	aa02      	add	r2, sp, #8
 8005af0:	e9cd 2306 	strd	r2, r3, [sp, #24]
 8005af4:	f7fa fdcc 	bl	8000690 <_ZN5Eigen8internal31generic_dense_assignment_kernelINS0_9evaluatorINS_6MatrixIdLi3ELi1ELi0ELi3ELi1EEEEENS2_INS_13CwiseBinaryOpINS0_17scalar_product_opIddEEKS4_KNS_14CwiseNullaryOpINS0_18scalar_constant_opIdEES9_EEEEEENS0_9assign_opIddEELi0EE11assignCoeffEi>
 8005af8:	a804      	add	r0, sp, #16
 8005afa:	2101      	movs	r1, #1
 8005afc:	f7fa fdc8 	bl	8000690 <_ZN5Eigen8internal31generic_dense_assignment_kernelINS0_9evaluatorINS_6MatrixIdLi3ELi1ELi0ELi3ELi1EEEEENS2_INS_13CwiseBinaryOpINS0_17scalar_product_opIddEEKS4_KNS_14CwiseNullaryOpINS0_18scalar_constant_opIdEES9_EEEEEENS0_9assign_opIddEELi0EE11assignCoeffEi>
 8005b00:	a804      	add	r0, sp, #16
 8005b02:	2102      	movs	r1, #2
 8005b04:	f7fa fdc4 	bl	8000690 <_ZN5Eigen8internal31generic_dense_assignment_kernelINS0_9evaluatorINS_6MatrixIdLi3ELi1ELi0ELi3ELi1EEEEENS2_INS_13CwiseBinaryOpINS0_17scalar_product_opIddEEKS4_KNS_14CwiseNullaryOpINS0_18scalar_constant_opIdEES9_EEEEEENS0_9assign_opIddEELi0EE11assignCoeffEi>
 8005b08:	ab08      	add	r3, sp, #32
 8005b0a:	9a35      	ldr	r2, [sp, #212]	@ 0xd4
 8005b0c:	4628      	mov	r0, r5
 8005b0e:	4619      	mov	r1, r3
 8005b10:	f7fe fbe9 	bl	80042e6 <_ZN20ExtendedKalmanFilter7predictERKN5Eigen6MatrixIdLi3ELi1ELi0ELi3ELi1EEERKd>
 8005b14:	682b      	ldr	r3, [r5, #0]
 8005b16:	4629      	mov	r1, r5
 8005b18:	f104 0030 	add.w	r0, r4, #48	@ 0x30
 8005b1c:	691b      	ldr	r3, [r3, #16]
 8005b1e:	4798      	blx	r3
 8005b20:	4620      	mov	r0, r4
 8005b22:	f7fc fdbd 	bl	80026a0 <_ZN5Eigen8internal11plain_arrayIdLi6ELi0ELi16EEC1Ev>
 8005b26:	4621      	mov	r1, r4
 8005b28:	4628      	mov	r0, r5
 8005b2a:	e9d6 2300 	ldrd	r2, r3, [r6]
 8005b2e:	e9c4 2300 	strd	r2, r3, [r4]
 8005b32:	e9d6 2302 	ldrd	r2, r3, [r6, #8]
 8005b36:	e9c4 2302 	strd	r2, r3, [r4, #8]
 8005b3a:	e9d6 2304 	ldrd	r2, r3, [r6, #16]
 8005b3e:	e9c4 2304 	strd	r2, r3, [r4, #16]
 8005b42:	e9d4 2312 	ldrd	r2, r3, [r4, #72]	@ 0x48
 8005b46:	e9c4 2306 	strd	r2, r3, [r4, #24]
 8005b4a:	e9d4 2314 	ldrd	r2, r3, [r4, #80]	@ 0x50
 8005b4e:	e9c4 2308 	strd	r2, r3, [r4, #32]
 8005b52:	e9d4 2316 	ldrd	r2, r3, [r4, #88]	@ 0x58
 8005b56:	e9c4 230a 	strd	r2, r3, [r4, #40]	@ 0x28
 8005b5a:	f7ff ff2a 	bl	80059b2 <_ZN20ExtendedKalmanFilter6updateERKN5Eigen6MatrixIdLi6ELi1ELi0ELi6ELi1EEE>
 8005b5e:	f105 0330 	add.w	r3, r5, #48	@ 0x30
 8005b62:	f105 0240 	add.w	r2, r5, #64	@ 0x40
 8005b66:	f105 0138 	add.w	r1, r5, #56	@ 0x38
 8005b6a:	9300      	str	r3, [sp, #0]
 8005b6c:	4638      	mov	r0, r7
 8005b6e:	f105 0348 	add.w	r3, r5, #72	@ 0x48
 8005b72:	f7fa ff15 	bl	80009a0 <_ZN5Eigen6MatrixIdLi4ELi1ELi0ELi4ELi1EEC1ERKdS3_S3_S3_>
 8005b76:	4638      	mov	r0, r7
 8005b78:	b02f      	add	sp, #188	@ 0xbc
 8005b7a:	bdf0      	pop	{r4, r5, r6, r7, pc}
 8005b7c:	f3af 8000 	nop.w
 8005b80:	a2529d39 	.word	0xa2529d39
 8005b84:	3f91df46 	.word	0x3f91df46

08005b88 <HAL_MspInit>:
 8005b88:	4b07      	ldr	r3, [pc, #28]	@ (8005ba8 <HAL_MspInit+0x20>)
 8005b8a:	b082      	sub	sp, #8
 8005b8c:	f8d3 20f4 	ldr.w	r2, [r3, #244]	@ 0xf4
 8005b90:	f042 0202 	orr.w	r2, r2, #2
 8005b94:	f8c3 20f4 	str.w	r2, [r3, #244]	@ 0xf4
 8005b98:	f8d3 30f4 	ldr.w	r3, [r3, #244]	@ 0xf4
 8005b9c:	f003 0302 	and.w	r3, r3, #2
 8005ba0:	9301      	str	r3, [sp, #4]
 8005ba2:	9b01      	ldr	r3, [sp, #4]
 8005ba4:	b002      	add	sp, #8
 8005ba6:	4770      	bx	lr
 8005ba8:	58024400 	.word	0x58024400

08005bac <HAL_SPI_MspInit>:
 8005bac:	b510      	push	{r4, lr}
 8005bae:	b0b8      	sub	sp, #224	@ 0xe0
 8005bb0:	4604      	mov	r4, r0
 8005bb2:	2214      	movs	r2, #20
 8005bb4:	2100      	movs	r1, #0
 8005bb6:	a803      	add	r0, sp, #12
 8005bb8:	f004 faba 	bl	800a130 <memset>
 8005bbc:	22c0      	movs	r2, #192	@ 0xc0
 8005bbe:	2100      	movs	r1, #0
 8005bc0:	a808      	add	r0, sp, #32
 8005bc2:	f004 fab5 	bl	800a130 <memset>
 8005bc6:	6822      	ldr	r2, [r4, #0]
 8005bc8:	4b21      	ldr	r3, [pc, #132]	@ (8005c50 <HAL_SPI_MspInit+0xa4>)
 8005bca:	429a      	cmp	r2, r3
 8005bcc:	d13d      	bne.n	8005c4a <HAL_SPI_MspInit+0x9e>
 8005bce:	2300      	movs	r3, #0
 8005bd0:	f44f 5280 	mov.w	r2, #4096	@ 0x1000
 8005bd4:	2120      	movs	r1, #32
 8005bd6:	a808      	add	r0, sp, #32
 8005bd8:	e9cd 2308 	strd	r2, r3, [sp, #32]
 8005bdc:	2381      	movs	r3, #129	@ 0x81
 8005bde:	e9cd 130a 	strd	r1, r3, [sp, #40]	@ 0x28
 8005be2:	2302      	movs	r3, #2
 8005be4:	e9cd 330c 	strd	r3, r3, [sp, #48]	@ 0x30
 8005be8:	930e      	str	r3, [sp, #56]	@ 0x38
 8005bea:	2340      	movs	r3, #64	@ 0x40
 8005bec:	930f      	str	r3, [sp, #60]	@ 0x3c
 8005bee:	f44f 5380 	mov.w	r3, #4096	@ 0x1000
 8005bf2:	9320      	str	r3, [sp, #128]	@ 0x80
 8005bf4:	f001 f9f6 	bl	8006fe4 <HAL_RCCEx_PeriphCLKConfig>
 8005bf8:	b108      	cbz	r0, 8005bfe <HAL_SPI_MspInit+0x52>
 8005bfa:	f7fc f823 	bl	8001c44 <Error_Handler>
 8005bfe:	4b15      	ldr	r3, [pc, #84]	@ (8005c54 <HAL_SPI_MspInit+0xa8>)
 8005c00:	a903      	add	r1, sp, #12
 8005c02:	4815      	ldr	r0, [pc, #84]	@ (8005c58 <HAL_SPI_MspInit+0xac>)
 8005c04:	f8d3 20f0 	ldr.w	r2, [r3, #240]	@ 0xf0
 8005c08:	f442 5280 	orr.w	r2, r2, #4096	@ 0x1000
 8005c0c:	f8c3 20f0 	str.w	r2, [r3, #240]	@ 0xf0
 8005c10:	f8d3 20f0 	ldr.w	r2, [r3, #240]	@ 0xf0
 8005c14:	f402 5280 	and.w	r2, r2, #4096	@ 0x1000
 8005c18:	9201      	str	r2, [sp, #4]
 8005c1a:	9a01      	ldr	r2, [sp, #4]
 8005c1c:	f8d3 20e0 	ldr.w	r2, [r3, #224]	@ 0xe0
 8005c20:	f042 0201 	orr.w	r2, r2, #1
 8005c24:	f8c3 20e0 	str.w	r2, [r3, #224]	@ 0xe0
 8005c28:	22e0      	movs	r2, #224	@ 0xe0
 8005c2a:	f8d3 30e0 	ldr.w	r3, [r3, #224]	@ 0xe0
 8005c2e:	f003 0301 	and.w	r3, r3, #1
 8005c32:	9302      	str	r3, [sp, #8]
 8005c34:	9b02      	ldr	r3, [sp, #8]
 8005c36:	2302      	movs	r3, #2
 8005c38:	e9cd 2303 	strd	r2, r3, [sp, #12]
 8005c3c:	2300      	movs	r3, #0
 8005c3e:	e9cd 3305 	strd	r3, r3, [sp, #20]
 8005c42:	2305      	movs	r3, #5
 8005c44:	9307      	str	r3, [sp, #28]
 8005c46:	f000 fa75 	bl	8006134 <HAL_GPIO_Init>
 8005c4a:	b038      	add	sp, #224	@ 0xe0
 8005c4c:	bd10      	pop	{r4, pc}
 8005c4e:	bf00      	nop
 8005c50:	40013000 	.word	0x40013000
 8005c54:	58024400 	.word	0x58024400
 8005c58:	58020000 	.word	0x58020000

08005c5c <HAL_SPI_MspDeInit>:
 8005c5c:	6802      	ldr	r2, [r0, #0]
 8005c5e:	4b07      	ldr	r3, [pc, #28]	@ (8005c7c <HAL_SPI_MspDeInit+0x20>)
 8005c60:	429a      	cmp	r2, r3
 8005c62:	d10a      	bne.n	8005c7a <HAL_SPI_MspDeInit+0x1e>
 8005c64:	4a06      	ldr	r2, [pc, #24]	@ (8005c80 <HAL_SPI_MspDeInit+0x24>)
 8005c66:	21e0      	movs	r1, #224	@ 0xe0
 8005c68:	4806      	ldr	r0, [pc, #24]	@ (8005c84 <HAL_SPI_MspDeInit+0x28>)
 8005c6a:	f8d2 30f0 	ldr.w	r3, [r2, #240]	@ 0xf0
 8005c6e:	f423 5380 	bic.w	r3, r3, #4096	@ 0x1000
 8005c72:	f8c2 30f0 	str.w	r3, [r2, #240]	@ 0xf0
 8005c76:	f000 bb45 	b.w	8006304 <HAL_GPIO_DeInit>
 8005c7a:	4770      	bx	lr
 8005c7c:	40013000 	.word	0x40013000
 8005c80:	58024400 	.word	0x58024400
 8005c84:	58020000 	.word	0x58020000

08005c88 <HAL_UART_MspInit>:
 8005c88:	b510      	push	{r4, lr}
 8005c8a:	b0b8      	sub	sp, #224	@ 0xe0
 8005c8c:	4604      	mov	r4, r0
 8005c8e:	2214      	movs	r2, #20
 8005c90:	2100      	movs	r1, #0
 8005c92:	a803      	add	r0, sp, #12
 8005c94:	f004 fa4c 	bl	800a130 <memset>
 8005c98:	22c0      	movs	r2, #192	@ 0xc0
 8005c9a:	2100      	movs	r1, #0
 8005c9c:	a808      	add	r0, sp, #32
 8005c9e:	f004 fa47 	bl	800a130 <memset>
 8005ca2:	6822      	ldr	r2, [r4, #0]
 8005ca4:	4b1a      	ldr	r3, [pc, #104]	@ (8005d10 <HAL_UART_MspInit+0x88>)
 8005ca6:	429a      	cmp	r2, r3
 8005ca8:	d12f      	bne.n	8005d0a <HAL_UART_MspInit+0x82>
 8005caa:	2202      	movs	r2, #2
 8005cac:	2300      	movs	r3, #0
 8005cae:	a808      	add	r0, sp, #32
 8005cb0:	e9cd 2308 	strd	r2, r3, [sp, #32]
 8005cb4:	f001 f996 	bl	8006fe4 <HAL_RCCEx_PeriphCLKConfig>
 8005cb8:	b108      	cbz	r0, 8005cbe <HAL_UART_MspInit+0x36>
 8005cba:	f7fb ffc3 	bl	8001c44 <Error_Handler>
 8005cbe:	4b15      	ldr	r3, [pc, #84]	@ (8005d14 <HAL_UART_MspInit+0x8c>)
 8005cc0:	a903      	add	r1, sp, #12
 8005cc2:	4815      	ldr	r0, [pc, #84]	@ (8005d18 <HAL_UART_MspInit+0x90>)
 8005cc4:	f8d3 20e8 	ldr.w	r2, [r3, #232]	@ 0xe8
 8005cc8:	f442 3200 	orr.w	r2, r2, #131072	@ 0x20000
 8005ccc:	f8c3 20e8 	str.w	r2, [r3, #232]	@ 0xe8
 8005cd0:	f8d3 20e8 	ldr.w	r2, [r3, #232]	@ 0xe8
 8005cd4:	f402 3200 	and.w	r2, r2, #131072	@ 0x20000
 8005cd8:	9201      	str	r2, [sp, #4]
 8005cda:	9a01      	ldr	r2, [sp, #4]
 8005cdc:	f8d3 20e0 	ldr.w	r2, [r3, #224]	@ 0xe0
 8005ce0:	f042 0201 	orr.w	r2, r2, #1
 8005ce4:	f8c3 20e0 	str.w	r2, [r3, #224]	@ 0xe0
 8005ce8:	220c      	movs	r2, #12
 8005cea:	f8d3 30e0 	ldr.w	r3, [r3, #224]	@ 0xe0
 8005cee:	f003 0301 	and.w	r3, r3, #1
 8005cf2:	9302      	str	r3, [sp, #8]
 8005cf4:	9b02      	ldr	r3, [sp, #8]
 8005cf6:	2302      	movs	r3, #2
 8005cf8:	e9cd 2303 	strd	r2, r3, [sp, #12]
 8005cfc:	2300      	movs	r3, #0
 8005cfe:	e9cd 3305 	strd	r3, r3, [sp, #20]
 8005d02:	2307      	movs	r3, #7
 8005d04:	9307      	str	r3, [sp, #28]
 8005d06:	f000 fa15 	bl	8006134 <HAL_GPIO_Init>
 8005d0a:	b038      	add	sp, #224	@ 0xe0
 8005d0c:	bd10      	pop	{r4, pc}
 8005d0e:	bf00      	nop
 8005d10:	40004400 	.word	0x40004400
 8005d14:	58024400 	.word	0x58024400
 8005d18:	58020000 	.word	0x58020000

08005d1c <NMI_Handler>:
 8005d1c:	e7fe      	b.n	8005d1c <NMI_Handler>

08005d1e <HardFault_Handler>:
 8005d1e:	e7fe      	b.n	8005d1e <HardFault_Handler>

08005d20 <MemManage_Handler>:
 8005d20:	e7fe      	b.n	8005d20 <MemManage_Handler>

08005d22 <BusFault_Handler>:
 8005d22:	e7fe      	b.n	8005d22 <BusFault_Handler>

08005d24 <UsageFault_Handler>:
 8005d24:	e7fe      	b.n	8005d24 <UsageFault_Handler>

08005d26 <SVC_Handler>:
 8005d26:	4770      	bx	lr

08005d28 <DebugMon_Handler>:
 8005d28:	4770      	bx	lr

08005d2a <PendSV_Handler>:
 8005d2a:	4770      	bx	lr

08005d2c <SysTick_Handler>:
 8005d2c:	f000 b936 	b.w	8005f9c <HAL_IncTick>

08005d30 <_getpid>:
 8005d30:	2001      	movs	r0, #1
 8005d32:	4770      	bx	lr

08005d34 <_kill>:
 8005d34:	b508      	push	{r3, lr}
 8005d36:	f004 fa13 	bl	800a160 <__errno>
 8005d3a:	2316      	movs	r3, #22
 8005d3c:	6003      	str	r3, [r0, #0]
 8005d3e:	f04f 30ff 	mov.w	r0, #4294967295	@ 0xffffffff
 8005d42:	bd08      	pop	{r3, pc}

08005d44 <_exit>:
 8005d44:	b508      	push	{r3, lr}
 8005d46:	f004 fa0b 	bl	800a160 <__errno>
 8005d4a:	2316      	movs	r3, #22
 8005d4c:	6003      	str	r3, [r0, #0]
 8005d4e:	e7fe      	b.n	8005d4e <_exit+0xa>

08005d50 <_read>:
 8005d50:	b570      	push	{r4, r5, r6, lr}
 8005d52:	460d      	mov	r5, r1
 8005d54:	4614      	mov	r4, r2
 8005d56:	460e      	mov	r6, r1
 8005d58:	1b73      	subs	r3, r6, r5
 8005d5a:	429c      	cmp	r4, r3
 8005d5c:	dc01      	bgt.n	8005d62 <_read+0x12>
 8005d5e:	4620      	mov	r0, r4
 8005d60:	bd70      	pop	{r4, r5, r6, pc}
 8005d62:	f3af 8000 	nop.w
 8005d66:	f806 0b01 	strb.w	r0, [r6], #1
 8005d6a:	e7f5      	b.n	8005d58 <_read+0x8>

08005d6c <_write>:
 8005d6c:	b570      	push	{r4, r5, r6, lr}
 8005d6e:	460d      	mov	r5, r1
 8005d70:	4614      	mov	r4, r2
 8005d72:	460e      	mov	r6, r1
 8005d74:	1b73      	subs	r3, r6, r5
 8005d76:	429c      	cmp	r4, r3
 8005d78:	dc01      	bgt.n	8005d7e <_write+0x12>
 8005d7a:	4620      	mov	r0, r4
 8005d7c:	bd70      	pop	{r4, r5, r6, pc}
 8005d7e:	f816 0b01 	ldrb.w	r0, [r6], #1
 8005d82:	f3af 8000 	nop.w
 8005d86:	e7f5      	b.n	8005d74 <_write+0x8>

08005d88 <_close>:
 8005d88:	f04f 30ff 	mov.w	r0, #4294967295	@ 0xffffffff
 8005d8c:	4770      	bx	lr

08005d8e <_fstat>:
 8005d8e:	f44f 5300 	mov.w	r3, #8192	@ 0x2000
 8005d92:	2000      	movs	r0, #0
 8005d94:	604b      	str	r3, [r1, #4]
 8005d96:	4770      	bx	lr

08005d98 <_isatty>:
 8005d98:	2001      	movs	r0, #1
 8005d9a:	4770      	bx	lr

08005d9c <_lseek>:
 8005d9c:	2000      	movs	r0, #0
 8005d9e:	4770      	bx	lr

08005da0 <_sbrk>:
 8005da0:	4a0b      	ldr	r2, [pc, #44]	@ (8005dd0 <_sbrk+0x30>)
 8005da2:	4603      	mov	r3, r0
 8005da4:	6811      	ldr	r1, [r2, #0]
 8005da6:	b510      	push	{r4, lr}
 8005da8:	b909      	cbnz	r1, 8005dae <_sbrk+0xe>
 8005daa:	490a      	ldr	r1, [pc, #40]	@ (8005dd4 <_sbrk+0x34>)
 8005dac:	6011      	str	r1, [r2, #0]
 8005dae:	6810      	ldr	r0, [r2, #0]
 8005db0:	4909      	ldr	r1, [pc, #36]	@ (8005dd8 <_sbrk+0x38>)
 8005db2:	4c0a      	ldr	r4, [pc, #40]	@ (8005ddc <_sbrk+0x3c>)
 8005db4:	4403      	add	r3, r0
 8005db6:	1b09      	subs	r1, r1, r4
 8005db8:	428b      	cmp	r3, r1
 8005dba:	d906      	bls.n	8005dca <_sbrk+0x2a>
 8005dbc:	f004 f9d0 	bl	800a160 <__errno>
 8005dc0:	230c      	movs	r3, #12
 8005dc2:	6003      	str	r3, [r0, #0]
 8005dc4:	f04f 30ff 	mov.w	r0, #4294967295	@ 0xffffffff
 8005dc8:	bd10      	pop	{r4, pc}
 8005dca:	6013      	str	r3, [r2, #0]
 8005dcc:	e7fc      	b.n	8005dc8 <_sbrk+0x28>
 8005dce:	bf00      	nop
 8005dd0:	2400024c 	.word	0x2400024c
 8005dd4:	240003a0 	.word	0x240003a0
 8005dd8:	24080000 	.word	0x24080000
 8005ddc:	00000400 	.word	0x00000400

08005de0 <SystemInit>:
 8005de0:	4a25      	ldr	r2, [pc, #148]	@ (8005e78 <SystemInit+0x98>)
 8005de2:	f8d2 3088 	ldr.w	r3, [r2, #136]	@ 0x88
 8005de6:	f443 0370 	orr.w	r3, r3, #15728640	@ 0xf00000
 8005dea:	f8c2 3088 	str.w	r3, [r2, #136]	@ 0x88
 8005dee:	4a23      	ldr	r2, [pc, #140]	@ (8005e7c <SystemInit+0x9c>)
 8005df0:	6813      	ldr	r3, [r2, #0]
 8005df2:	f003 030f 	and.w	r3, r3, #15
 8005df6:	2b06      	cmp	r3, #6
 8005df8:	d805      	bhi.n	8005e06 <SystemInit+0x26>
 8005dfa:	6813      	ldr	r3, [r2, #0]
 8005dfc:	f023 030f 	bic.w	r3, r3, #15
 8005e00:	f043 0307 	orr.w	r3, r3, #7
 8005e04:	6013      	str	r3, [r2, #0]
 8005e06:	4b1e      	ldr	r3, [pc, #120]	@ (8005e80 <SystemInit+0xa0>)
 8005e08:	681a      	ldr	r2, [r3, #0]
 8005e0a:	f042 0201 	orr.w	r2, r2, #1
 8005e0e:	601a      	str	r2, [r3, #0]
 8005e10:	2200      	movs	r2, #0
 8005e12:	611a      	str	r2, [r3, #16]
 8005e14:	4a1b      	ldr	r2, [pc, #108]	@ (8005e84 <SystemInit+0xa4>)
 8005e16:	6819      	ldr	r1, [r3, #0]
 8005e18:	400a      	ands	r2, r1
 8005e1a:	4918      	ldr	r1, [pc, #96]	@ (8005e7c <SystemInit+0x9c>)
 8005e1c:	601a      	str	r2, [r3, #0]
 8005e1e:	680a      	ldr	r2, [r1, #0]
 8005e20:	0712      	lsls	r2, r2, #28
 8005e22:	d505      	bpl.n	8005e30 <SystemInit+0x50>
 8005e24:	680a      	ldr	r2, [r1, #0]
 8005e26:	f022 020f 	bic.w	r2, r2, #15
 8005e2a:	f042 0207 	orr.w	r2, r2, #7
 8005e2e:	600a      	str	r2, [r1, #0]
 8005e30:	2200      	movs	r2, #0
 8005e32:	4915      	ldr	r1, [pc, #84]	@ (8005e88 <SystemInit+0xa8>)
 8005e34:	619a      	str	r2, [r3, #24]
 8005e36:	61da      	str	r2, [r3, #28]
 8005e38:	621a      	str	r2, [r3, #32]
 8005e3a:	6299      	str	r1, [r3, #40]	@ 0x28
 8005e3c:	4913      	ldr	r1, [pc, #76]	@ (8005e8c <SystemInit+0xac>)
 8005e3e:	62d9      	str	r1, [r3, #44]	@ 0x2c
 8005e40:	4913      	ldr	r1, [pc, #76]	@ (8005e90 <SystemInit+0xb0>)
 8005e42:	6319      	str	r1, [r3, #48]	@ 0x30
 8005e44:	635a      	str	r2, [r3, #52]	@ 0x34
 8005e46:	6399      	str	r1, [r3, #56]	@ 0x38
 8005e48:	63da      	str	r2, [r3, #60]	@ 0x3c
 8005e4a:	6419      	str	r1, [r3, #64]	@ 0x40
 8005e4c:	645a      	str	r2, [r3, #68]	@ 0x44
 8005e4e:	6819      	ldr	r1, [r3, #0]
 8005e50:	f421 2180 	bic.w	r1, r1, #262144	@ 0x40000
 8005e54:	6019      	str	r1, [r3, #0]
 8005e56:	661a      	str	r2, [r3, #96]	@ 0x60
 8005e58:	4b0e      	ldr	r3, [pc, #56]	@ (8005e94 <SystemInit+0xb4>)
 8005e5a:	681b      	ldr	r3, [r3, #0]
 8005e5c:	0c1b      	lsrs	r3, r3, #16
 8005e5e:	041b      	lsls	r3, r3, #16
 8005e60:	f1b3 5f00 	cmp.w	r3, #536870912	@ 0x20000000
 8005e64:	d203      	bcs.n	8005e6e <SystemInit+0x8e>
 8005e66:	4b0c      	ldr	r3, [pc, #48]	@ (8005e98 <SystemInit+0xb8>)
 8005e68:	2201      	movs	r2, #1
 8005e6a:	f8c3 2108 	str.w	r2, [r3, #264]	@ 0x108
 8005e6e:	4b0b      	ldr	r3, [pc, #44]	@ (8005e9c <SystemInit+0xbc>)
 8005e70:	f243 02d2 	movw	r2, #12498	@ 0x30d2
 8005e74:	601a      	str	r2, [r3, #0]
 8005e76:	4770      	bx	lr
 8005e78:	e000ed00 	.word	0xe000ed00
 8005e7c:	52002000 	.word	0x52002000
 8005e80:	58024400 	.word	0x58024400
 8005e84:	eaf6ed7f 	.word	0xeaf6ed7f
 8005e88:	02020200 	.word	0x02020200
 8005e8c:	01ff0000 	.word	0x01ff0000
 8005e90:	01010280 	.word	0x01010280
 8005e94:	5c001000 	.word	0x5c001000
 8005e98:	51008000 	.word	0x51008000
 8005e9c:	52004000 	.word	0x52004000

08005ea0 <Reset_Handler>:
 8005ea0:	f8df d034 	ldr.w	sp, [pc, #52]	@ 8005ed8 <LoopFillZerobss+0xe>
 8005ea4:	f7ff ff9c 	bl	8005de0 <SystemInit>
 8005ea8:	480c      	ldr	r0, [pc, #48]	@ (8005edc <LoopFillZerobss+0x12>)
 8005eaa:	490d      	ldr	r1, [pc, #52]	@ (8005ee0 <LoopFillZerobss+0x16>)
 8005eac:	4a0d      	ldr	r2, [pc, #52]	@ (8005ee4 <LoopFillZerobss+0x1a>)
 8005eae:	2300      	movs	r3, #0
 8005eb0:	e002      	b.n	8005eb8 <LoopCopyDataInit>

08005eb2 <CopyDataInit>:
 8005eb2:	58d4      	ldr	r4, [r2, r3]
 8005eb4:	50c4      	str	r4, [r0, r3]
 8005eb6:	3304      	adds	r3, #4

08005eb8 <LoopCopyDataInit>:
 8005eb8:	18c4      	adds	r4, r0, r3
 8005eba:	428c      	cmp	r4, r1
 8005ebc:	d3f9      	bcc.n	8005eb2 <CopyDataInit>
 8005ebe:	4a0a      	ldr	r2, [pc, #40]	@ (8005ee8 <LoopFillZerobss+0x1e>)
 8005ec0:	4c0a      	ldr	r4, [pc, #40]	@ (8005eec <LoopFillZerobss+0x22>)
 8005ec2:	2300      	movs	r3, #0
 8005ec4:	e001      	b.n	8005eca <LoopFillZerobss>

08005ec6 <FillZerobss>:
 8005ec6:	6013      	str	r3, [r2, #0]
 8005ec8:	3204      	adds	r2, #4

08005eca <LoopFillZerobss>:
 8005eca:	42a2      	cmp	r2, r4
 8005ecc:	d3fb      	bcc.n	8005ec6 <FillZerobss>
 8005ece:	f004 f94d 	bl	800a16c <__libc_init_array>
 8005ed2:	f7fb fde5 	bl	8001aa0 <main>
 8005ed6:	4770      	bx	lr
 8005ed8:	24080000 	.word	0x24080000
 8005edc:	24000000 	.word	0x24000000
 8005ee0:	2400006c 	.word	0x2400006c
 8005ee4:	0800e058 	.word	0x0800e058
 8005ee8:	2400006c 	.word	0x2400006c
 8005eec:	240003a0 	.word	0x240003a0

08005ef0 <ADC3_IRQHandler>:
 8005ef0:	e7fe      	b.n	8005ef0 <ADC3_IRQHandler>
	...

08005ef4 <HAL_InitTick>:
 8005ef4:	b538      	push	{r3, r4, r5, lr}
 8005ef6:	4b0f      	ldr	r3, [pc, #60]	@ (8005f34 <HAL_InitTick+0x40>)
 8005ef8:	4605      	mov	r5, r0
 8005efa:	781a      	ldrb	r2, [r3, #0]
 8005efc:	b90a      	cbnz	r2, 8005f02 <HAL_InitTick+0xe>
 8005efe:	2001      	movs	r0, #1
 8005f00:	bd38      	pop	{r3, r4, r5, pc}
 8005f02:	f44f 737a 	mov.w	r3, #1000	@ 0x3e8
 8005f06:	fbb3 f3f2 	udiv	r3, r3, r2
 8005f0a:	4a0b      	ldr	r2, [pc, #44]	@ (8005f38 <HAL_InitTick+0x44>)
 8005f0c:	6810      	ldr	r0, [r2, #0]
 8005f0e:	fbb0 f0f3 	udiv	r0, r0, r3
 8005f12:	f000 f8b1 	bl	8006078 <HAL_SYSTICK_Config>
 8005f16:	4604      	mov	r4, r0
 8005f18:	2800      	cmp	r0, #0
 8005f1a:	d1f0      	bne.n	8005efe <HAL_InitTick+0xa>
 8005f1c:	2d0f      	cmp	r5, #15
 8005f1e:	d8ee      	bhi.n	8005efe <HAL_InitTick+0xa>
 8005f20:	4602      	mov	r2, r0
 8005f22:	4629      	mov	r1, r5
 8005f24:	f04f 30ff 	mov.w	r0, #4294967295	@ 0xffffffff
 8005f28:	f000 f874 	bl	8006014 <HAL_NVIC_SetPriority>
 8005f2c:	4b03      	ldr	r3, [pc, #12]	@ (8005f3c <HAL_InitTick+0x48>)
 8005f2e:	4620      	mov	r0, r4
 8005f30:	601d      	str	r5, [r3, #0]
 8005f32:	e7e5      	b.n	8005f00 <HAL_InitTick+0xc>
 8005f34:	24000008 	.word	0x24000008
 8005f38:	24000004 	.word	0x24000004
 8005f3c:	2400000c 	.word	0x2400000c

08005f40 <HAL_Init>:
 8005f40:	b510      	push	{r4, lr}
 8005f42:	2003      	movs	r0, #3
 8005f44:	f000 f854 	bl	8005ff0 <HAL_NVIC_SetPriorityGrouping>
 8005f48:	f000 fd4e 	bl	80069e8 <HAL_RCC_GetSysClockFreq>
 8005f4c:	490f      	ldr	r1, [pc, #60]	@ (8005f8c <HAL_Init+0x4c>)
 8005f4e:	4a10      	ldr	r2, [pc, #64]	@ (8005f90 <HAL_Init+0x50>)
 8005f50:	698b      	ldr	r3, [r1, #24]
 8005f52:	f3c3 2303 	ubfx	r3, r3, #8, #4
 8005f56:	5cd3      	ldrb	r3, [r2, r3]
 8005f58:	f003 031f 	and.w	r3, r3, #31
 8005f5c:	40d8      	lsrs	r0, r3
 8005f5e:	698b      	ldr	r3, [r1, #24]
 8005f60:	f003 030f 	and.w	r3, r3, #15
 8005f64:	5cd3      	ldrb	r3, [r2, r3]
 8005f66:	4a0b      	ldr	r2, [pc, #44]	@ (8005f94 <HAL_Init+0x54>)
 8005f68:	f003 031f 	and.w	r3, r3, #31
 8005f6c:	fa20 f303 	lsr.w	r3, r0, r3
 8005f70:	6013      	str	r3, [r2, #0]
 8005f72:	4b09      	ldr	r3, [pc, #36]	@ (8005f98 <HAL_Init+0x58>)
 8005f74:	6018      	str	r0, [r3, #0]
 8005f76:	200f      	movs	r0, #15
 8005f78:	f7ff ffbc 	bl	8005ef4 <HAL_InitTick>
 8005f7c:	4604      	mov	r4, r0
 8005f7e:	b918      	cbnz	r0, 8005f88 <HAL_Init+0x48>
 8005f80:	f7ff fe02 	bl	8005b88 <HAL_MspInit>
 8005f84:	4620      	mov	r0, r4
 8005f86:	bd10      	pop	{r4, pc}
 8005f88:	2401      	movs	r4, #1
 8005f8a:	e7fb      	b.n	8005f84 <HAL_Init+0x44>
 8005f8c:	58024400 	.word	0x58024400
 8005f90:	0800dd58 	.word	0x0800dd58
 8005f94:	24000000 	.word	0x24000000
 8005f98:	24000004 	.word	0x24000004

08005f9c <HAL_IncTick>:
 8005f9c:	4a03      	ldr	r2, [pc, #12]	@ (8005fac <HAL_IncTick+0x10>)
 8005f9e:	4b04      	ldr	r3, [pc, #16]	@ (8005fb0 <HAL_IncTick+0x14>)
 8005fa0:	6811      	ldr	r1, [r2, #0]
 8005fa2:	781b      	ldrb	r3, [r3, #0]
 8005fa4:	440b      	add	r3, r1
 8005fa6:	6013      	str	r3, [r2, #0]
 8005fa8:	4770      	bx	lr
 8005faa:	bf00      	nop
 8005fac:	24000250 	.word	0x24000250
 8005fb0:	24000008 	.word	0x24000008

08005fb4 <HAL_GetTick>:
 8005fb4:	4b01      	ldr	r3, [pc, #4]	@ (8005fbc <HAL_GetTick+0x8>)
 8005fb6:	6818      	ldr	r0, [r3, #0]
 8005fb8:	4770      	bx	lr
 8005fba:	bf00      	nop
 8005fbc:	24000250 	.word	0x24000250

08005fc0 <HAL_Delay>:
 8005fc0:	b538      	push	{r3, r4, r5, lr}
 8005fc2:	4604      	mov	r4, r0
 8005fc4:	f7ff fff6 	bl	8005fb4 <HAL_GetTick>
 8005fc8:	4605      	mov	r5, r0
 8005fca:	1c63      	adds	r3, r4, #1
 8005fcc:	bf1e      	ittt	ne
 8005fce:	4b04      	ldrne	r3, [pc, #16]	@ (8005fe0 <HAL_Delay+0x20>)
 8005fd0:	781b      	ldrbne	r3, [r3, #0]
 8005fd2:	18e4      	addne	r4, r4, r3
 8005fd4:	f7ff ffee 	bl	8005fb4 <HAL_GetTick>
 8005fd8:	1b43      	subs	r3, r0, r5
 8005fda:	42a3      	cmp	r3, r4
 8005fdc:	d3fa      	bcc.n	8005fd4 <HAL_Delay+0x14>
 8005fde:	bd38      	pop	{r3, r4, r5, pc}
 8005fe0:	24000008 	.word	0x24000008

08005fe4 <HAL_GetREVID>:
 8005fe4:	4b01      	ldr	r3, [pc, #4]	@ (8005fec <HAL_GetREVID+0x8>)
 8005fe6:	6818      	ldr	r0, [r3, #0]
 8005fe8:	0c00      	lsrs	r0, r0, #16
 8005fea:	4770      	bx	lr
 8005fec:	5c001000 	.word	0x5c001000

08005ff0 <HAL_NVIC_SetPriorityGrouping>:
 8005ff0:	4907      	ldr	r1, [pc, #28]	@ (8006010 <HAL_NVIC_SetPriorityGrouping+0x20>)
 8005ff2:	0203      	lsls	r3, r0, #8
 8005ff4:	68ca      	ldr	r2, [r1, #12]
 8005ff6:	f403 63e0 	and.w	r3, r3, #1792	@ 0x700
 8005ffa:	f422 62e0 	bic.w	r2, r2, #1792	@ 0x700
 8005ffe:	0412      	lsls	r2, r2, #16
 8006000:	0c12      	lsrs	r2, r2, #16
 8006002:	4313      	orrs	r3, r2
 8006004:	f043 63bf 	orr.w	r3, r3, #100139008	@ 0x5f80000
 8006008:	f443 3300 	orr.w	r3, r3, #131072	@ 0x20000
 800600c:	60cb      	str	r3, [r1, #12]
 800600e:	4770      	bx	lr
 8006010:	e000ed00 	.word	0xe000ed00

08006014 <HAL_NVIC_SetPriority>:
 8006014:	4b16      	ldr	r3, [pc, #88]	@ (8006070 <HAL_NVIC_SetPriority+0x5c>)
 8006016:	b530      	push	{r4, r5, lr}
 8006018:	68dc      	ldr	r4, [r3, #12]
 800601a:	f3c4 2402 	ubfx	r4, r4, #8, #3
 800601e:	f1c4 0307 	rsb	r3, r4, #7
 8006022:	1d25      	adds	r5, r4, #4
 8006024:	2b04      	cmp	r3, #4
 8006026:	bf28      	it	cs
 8006028:	2304      	movcs	r3, #4
 800602a:	2d06      	cmp	r5, #6
 800602c:	f04f 35ff 	mov.w	r5, #4294967295	@ 0xffffffff
 8006030:	bf8c      	ite	hi
 8006032:	3c03      	subhi	r4, #3
 8006034:	2400      	movls	r4, #0
 8006036:	fa05 f303 	lsl.w	r3, r5, r3
 800603a:	2800      	cmp	r0, #0
 800603c:	fa05 f504 	lsl.w	r5, r5, r4
 8006040:	ea21 0303 	bic.w	r3, r1, r3
 8006044:	ea22 0205 	bic.w	r2, r2, r5
 8006048:	fa03 f304 	lsl.w	r3, r3, r4
 800604c:	ea43 0302 	orr.w	r3, r3, r2
 8006050:	ea4f 1303 	mov.w	r3, r3, lsl #4
 8006054:	b2db      	uxtb	r3, r3
 8006056:	db06      	blt.n	8006066 <HAL_NVIC_SetPriority+0x52>
 8006058:	f100 4060 	add.w	r0, r0, #3758096384	@ 0xe0000000
 800605c:	f500 4061 	add.w	r0, r0, #57600	@ 0xe100
 8006060:	f880 3300 	strb.w	r3, [r0, #768]	@ 0x300
 8006064:	bd30      	pop	{r4, r5, pc}
 8006066:	f000 000f 	and.w	r0, r0, #15
 800606a:	4a02      	ldr	r2, [pc, #8]	@ (8006074 <HAL_NVIC_SetPriority+0x60>)
 800606c:	5413      	strb	r3, [r2, r0]
 800606e:	e7f9      	b.n	8006064 <HAL_NVIC_SetPriority+0x50>
 8006070:	e000ed00 	.word	0xe000ed00
 8006074:	e000ed14 	.word	0xe000ed14

08006078 <HAL_SYSTICK_Config>:
 8006078:	3801      	subs	r0, #1
 800607a:	f1b0 7f80 	cmp.w	r0, #16777216	@ 0x1000000
 800607e:	d20b      	bcs.n	8006098 <HAL_SYSTICK_Config+0x20>
 8006080:	f04f 23e0 	mov.w	r3, #3758153728	@ 0xe000e000
 8006084:	4a05      	ldr	r2, [pc, #20]	@ (800609c <HAL_SYSTICK_Config+0x24>)
 8006086:	21f0      	movs	r1, #240	@ 0xf0
 8006088:	6158      	str	r0, [r3, #20]
 800608a:	2000      	movs	r0, #0
 800608c:	f882 1023 	strb.w	r1, [r2, #35]	@ 0x23
 8006090:	2207      	movs	r2, #7
 8006092:	6198      	str	r0, [r3, #24]
 8006094:	611a      	str	r2, [r3, #16]
 8006096:	4770      	bx	lr
 8006098:	2001      	movs	r0, #1
 800609a:	4770      	bx	lr
 800609c:	e000ed00 	.word	0xe000ed00

080060a0 <HAL_MPU_Disable>:
 80060a0:	f3bf 8f5f 	dmb	sy
 80060a4:	4b04      	ldr	r3, [pc, #16]	@ (80060b8 <HAL_MPU_Disable+0x18>)
 80060a6:	6a5a      	ldr	r2, [r3, #36]	@ 0x24
 80060a8:	f422 3280 	bic.w	r2, r2, #65536	@ 0x10000
 80060ac:	625a      	str	r2, [r3, #36]	@ 0x24
 80060ae:	2200      	movs	r2, #0
 80060b0:	f8c3 2094 	str.w	r2, [r3, #148]	@ 0x94
 80060b4:	4770      	bx	lr
 80060b6:	bf00      	nop
 80060b8:	e000ed00 	.word	0xe000ed00

080060bc <HAL_MPU_Enable>:
 80060bc:	4b06      	ldr	r3, [pc, #24]	@ (80060d8 <HAL_MPU_Enable+0x1c>)
 80060be:	f040 0001 	orr.w	r0, r0, #1
 80060c2:	f8c3 0094 	str.w	r0, [r3, #148]	@ 0x94
 80060c6:	6a5a      	ldr	r2, [r3, #36]	@ 0x24
 80060c8:	f442 3280 	orr.w	r2, r2, #65536	@ 0x10000
 80060cc:	625a      	str	r2, [r3, #36]	@ 0x24
 80060ce:	f3bf 8f4f 	dsb	sy
 80060d2:	f3bf 8f6f 	isb	sy
 80060d6:	4770      	bx	lr
 80060d8:	e000ed00 	.word	0xe000ed00

080060dc <HAL_MPU_ConfigRegion>:
 80060dc:	7843      	ldrb	r3, [r0, #1]
 80060de:	4a14      	ldr	r2, [pc, #80]	@ (8006130 <HAL_MPU_ConfigRegion+0x54>)
 80060e0:	f8c2 3098 	str.w	r3, [r2, #152]	@ 0x98
 80060e4:	f8d2 30a0 	ldr.w	r3, [r2, #160]	@ 0xa0
 80060e8:	f023 0301 	bic.w	r3, r3, #1
 80060ec:	f8c2 30a0 	str.w	r3, [r2, #160]	@ 0xa0
 80060f0:	6843      	ldr	r3, [r0, #4]
 80060f2:	f8c2 309c 	str.w	r3, [r2, #156]	@ 0x9c
 80060f6:	7ac3      	ldrb	r3, [r0, #11]
 80060f8:	7b01      	ldrb	r1, [r0, #12]
 80060fa:	061b      	lsls	r3, r3, #24
 80060fc:	ea43 7301 	orr.w	r3, r3, r1, lsl #28
 8006100:	7801      	ldrb	r1, [r0, #0]
 8006102:	430b      	orrs	r3, r1
 8006104:	7a81      	ldrb	r1, [r0, #10]
 8006106:	ea43 43c1 	orr.w	r3, r3, r1, lsl #19
 800610a:	7b41      	ldrb	r1, [r0, #13]
 800610c:	ea43 4381 	orr.w	r3, r3, r1, lsl #18
 8006110:	7b81      	ldrb	r1, [r0, #14]
 8006112:	ea43 4341 	orr.w	r3, r3, r1, lsl #17
 8006116:	7bc1      	ldrb	r1, [r0, #15]
 8006118:	ea43 4301 	orr.w	r3, r3, r1, lsl #16
 800611c:	7a41      	ldrb	r1, [r0, #9]
 800611e:	ea43 2301 	orr.w	r3, r3, r1, lsl #8
 8006122:	7a01      	ldrb	r1, [r0, #8]
 8006124:	ea43 0341 	orr.w	r3, r3, r1, lsl #1
 8006128:	f8c2 30a0 	str.w	r3, [r2, #160]	@ 0xa0
 800612c:	4770      	bx	lr
 800612e:	bf00      	nop
 8006130:	e000ed00 	.word	0xe000ed00

08006134 <HAL_GPIO_Init>:
 8006134:	e92d 4ff7 	stmdb	sp!, {r0, r1, r2, r4, r5, r6, r7, r8, r9, sl, fp, lr}
 8006138:	2300      	movs	r3, #0
 800613a:	f8df 91c4 	ldr.w	r9, [pc, #452]	@ 8006300 <HAL_GPIO_Init+0x1cc>
 800613e:	f04f 44b0 	mov.w	r4, #1476395008	@ 0x58000000
 8006142:	680a      	ldr	r2, [r1, #0]
 8006144:	fa32 f503 	lsrs.w	r5, r2, r3
 8006148:	d102      	bne.n	8006150 <HAL_GPIO_Init+0x1c>
 800614a:	b003      	add	sp, #12
 800614c:	e8bd 8ff0 	ldmia.w	sp!, {r4, r5, r6, r7, r8, r9, sl, fp, pc}
 8006150:	2501      	movs	r5, #1
 8006152:	fa05 f803 	lsl.w	r8, r5, r3
 8006156:	ea18 0202 	ands.w	r2, r8, r2
 800615a:	f000 80bb 	beq.w	80062d4 <HAL_GPIO_Init+0x1a0>
 800615e:	684e      	ldr	r6, [r1, #4]
 8006160:	2703      	movs	r7, #3
 8006162:	ea4f 0e43 	mov.w	lr, r3, lsl #1
 8006166:	f006 0503 	and.w	r5, r6, #3
 800616a:	fa07 fc0e 	lsl.w	ip, r7, lr
 800616e:	1e6f      	subs	r7, r5, #1
 8006170:	ea6f 0c0c 	mvn.w	ip, ip
 8006174:	2f01      	cmp	r7, #1
 8006176:	d834      	bhi.n	80061e2 <HAL_GPIO_Init+0xae>
 8006178:	6887      	ldr	r7, [r0, #8]
 800617a:	ea07 0a0c 	and.w	sl, r7, ip
 800617e:	68cf      	ldr	r7, [r1, #12]
 8006180:	fa07 f70e 	lsl.w	r7, r7, lr
 8006184:	ea47 070a 	orr.w	r7, r7, sl
 8006188:	6087      	str	r7, [r0, #8]
 800618a:	6847      	ldr	r7, [r0, #4]
 800618c:	ea27 0808 	bic.w	r8, r7, r8
 8006190:	f3c6 1700 	ubfx	r7, r6, #4, #1
 8006194:	409f      	lsls	r7, r3
 8006196:	ea47 0708 	orr.w	r7, r7, r8
 800619a:	6047      	str	r7, [r0, #4]
 800619c:	68c7      	ldr	r7, [r0, #12]
 800619e:	2d02      	cmp	r5, #2
 80061a0:	ea07 080c 	and.w	r8, r7, ip
 80061a4:	688f      	ldr	r7, [r1, #8]
 80061a6:	fa07 f70e 	lsl.w	r7, r7, lr
 80061aa:	ea47 0708 	orr.w	r7, r7, r8
 80061ae:	60c7      	str	r7, [r0, #12]
 80061b0:	d119      	bne.n	80061e6 <HAL_GPIO_Init+0xb2>
 80061b2:	ea4f 08d3 	mov.w	r8, r3, lsr #3
 80061b6:	f003 0a07 	and.w	sl, r3, #7
 80061ba:	f04f 0b0f 	mov.w	fp, #15
 80061be:	eb00 0888 	add.w	r8, r0, r8, lsl #2
 80061c2:	ea4f 0a8a 	mov.w	sl, sl, lsl #2
 80061c6:	f8d8 7020 	ldr.w	r7, [r8, #32]
 80061ca:	fa0b fb0a 	lsl.w	fp, fp, sl
 80061ce:	ea27 0b0b 	bic.w	fp, r7, fp
 80061d2:	690f      	ldr	r7, [r1, #16]
 80061d4:	fa07 f70a 	lsl.w	r7, r7, sl
 80061d8:	ea47 070b 	orr.w	r7, r7, fp
 80061dc:	f8c8 7020 	str.w	r7, [r8, #32]
 80061e0:	e001      	b.n	80061e6 <HAL_GPIO_Init+0xb2>
 80061e2:	2d03      	cmp	r5, #3
 80061e4:	d1da      	bne.n	800619c <HAL_GPIO_Init+0x68>
 80061e6:	6807      	ldr	r7, [r0, #0]
 80061e8:	fa05 f50e 	lsl.w	r5, r5, lr
 80061ec:	f416 3f40 	tst.w	r6, #196608	@ 0x30000
 80061f0:	ea07 070c 	and.w	r7, r7, ip
 80061f4:	ea45 0507 	orr.w	r5, r5, r7
 80061f8:	6005      	str	r5, [r0, #0]
 80061fa:	d06b      	beq.n	80062d4 <HAL_GPIO_Init+0x1a0>
 80061fc:	f8d9 50f4 	ldr.w	r5, [r9, #244]	@ 0xf4
 8006200:	f023 0703 	bic.w	r7, r3, #3
 8006204:	f003 0c03 	and.w	ip, r3, #3
 8006208:	f04f 0e0f 	mov.w	lr, #15
 800620c:	f045 0502 	orr.w	r5, r5, #2
 8006210:	f107 47b0 	add.w	r7, r7, #1476395008	@ 0x58000000
 8006214:	ea4f 0c8c 	mov.w	ip, ip, lsl #2
 8006218:	f8c9 50f4 	str.w	r5, [r9, #244]	@ 0xf4
 800621c:	f507 6780 	add.w	r7, r7, #1024	@ 0x400
 8006220:	f8d9 50f4 	ldr.w	r5, [r9, #244]	@ 0xf4
 8006224:	fa0e fe0c 	lsl.w	lr, lr, ip
 8006228:	f005 0502 	and.w	r5, r5, #2
 800622c:	9501      	str	r5, [sp, #4]
 800622e:	9d01      	ldr	r5, [sp, #4]
 8006230:	68bd      	ldr	r5, [r7, #8]
 8006232:	ea25 0e0e 	bic.w	lr, r5, lr
 8006236:	4d31      	ldr	r5, [pc, #196]	@ (80062fc <HAL_GPIO_Init+0x1c8>)
 8006238:	42a8      	cmp	r0, r5
 800623a:	d04d      	beq.n	80062d8 <HAL_GPIO_Init+0x1a4>
 800623c:	f505 6580 	add.w	r5, r5, #1024	@ 0x400
 8006240:	42a8      	cmp	r0, r5
 8006242:	d04b      	beq.n	80062dc <HAL_GPIO_Init+0x1a8>
 8006244:	f505 6580 	add.w	r5, r5, #1024	@ 0x400
 8006248:	42a8      	cmp	r0, r5
 800624a:	d049      	beq.n	80062e0 <HAL_GPIO_Init+0x1ac>
 800624c:	f505 6580 	add.w	r5, r5, #1024	@ 0x400
 8006250:	42a8      	cmp	r0, r5
 8006252:	d047      	beq.n	80062e4 <HAL_GPIO_Init+0x1b0>
 8006254:	f505 6580 	add.w	r5, r5, #1024	@ 0x400
 8006258:	42a8      	cmp	r0, r5
 800625a:	d045      	beq.n	80062e8 <HAL_GPIO_Init+0x1b4>
 800625c:	f505 6580 	add.w	r5, r5, #1024	@ 0x400
 8006260:	42a8      	cmp	r0, r5
 8006262:	d043      	beq.n	80062ec <HAL_GPIO_Init+0x1b8>
 8006264:	f505 6580 	add.w	r5, r5, #1024	@ 0x400
 8006268:	42a8      	cmp	r0, r5
 800626a:	d041      	beq.n	80062f0 <HAL_GPIO_Init+0x1bc>
 800626c:	f505 6580 	add.w	r5, r5, #1024	@ 0x400
 8006270:	42a8      	cmp	r0, r5
 8006272:	d03f      	beq.n	80062f4 <HAL_GPIO_Init+0x1c0>
 8006274:	f505 6580 	add.w	r5, r5, #1024	@ 0x400
 8006278:	42a8      	cmp	r0, r5
 800627a:	d03d      	beq.n	80062f8 <HAL_GPIO_Init+0x1c4>
 800627c:	f505 6580 	add.w	r5, r5, #1024	@ 0x400
 8006280:	42a8      	cmp	r0, r5
 8006282:	bf14      	ite	ne
 8006284:	250a      	movne	r5, #10
 8006286:	2509      	moveq	r5, #9
 8006288:	fa05 f50c 	lsl.w	r5, r5, ip
 800628c:	f416 1f80 	tst.w	r6, #1048576	@ 0x100000
 8006290:	ea45 050e 	orr.w	r5, r5, lr
 8006294:	60bd      	str	r5, [r7, #8]
 8006296:	ea6f 0702 	mvn.w	r7, r2
 800629a:	6825      	ldr	r5, [r4, #0]
 800629c:	bf0c      	ite	eq
 800629e:	403d      	andeq	r5, r7
 80062a0:	4315      	orrne	r5, r2
 80062a2:	f416 1f00 	tst.w	r6, #2097152	@ 0x200000
 80062a6:	6025      	str	r5, [r4, #0]
 80062a8:	6865      	ldr	r5, [r4, #4]
 80062aa:	bf0c      	ite	eq
 80062ac:	403d      	andeq	r5, r7
 80062ae:	4315      	orrne	r5, r2
 80062b0:	f416 3f00 	tst.w	r6, #131072	@ 0x20000
 80062b4:	6065      	str	r5, [r4, #4]
 80062b6:	f8d4 5084 	ldr.w	r5, [r4, #132]	@ 0x84
 80062ba:	bf0c      	ite	eq
 80062bc:	403d      	andeq	r5, r7
 80062be:	4315      	orrne	r5, r2
 80062c0:	03f6      	lsls	r6, r6, #15
 80062c2:	f8c4 5084 	str.w	r5, [r4, #132]	@ 0x84
 80062c6:	f8d4 5080 	ldr.w	r5, [r4, #128]	@ 0x80
 80062ca:	bf54      	ite	pl
 80062cc:	403d      	andpl	r5, r7
 80062ce:	4315      	orrmi	r5, r2
 80062d0:	f8c4 5080 	str.w	r5, [r4, #128]	@ 0x80
 80062d4:	3301      	adds	r3, #1
 80062d6:	e734      	b.n	8006142 <HAL_GPIO_Init+0xe>
 80062d8:	2500      	movs	r5, #0
 80062da:	e7d5      	b.n	8006288 <HAL_GPIO_Init+0x154>
 80062dc:	2501      	movs	r5, #1
 80062de:	e7d3      	b.n	8006288 <HAL_GPIO_Init+0x154>
 80062e0:	2502      	movs	r5, #2
 80062e2:	e7d1      	b.n	8006288 <HAL_GPIO_Init+0x154>
 80062e4:	2503      	movs	r5, #3
 80062e6:	e7cf      	b.n	8006288 <HAL_GPIO_Init+0x154>
 80062e8:	2504      	movs	r5, #4
 80062ea:	e7cd      	b.n	8006288 <HAL_GPIO_Init+0x154>
 80062ec:	2505      	movs	r5, #5
 80062ee:	e7cb      	b.n	8006288 <HAL_GPIO_Init+0x154>
 80062f0:	2506      	movs	r5, #6
 80062f2:	e7c9      	b.n	8006288 <HAL_GPIO_Init+0x154>
 80062f4:	2507      	movs	r5, #7
 80062f6:	e7c7      	b.n	8006288 <HAL_GPIO_Init+0x154>
 80062f8:	2508      	movs	r5, #8
 80062fa:	e7c5      	b.n	8006288 <HAL_GPIO_Init+0x154>
 80062fc:	58020000 	.word	0x58020000
 8006300:	58024400 	.word	0x58024400

08006304 <HAL_GPIO_DeInit>:
 8006304:	e92d 4ff0 	stmdb	sp!, {r4, r5, r6, r7, r8, r9, sl, fp, lr}
 8006308:	2200      	movs	r2, #0
 800630a:	f04f 0a01 	mov.w	sl, #1
 800630e:	f04f 080f 	mov.w	r8, #15
 8006312:	f04f 0b03 	mov.w	fp, #3
 8006316:	f04f 44b0 	mov.w	r4, #1476395008	@ 0x58000000
 800631a:	fa31 f302 	lsrs.w	r3, r1, r2
 800631e:	d101      	bne.n	8006324 <HAL_GPIO_DeInit+0x20>
 8006320:	e8bd 8ff0 	ldmia.w	sp!, {r4, r5, r6, r7, r8, r9, sl, fp, pc}
 8006324:	fa0a fc02 	lsl.w	ip, sl, r2
 8006328:	ea1c 0601 	ands.w	r6, ip, r1
 800632c:	d070      	beq.n	8006410 <HAL_GPIO_DeInit+0x10c>
 800632e:	f022 0503 	bic.w	r5, r2, #3
 8006332:	f002 0703 	and.w	r7, r2, #3
 8006336:	f105 45b0 	add.w	r5, r5, #1476395008	@ 0x58000000
 800633a:	00bf      	lsls	r7, r7, #2
 800633c:	f8d5 3408 	ldr.w	r3, [r5, #1032]	@ 0x408
 8006340:	fa08 f907 	lsl.w	r9, r8, r7
 8006344:	f505 6580 	add.w	r5, r5, #1024	@ 0x400
 8006348:	ea09 0e03 	and.w	lr, r9, r3
 800634c:	4b3a      	ldr	r3, [pc, #232]	@ (8006438 <HAL_GPIO_DeInit+0x134>)
 800634e:	4298      	cmp	r0, r3
 8006350:	d060      	beq.n	8006414 <HAL_GPIO_DeInit+0x110>
 8006352:	f503 6380 	add.w	r3, r3, #1024	@ 0x400
 8006356:	4298      	cmp	r0, r3
 8006358:	d05e      	beq.n	8006418 <HAL_GPIO_DeInit+0x114>
 800635a:	f503 6380 	add.w	r3, r3, #1024	@ 0x400
 800635e:	4298      	cmp	r0, r3
 8006360:	d05c      	beq.n	800641c <HAL_GPIO_DeInit+0x118>
 8006362:	f503 6380 	add.w	r3, r3, #1024	@ 0x400
 8006366:	4298      	cmp	r0, r3
 8006368:	d05a      	beq.n	8006420 <HAL_GPIO_DeInit+0x11c>
 800636a:	f503 6380 	add.w	r3, r3, #1024	@ 0x400
 800636e:	4298      	cmp	r0, r3
 8006370:	d058      	beq.n	8006424 <HAL_GPIO_DeInit+0x120>
 8006372:	f503 6380 	add.w	r3, r3, #1024	@ 0x400
 8006376:	4298      	cmp	r0, r3
 8006378:	d056      	beq.n	8006428 <HAL_GPIO_DeInit+0x124>
 800637a:	f503 6380 	add.w	r3, r3, #1024	@ 0x400
 800637e:	4298      	cmp	r0, r3
 8006380:	d054      	beq.n	800642c <HAL_GPIO_DeInit+0x128>
 8006382:	f503 6380 	add.w	r3, r3, #1024	@ 0x400
 8006386:	4298      	cmp	r0, r3
 8006388:	d052      	beq.n	8006430 <HAL_GPIO_DeInit+0x12c>
 800638a:	f503 6380 	add.w	r3, r3, #1024	@ 0x400
 800638e:	4298      	cmp	r0, r3
 8006390:	d050      	beq.n	8006434 <HAL_GPIO_DeInit+0x130>
 8006392:	f503 6380 	add.w	r3, r3, #1024	@ 0x400
 8006396:	4298      	cmp	r0, r3
 8006398:	bf0c      	ite	eq
 800639a:	2309      	moveq	r3, #9
 800639c:	230a      	movne	r3, #10
 800639e:	40bb      	lsls	r3, r7
 80063a0:	4573      	cmp	r3, lr
 80063a2:	d117      	bne.n	80063d4 <HAL_GPIO_DeInit+0xd0>
 80063a4:	f8d4 3080 	ldr.w	r3, [r4, #128]	@ 0x80
 80063a8:	ea23 0306 	bic.w	r3, r3, r6
 80063ac:	f8c4 3080 	str.w	r3, [r4, #128]	@ 0x80
 80063b0:	f8d4 3084 	ldr.w	r3, [r4, #132]	@ 0x84
 80063b4:	ea23 0306 	bic.w	r3, r3, r6
 80063b8:	f8c4 3084 	str.w	r3, [r4, #132]	@ 0x84
 80063bc:	6863      	ldr	r3, [r4, #4]
 80063be:	ea23 0306 	bic.w	r3, r3, r6
 80063c2:	6063      	str	r3, [r4, #4]
 80063c4:	6823      	ldr	r3, [r4, #0]
 80063c6:	ea23 0306 	bic.w	r3, r3, r6
 80063ca:	6023      	str	r3, [r4, #0]
 80063cc:	68ab      	ldr	r3, [r5, #8]
 80063ce:	ea23 0309 	bic.w	r3, r3, r9
 80063d2:	60ab      	str	r3, [r5, #8]
 80063d4:	0053      	lsls	r3, r2, #1
 80063d6:	6805      	ldr	r5, [r0, #0]
 80063d8:	08d6      	lsrs	r6, r2, #3
 80063da:	fa0b f303 	lsl.w	r3, fp, r3
 80063de:	eb00 0686 	add.w	r6, r0, r6, lsl #2
 80063e2:	431d      	orrs	r5, r3
 80063e4:	6005      	str	r5, [r0, #0]
 80063e6:	f002 0507 	and.w	r5, r2, #7
 80063ea:	6a37      	ldr	r7, [r6, #32]
 80063ec:	00ad      	lsls	r5, r5, #2
 80063ee:	fa08 f505 	lsl.w	r5, r8, r5
 80063f2:	ea27 0705 	bic.w	r7, r7, r5
 80063f6:	6237      	str	r7, [r6, #32]
 80063f8:	68c5      	ldr	r5, [r0, #12]
 80063fa:	ea25 0503 	bic.w	r5, r5, r3
 80063fe:	60c5      	str	r5, [r0, #12]
 8006400:	6845      	ldr	r5, [r0, #4]
 8006402:	ea25 050c 	bic.w	r5, r5, ip
 8006406:	6045      	str	r5, [r0, #4]
 8006408:	6885      	ldr	r5, [r0, #8]
 800640a:	ea25 0303 	bic.w	r3, r5, r3
 800640e:	6083      	str	r3, [r0, #8]
 8006410:	3201      	adds	r2, #1
 8006412:	e782      	b.n	800631a <HAL_GPIO_DeInit+0x16>
 8006414:	2300      	movs	r3, #0
 8006416:	e7c2      	b.n	800639e <HAL_GPIO_DeInit+0x9a>
 8006418:	2301      	movs	r3, #1
 800641a:	e7c0      	b.n	800639e <HAL_GPIO_DeInit+0x9a>
 800641c:	2302      	movs	r3, #2
 800641e:	e7be      	b.n	800639e <HAL_GPIO_DeInit+0x9a>
 8006420:	2303      	movs	r3, #3
 8006422:	e7bc      	b.n	800639e <HAL_GPIO_DeInit+0x9a>
 8006424:	2304      	movs	r3, #4
 8006426:	e7ba      	b.n	800639e <HAL_GPIO_DeInit+0x9a>
 8006428:	2305      	movs	r3, #5
 800642a:	e7b8      	b.n	800639e <HAL_GPIO_DeInit+0x9a>
 800642c:	2306      	movs	r3, #6
 800642e:	e7b6      	b.n	800639e <HAL_GPIO_DeInit+0x9a>
 8006430:	2307      	movs	r3, #7
 8006432:	e7b4      	b.n	800639e <HAL_GPIO_DeInit+0x9a>
 8006434:	2308      	movs	r3, #8
 8006436:	e7b2      	b.n	800639e <HAL_GPIO_DeInit+0x9a>
 8006438:	58020000 	.word	0x58020000

0800643c <HAL_GPIO_WritePin>:
 800643c:	b10a      	cbz	r2, 8006442 <HAL_GPIO_WritePin+0x6>
 800643e:	6181      	str	r1, [r0, #24]
 8006440:	4770      	bx	lr
 8006442:	0409      	lsls	r1, r1, #16
 8006444:	e7fb      	b.n	800643e <HAL_GPIO_WritePin+0x2>
	...

08006448 <HAL_PWREx_ConfigSupply>:
 8006448:	b538      	push	{r3, r4, r5, lr}
 800644a:	4c10      	ldr	r4, [pc, #64]	@ (800648c <HAL_PWREx_ConfigSupply+0x44>)
 800644c:	68e3      	ldr	r3, [r4, #12]
 800644e:	f013 0f04 	tst.w	r3, #4
 8006452:	68e3      	ldr	r3, [r4, #12]
 8006454:	d105      	bne.n	8006462 <HAL_PWREx_ConfigSupply+0x1a>
 8006456:	f003 0307 	and.w	r3, r3, #7
 800645a:	1a18      	subs	r0, r3, r0
 800645c:	bf18      	it	ne
 800645e:	2001      	movne	r0, #1
 8006460:	bd38      	pop	{r3, r4, r5, pc}
 8006462:	f023 0307 	bic.w	r3, r3, #7
 8006466:	4318      	orrs	r0, r3
 8006468:	60e0      	str	r0, [r4, #12]
 800646a:	f7ff fda3 	bl	8005fb4 <HAL_GetTick>
 800646e:	4605      	mov	r5, r0
 8006470:	6863      	ldr	r3, [r4, #4]
 8006472:	049b      	lsls	r3, r3, #18
 8006474:	d501      	bpl.n	800647a <HAL_PWREx_ConfigSupply+0x32>
 8006476:	2000      	movs	r0, #0
 8006478:	e7f2      	b.n	8006460 <HAL_PWREx_ConfigSupply+0x18>
 800647a:	f7ff fd9b 	bl	8005fb4 <HAL_GetTick>
 800647e:	1b40      	subs	r0, r0, r5
 8006480:	f5b0 7f7a 	cmp.w	r0, #1000	@ 0x3e8
 8006484:	d9f4      	bls.n	8006470 <HAL_PWREx_ConfigSupply+0x28>
 8006486:	2001      	movs	r0, #1
 8006488:	e7ea      	b.n	8006460 <HAL_PWREx_ConfigSupply+0x18>
 800648a:	bf00      	nop
 800648c:	58024800 	.word	0x58024800

08006490 <HAL_RCC_OscConfig>:
 8006490:	b5f8      	push	{r3, r4, r5, r6, r7, lr}
 8006492:	4604      	mov	r4, r0
 8006494:	2800      	cmp	r0, #0
 8006496:	d074      	beq.n	8006582 <HAL_RCC_OscConfig+0xf2>
 8006498:	6803      	ldr	r3, [r0, #0]
 800649a:	07d8      	lsls	r0, r3, #31
 800649c:	d45e      	bmi.n	800655c <HAL_RCC_OscConfig+0xcc>
 800649e:	6823      	ldr	r3, [r4, #0]
 80064a0:	0799      	lsls	r1, r3, #30
 80064a2:	f100 80ad 	bmi.w	8006600 <HAL_RCC_OscConfig+0x170>
 80064a6:	6823      	ldr	r3, [r4, #0]
 80064a8:	06da      	lsls	r2, r3, #27
 80064aa:	d527      	bpl.n	80064fc <HAL_RCC_OscConfig+0x6c>
 80064ac:	4a9c      	ldr	r2, [pc, #624]	@ (8006720 <HAL_RCC_OscConfig+0x290>)
 80064ae:	6913      	ldr	r3, [r2, #16]
 80064b0:	6a91      	ldr	r1, [r2, #40]	@ 0x28
 80064b2:	f003 0338 	and.w	r3, r3, #56	@ 0x38
 80064b6:	2b08      	cmp	r3, #8
 80064b8:	d007      	beq.n	80064ca <HAL_RCC_OscConfig+0x3a>
 80064ba:	2b18      	cmp	r3, #24
 80064bc:	f040 8103 	bne.w	80066c6 <HAL_RCC_OscConfig+0x236>
 80064c0:	f001 0303 	and.w	r3, r1, #3
 80064c4:	2b01      	cmp	r3, #1
 80064c6:	f040 80fe 	bne.w	80066c6 <HAL_RCC_OscConfig+0x236>
 80064ca:	6813      	ldr	r3, [r2, #0]
 80064cc:	05db      	lsls	r3, r3, #23
 80064ce:	d502      	bpl.n	80064d6 <HAL_RCC_OscConfig+0x46>
 80064d0:	69e3      	ldr	r3, [r4, #28]
 80064d2:	2b80      	cmp	r3, #128	@ 0x80
 80064d4:	d155      	bne.n	8006582 <HAL_RCC_OscConfig+0xf2>
 80064d6:	f7ff fd85 	bl	8005fe4 <HAL_GetREVID>
 80064da:	f241 0303 	movw	r3, #4099	@ 0x1003
 80064de:	6a21      	ldr	r1, [r4, #32]
 80064e0:	4298      	cmp	r0, r3
 80064e2:	4b8f      	ldr	r3, [pc, #572]	@ (8006720 <HAL_RCC_OscConfig+0x290>)
 80064e4:	f200 80e8 	bhi.w	80066b8 <HAL_RCC_OscConfig+0x228>
 80064e8:	685a      	ldr	r2, [r3, #4]
 80064ea:	2920      	cmp	r1, #32
 80064ec:	f022 42f8 	bic.w	r2, r2, #2080374784	@ 0x7c000000
 80064f0:	bf0c      	ite	eq
 80064f2:	f042 4280 	orreq.w	r2, r2, #1073741824	@ 0x40000000
 80064f6:	ea42 6281 	orrne.w	r2, r2, r1, lsl #26
 80064fa:	605a      	str	r2, [r3, #4]
 80064fc:	6823      	ldr	r3, [r4, #0]
 80064fe:	0719      	lsls	r1, r3, #28
 8006500:	f100 8123 	bmi.w	800674a <HAL_RCC_OscConfig+0x2ba>
 8006504:	6823      	ldr	r3, [r4, #0]
 8006506:	069a      	lsls	r2, r3, #26
 8006508:	f100 8144 	bmi.w	8006794 <HAL_RCC_OscConfig+0x304>
 800650c:	6823      	ldr	r3, [r4, #0]
 800650e:	075d      	lsls	r5, r3, #29
 8006510:	d51e      	bpl.n	8006550 <HAL_RCC_OscConfig+0xc0>
 8006512:	4d84      	ldr	r5, [pc, #528]	@ (8006724 <HAL_RCC_OscConfig+0x294>)
 8006514:	682b      	ldr	r3, [r5, #0]
 8006516:	f443 7380 	orr.w	r3, r3, #256	@ 0x100
 800651a:	602b      	str	r3, [r5, #0]
 800651c:	f7ff fd4a 	bl	8005fb4 <HAL_GetTick>
 8006520:	4606      	mov	r6, r0
 8006522:	682b      	ldr	r3, [r5, #0]
 8006524:	05da      	lsls	r2, r3, #23
 8006526:	f140 815a 	bpl.w	80067de <HAL_RCC_OscConfig+0x34e>
 800652a:	68a3      	ldr	r3, [r4, #8]
 800652c:	4d7c      	ldr	r5, [pc, #496]	@ (8006720 <HAL_RCC_OscConfig+0x290>)
 800652e:	2b01      	cmp	r3, #1
 8006530:	f040 815c 	bne.w	80067ec <HAL_RCC_OscConfig+0x35c>
 8006534:	6f2b      	ldr	r3, [r5, #112]	@ 0x70
 8006536:	f043 0301 	orr.w	r3, r3, #1
 800653a:	672b      	str	r3, [r5, #112]	@ 0x70
 800653c:	f241 3788 	movw	r7, #5000	@ 0x1388
 8006540:	f7ff fd38 	bl	8005fb4 <HAL_GetTick>
 8006544:	4e76      	ldr	r6, [pc, #472]	@ (8006720 <HAL_RCC_OscConfig+0x290>)
 8006546:	4605      	mov	r5, r0
 8006548:	6f33      	ldr	r3, [r6, #112]	@ 0x70
 800654a:	079b      	lsls	r3, r3, #30
 800654c:	f140 8174 	bpl.w	8006838 <HAL_RCC_OscConfig+0x3a8>
 8006550:	6a61      	ldr	r1, [r4, #36]	@ 0x24
 8006552:	2900      	cmp	r1, #0
 8006554:	f040 8177 	bne.w	8006846 <HAL_RCC_OscConfig+0x3b6>
 8006558:	2000      	movs	r0, #0
 800655a:	e02b      	b.n	80065b4 <HAL_RCC_OscConfig+0x124>
 800655c:	4a70      	ldr	r2, [pc, #448]	@ (8006720 <HAL_RCC_OscConfig+0x290>)
 800655e:	6913      	ldr	r3, [r2, #16]
 8006560:	6a91      	ldr	r1, [r2, #40]	@ 0x28
 8006562:	f003 0338 	and.w	r3, r3, #56	@ 0x38
 8006566:	2b10      	cmp	r3, #16
 8006568:	d005      	beq.n	8006576 <HAL_RCC_OscConfig+0xe6>
 800656a:	2b18      	cmp	r3, #24
 800656c:	d10b      	bne.n	8006586 <HAL_RCC_OscConfig+0xf6>
 800656e:	f001 0303 	and.w	r3, r1, #3
 8006572:	2b02      	cmp	r3, #2
 8006574:	d107      	bne.n	8006586 <HAL_RCC_OscConfig+0xf6>
 8006576:	6813      	ldr	r3, [r2, #0]
 8006578:	039a      	lsls	r2, r3, #14
 800657a:	d590      	bpl.n	800649e <HAL_RCC_OscConfig+0xe>
 800657c:	6863      	ldr	r3, [r4, #4]
 800657e:	2b00      	cmp	r3, #0
 8006580:	d18d      	bne.n	800649e <HAL_RCC_OscConfig+0xe>
 8006582:	2001      	movs	r0, #1
 8006584:	e016      	b.n	80065b4 <HAL_RCC_OscConfig+0x124>
 8006586:	6863      	ldr	r3, [r4, #4]
 8006588:	4d65      	ldr	r5, [pc, #404]	@ (8006720 <HAL_RCC_OscConfig+0x290>)
 800658a:	f5b3 3f80 	cmp.w	r3, #65536	@ 0x10000
 800658e:	d112      	bne.n	80065b6 <HAL_RCC_OscConfig+0x126>
 8006590:	682b      	ldr	r3, [r5, #0]
 8006592:	f443 3380 	orr.w	r3, r3, #65536	@ 0x10000
 8006596:	602b      	str	r3, [r5, #0]
 8006598:	f7ff fd0c 	bl	8005fb4 <HAL_GetTick>
 800659c:	4e60      	ldr	r6, [pc, #384]	@ (8006720 <HAL_RCC_OscConfig+0x290>)
 800659e:	4605      	mov	r5, r0
 80065a0:	6833      	ldr	r3, [r6, #0]
 80065a2:	039b      	lsls	r3, r3, #14
 80065a4:	f53f af7b 	bmi.w	800649e <HAL_RCC_OscConfig+0xe>
 80065a8:	f7ff fd04 	bl	8005fb4 <HAL_GetTick>
 80065ac:	1b40      	subs	r0, r0, r5
 80065ae:	2864      	cmp	r0, #100	@ 0x64
 80065b0:	d9f6      	bls.n	80065a0 <HAL_RCC_OscConfig+0x110>
 80065b2:	2003      	movs	r0, #3
 80065b4:	bdf8      	pop	{r3, r4, r5, r6, r7, pc}
 80065b6:	b9a3      	cbnz	r3, 80065e2 <HAL_RCC_OscConfig+0x152>
 80065b8:	682b      	ldr	r3, [r5, #0]
 80065ba:	f423 3380 	bic.w	r3, r3, #65536	@ 0x10000
 80065be:	602b      	str	r3, [r5, #0]
 80065c0:	682b      	ldr	r3, [r5, #0]
 80065c2:	f423 2380 	bic.w	r3, r3, #262144	@ 0x40000
 80065c6:	602b      	str	r3, [r5, #0]
 80065c8:	f7ff fcf4 	bl	8005fb4 <HAL_GetTick>
 80065cc:	4606      	mov	r6, r0
 80065ce:	682b      	ldr	r3, [r5, #0]
 80065d0:	039f      	lsls	r7, r3, #14
 80065d2:	f57f af64 	bpl.w	800649e <HAL_RCC_OscConfig+0xe>
 80065d6:	f7ff fced 	bl	8005fb4 <HAL_GetTick>
 80065da:	1b80      	subs	r0, r0, r6
 80065dc:	2864      	cmp	r0, #100	@ 0x64
 80065de:	d9f6      	bls.n	80065ce <HAL_RCC_OscConfig+0x13e>
 80065e0:	e7e7      	b.n	80065b2 <HAL_RCC_OscConfig+0x122>
 80065e2:	f5b3 2fa0 	cmp.w	r3, #327680	@ 0x50000
 80065e6:	682b      	ldr	r3, [r5, #0]
 80065e8:	d103      	bne.n	80065f2 <HAL_RCC_OscConfig+0x162>
 80065ea:	f443 2380 	orr.w	r3, r3, #262144	@ 0x40000
 80065ee:	602b      	str	r3, [r5, #0]
 80065f0:	e7ce      	b.n	8006590 <HAL_RCC_OscConfig+0x100>
 80065f2:	f423 3380 	bic.w	r3, r3, #65536	@ 0x10000
 80065f6:	602b      	str	r3, [r5, #0]
 80065f8:	682b      	ldr	r3, [r5, #0]
 80065fa:	f423 2380 	bic.w	r3, r3, #262144	@ 0x40000
 80065fe:	e7ca      	b.n	8006596 <HAL_RCC_OscConfig+0x106>
 8006600:	4947      	ldr	r1, [pc, #284]	@ (8006720 <HAL_RCC_OscConfig+0x290>)
 8006602:	68e2      	ldr	r2, [r4, #12]
 8006604:	690b      	ldr	r3, [r1, #16]
 8006606:	6a88      	ldr	r0, [r1, #40]	@ 0x28
 8006608:	f013 0338 	ands.w	r3, r3, #56	@ 0x38
 800660c:	d003      	beq.n	8006616 <HAL_RCC_OscConfig+0x186>
 800660e:	2b18      	cmp	r3, #24
 8006610:	d12a      	bne.n	8006668 <HAL_RCC_OscConfig+0x1d8>
 8006612:	0780      	lsls	r0, r0, #30
 8006614:	d128      	bne.n	8006668 <HAL_RCC_OscConfig+0x1d8>
 8006616:	680b      	ldr	r3, [r1, #0]
 8006618:	075b      	lsls	r3, r3, #29
 800661a:	d501      	bpl.n	8006620 <HAL_RCC_OscConfig+0x190>
 800661c:	2a00      	cmp	r2, #0
 800661e:	d0b0      	beq.n	8006582 <HAL_RCC_OscConfig+0xf2>
 8006620:	4d3f      	ldr	r5, [pc, #252]	@ (8006720 <HAL_RCC_OscConfig+0x290>)
 8006622:	682b      	ldr	r3, [r5, #0]
 8006624:	f023 0319 	bic.w	r3, r3, #25
 8006628:	4313      	orrs	r3, r2
 800662a:	602b      	str	r3, [r5, #0]
 800662c:	f7ff fcc2 	bl	8005fb4 <HAL_GetTick>
 8006630:	4606      	mov	r6, r0
 8006632:	682b      	ldr	r3, [r5, #0]
 8006634:	075f      	lsls	r7, r3, #29
 8006636:	d511      	bpl.n	800665c <HAL_RCC_OscConfig+0x1cc>
 8006638:	f7ff fcd4 	bl	8005fe4 <HAL_GetREVID>
 800663c:	f241 0303 	movw	r3, #4099	@ 0x1003
 8006640:	6922      	ldr	r2, [r4, #16]
 8006642:	4298      	cmp	r0, r3
 8006644:	686b      	ldr	r3, [r5, #4]
 8006646:	d822      	bhi.n	800668e <HAL_RCC_OscConfig+0x1fe>
 8006648:	f423 337c 	bic.w	r3, r3, #258048	@ 0x3f000
 800664c:	2a40      	cmp	r2, #64	@ 0x40
 800664e:	bf0c      	ite	eq
 8006650:	f443 3300 	orreq.w	r3, r3, #131072	@ 0x20000
 8006654:	ea43 3302 	orrne.w	r3, r3, r2, lsl #12
 8006658:	606b      	str	r3, [r5, #4]
 800665a:	e724      	b.n	80064a6 <HAL_RCC_OscConfig+0x16>
 800665c:	f7ff fcaa 	bl	8005fb4 <HAL_GetTick>
 8006660:	1b80      	subs	r0, r0, r6
 8006662:	2802      	cmp	r0, #2
 8006664:	d9e5      	bls.n	8006632 <HAL_RCC_OscConfig+0x1a2>
 8006666:	e7a4      	b.n	80065b2 <HAL_RCC_OscConfig+0x122>
 8006668:	4d2d      	ldr	r5, [pc, #180]	@ (8006720 <HAL_RCC_OscConfig+0x290>)
 800666a:	682b      	ldr	r3, [r5, #0]
 800666c:	b1a2      	cbz	r2, 8006698 <HAL_RCC_OscConfig+0x208>
 800666e:	f023 0319 	bic.w	r3, r3, #25
 8006672:	4313      	orrs	r3, r2
 8006674:	602b      	str	r3, [r5, #0]
 8006676:	f7ff fc9d 	bl	8005fb4 <HAL_GetTick>
 800667a:	4606      	mov	r6, r0
 800667c:	682b      	ldr	r3, [r5, #0]
 800667e:	0758      	lsls	r0, r3, #29
 8006680:	d4da      	bmi.n	8006638 <HAL_RCC_OscConfig+0x1a8>
 8006682:	f7ff fc97 	bl	8005fb4 <HAL_GetTick>
 8006686:	1b80      	subs	r0, r0, r6
 8006688:	2802      	cmp	r0, #2
 800668a:	d9f7      	bls.n	800667c <HAL_RCC_OscConfig+0x1ec>
 800668c:	e791      	b.n	80065b2 <HAL_RCC_OscConfig+0x122>
 800668e:	f023 43fe 	bic.w	r3, r3, #2130706432	@ 0x7f000000
 8006692:	ea43 6302 	orr.w	r3, r3, r2, lsl #24
 8006696:	e7df      	b.n	8006658 <HAL_RCC_OscConfig+0x1c8>
 8006698:	f023 0301 	bic.w	r3, r3, #1
 800669c:	602b      	str	r3, [r5, #0]
 800669e:	f7ff fc89 	bl	8005fb4 <HAL_GetTick>
 80066a2:	4606      	mov	r6, r0
 80066a4:	682b      	ldr	r3, [r5, #0]
 80066a6:	0759      	lsls	r1, r3, #29
 80066a8:	f57f aefd 	bpl.w	80064a6 <HAL_RCC_OscConfig+0x16>
 80066ac:	f7ff fc82 	bl	8005fb4 <HAL_GetTick>
 80066b0:	1b80      	subs	r0, r0, r6
 80066b2:	2802      	cmp	r0, #2
 80066b4:	d9f6      	bls.n	80066a4 <HAL_RCC_OscConfig+0x214>
 80066b6:	e77c      	b.n	80065b2 <HAL_RCC_OscConfig+0x122>
 80066b8:	68da      	ldr	r2, [r3, #12]
 80066ba:	f022 527c 	bic.w	r2, r2, #1056964608	@ 0x3f000000
 80066be:	ea42 6201 	orr.w	r2, r2, r1, lsl #24
 80066c2:	60da      	str	r2, [r3, #12]
 80066c4:	e71a      	b.n	80064fc <HAL_RCC_OscConfig+0x6c>
 80066c6:	69e3      	ldr	r3, [r4, #28]
 80066c8:	4d15      	ldr	r5, [pc, #84]	@ (8006720 <HAL_RCC_OscConfig+0x290>)
 80066ca:	b36b      	cbz	r3, 8006728 <HAL_RCC_OscConfig+0x298>
 80066cc:	682b      	ldr	r3, [r5, #0]
 80066ce:	f043 0380 	orr.w	r3, r3, #128	@ 0x80
 80066d2:	602b      	str	r3, [r5, #0]
 80066d4:	f7ff fc6e 	bl	8005fb4 <HAL_GetTick>
 80066d8:	4606      	mov	r6, r0
 80066da:	682b      	ldr	r3, [r5, #0]
 80066dc:	05df      	lsls	r7, r3, #23
 80066de:	d511      	bpl.n	8006704 <HAL_RCC_OscConfig+0x274>
 80066e0:	f7ff fc80 	bl	8005fe4 <HAL_GetREVID>
 80066e4:	f241 0303 	movw	r3, #4099	@ 0x1003
 80066e8:	6a22      	ldr	r2, [r4, #32]
 80066ea:	4298      	cmp	r0, r3
 80066ec:	d810      	bhi.n	8006710 <HAL_RCC_OscConfig+0x280>
 80066ee:	686b      	ldr	r3, [r5, #4]
 80066f0:	2a20      	cmp	r2, #32
 80066f2:	f023 43f8 	bic.w	r3, r3, #2080374784	@ 0x7c000000
 80066f6:	bf0c      	ite	eq
 80066f8:	f043 4380 	orreq.w	r3, r3, #1073741824	@ 0x40000000
 80066fc:	ea43 6382 	orrne.w	r3, r3, r2, lsl #26
 8006700:	606b      	str	r3, [r5, #4]
 8006702:	e6fb      	b.n	80064fc <HAL_RCC_OscConfig+0x6c>
 8006704:	f7ff fc56 	bl	8005fb4 <HAL_GetTick>
 8006708:	1b80      	subs	r0, r0, r6
 800670a:	2802      	cmp	r0, #2
 800670c:	d9e5      	bls.n	80066da <HAL_RCC_OscConfig+0x24a>
 800670e:	e750      	b.n	80065b2 <HAL_RCC_OscConfig+0x122>
 8006710:	68eb      	ldr	r3, [r5, #12]
 8006712:	f023 537c 	bic.w	r3, r3, #1056964608	@ 0x3f000000
 8006716:	ea43 6302 	orr.w	r3, r3, r2, lsl #24
 800671a:	60eb      	str	r3, [r5, #12]
 800671c:	e6ee      	b.n	80064fc <HAL_RCC_OscConfig+0x6c>
 800671e:	bf00      	nop
 8006720:	58024400 	.word	0x58024400
 8006724:	58024800 	.word	0x58024800
 8006728:	682b      	ldr	r3, [r5, #0]
 800672a:	f023 0380 	bic.w	r3, r3, #128	@ 0x80
 800672e:	602b      	str	r3, [r5, #0]
 8006730:	f7ff fc40 	bl	8005fb4 <HAL_GetTick>
 8006734:	4606      	mov	r6, r0
 8006736:	682b      	ldr	r3, [r5, #0]
 8006738:	05d8      	lsls	r0, r3, #23
 800673a:	f57f aedf 	bpl.w	80064fc <HAL_RCC_OscConfig+0x6c>
 800673e:	f7ff fc39 	bl	8005fb4 <HAL_GetTick>
 8006742:	1b80      	subs	r0, r0, r6
 8006744:	2802      	cmp	r0, #2
 8006746:	d9f6      	bls.n	8006736 <HAL_RCC_OscConfig+0x2a6>
 8006748:	e733      	b.n	80065b2 <HAL_RCC_OscConfig+0x122>
 800674a:	6963      	ldr	r3, [r4, #20]
 800674c:	4da5      	ldr	r5, [pc, #660]	@ (80069e4 <HAL_RCC_OscConfig+0x554>)
 800674e:	b183      	cbz	r3, 8006772 <HAL_RCC_OscConfig+0x2e2>
 8006750:	6f6b      	ldr	r3, [r5, #116]	@ 0x74
 8006752:	f043 0301 	orr.w	r3, r3, #1
 8006756:	676b      	str	r3, [r5, #116]	@ 0x74
 8006758:	f7ff fc2c 	bl	8005fb4 <HAL_GetTick>
 800675c:	4606      	mov	r6, r0
 800675e:	6f6b      	ldr	r3, [r5, #116]	@ 0x74
 8006760:	079b      	lsls	r3, r3, #30
 8006762:	f53f aecf 	bmi.w	8006504 <HAL_RCC_OscConfig+0x74>
 8006766:	f7ff fc25 	bl	8005fb4 <HAL_GetTick>
 800676a:	1b80      	subs	r0, r0, r6
 800676c:	2802      	cmp	r0, #2
 800676e:	d9f6      	bls.n	800675e <HAL_RCC_OscConfig+0x2ce>
 8006770:	e71f      	b.n	80065b2 <HAL_RCC_OscConfig+0x122>
 8006772:	6f6b      	ldr	r3, [r5, #116]	@ 0x74
 8006774:	f023 0301 	bic.w	r3, r3, #1
 8006778:	676b      	str	r3, [r5, #116]	@ 0x74
 800677a:	f7ff fc1b 	bl	8005fb4 <HAL_GetTick>
 800677e:	4606      	mov	r6, r0
 8006780:	6f6b      	ldr	r3, [r5, #116]	@ 0x74
 8006782:	079f      	lsls	r7, r3, #30
 8006784:	f57f aebe 	bpl.w	8006504 <HAL_RCC_OscConfig+0x74>
 8006788:	f7ff fc14 	bl	8005fb4 <HAL_GetTick>
 800678c:	1b80      	subs	r0, r0, r6
 800678e:	2802      	cmp	r0, #2
 8006790:	d9f6      	bls.n	8006780 <HAL_RCC_OscConfig+0x2f0>
 8006792:	e70e      	b.n	80065b2 <HAL_RCC_OscConfig+0x122>
 8006794:	69a3      	ldr	r3, [r4, #24]
 8006796:	4d93      	ldr	r5, [pc, #588]	@ (80069e4 <HAL_RCC_OscConfig+0x554>)
 8006798:	b183      	cbz	r3, 80067bc <HAL_RCC_OscConfig+0x32c>
 800679a:	682b      	ldr	r3, [r5, #0]
 800679c:	f443 5380 	orr.w	r3, r3, #4096	@ 0x1000
 80067a0:	602b      	str	r3, [r5, #0]
 80067a2:	f7ff fc07 	bl	8005fb4 <HAL_GetTick>
 80067a6:	4606      	mov	r6, r0
 80067a8:	682b      	ldr	r3, [r5, #0]
 80067aa:	0498      	lsls	r0, r3, #18
 80067ac:	f53f aeae 	bmi.w	800650c <HAL_RCC_OscConfig+0x7c>
 80067b0:	f7ff fc00 	bl	8005fb4 <HAL_GetTick>
 80067b4:	1b80      	subs	r0, r0, r6
 80067b6:	2802      	cmp	r0, #2
 80067b8:	d9f6      	bls.n	80067a8 <HAL_RCC_OscConfig+0x318>
 80067ba:	e6fa      	b.n	80065b2 <HAL_RCC_OscConfig+0x122>
 80067bc:	682b      	ldr	r3, [r5, #0]
 80067be:	f423 5380 	bic.w	r3, r3, #4096	@ 0x1000
 80067c2:	602b      	str	r3, [r5, #0]
 80067c4:	f7ff fbf6 	bl	8005fb4 <HAL_GetTick>
 80067c8:	4606      	mov	r6, r0
 80067ca:	682b      	ldr	r3, [r5, #0]
 80067cc:	0499      	lsls	r1, r3, #18
 80067ce:	f57f ae9d 	bpl.w	800650c <HAL_RCC_OscConfig+0x7c>
 80067d2:	f7ff fbef 	bl	8005fb4 <HAL_GetTick>
 80067d6:	1b80      	subs	r0, r0, r6
 80067d8:	2802      	cmp	r0, #2
 80067da:	d9f6      	bls.n	80067ca <HAL_RCC_OscConfig+0x33a>
 80067dc:	e6e9      	b.n	80065b2 <HAL_RCC_OscConfig+0x122>
 80067de:	f7ff fbe9 	bl	8005fb4 <HAL_GetTick>
 80067e2:	1b80      	subs	r0, r0, r6
 80067e4:	2864      	cmp	r0, #100	@ 0x64
 80067e6:	f67f ae9c 	bls.w	8006522 <HAL_RCC_OscConfig+0x92>
 80067ea:	e6e2      	b.n	80065b2 <HAL_RCC_OscConfig+0x122>
 80067ec:	b9b3      	cbnz	r3, 800681c <HAL_RCC_OscConfig+0x38c>
 80067ee:	6f2b      	ldr	r3, [r5, #112]	@ 0x70
 80067f0:	f241 3788 	movw	r7, #5000	@ 0x1388
 80067f4:	f023 0301 	bic.w	r3, r3, #1
 80067f8:	672b      	str	r3, [r5, #112]	@ 0x70
 80067fa:	6f2b      	ldr	r3, [r5, #112]	@ 0x70
 80067fc:	f023 0304 	bic.w	r3, r3, #4
 8006800:	672b      	str	r3, [r5, #112]	@ 0x70
 8006802:	f7ff fbd7 	bl	8005fb4 <HAL_GetTick>
 8006806:	4606      	mov	r6, r0
 8006808:	6f2b      	ldr	r3, [r5, #112]	@ 0x70
 800680a:	0798      	lsls	r0, r3, #30
 800680c:	f57f aea0 	bpl.w	8006550 <HAL_RCC_OscConfig+0xc0>
 8006810:	f7ff fbd0 	bl	8005fb4 <HAL_GetTick>
 8006814:	1b80      	subs	r0, r0, r6
 8006816:	42b8      	cmp	r0, r7
 8006818:	d9f6      	bls.n	8006808 <HAL_RCC_OscConfig+0x378>
 800681a:	e6ca      	b.n	80065b2 <HAL_RCC_OscConfig+0x122>
 800681c:	2b05      	cmp	r3, #5
 800681e:	6f2b      	ldr	r3, [r5, #112]	@ 0x70
 8006820:	d103      	bne.n	800682a <HAL_RCC_OscConfig+0x39a>
 8006822:	f043 0304 	orr.w	r3, r3, #4
 8006826:	672b      	str	r3, [r5, #112]	@ 0x70
 8006828:	e684      	b.n	8006534 <HAL_RCC_OscConfig+0xa4>
 800682a:	f023 0301 	bic.w	r3, r3, #1
 800682e:	672b      	str	r3, [r5, #112]	@ 0x70
 8006830:	6f2b      	ldr	r3, [r5, #112]	@ 0x70
 8006832:	f023 0304 	bic.w	r3, r3, #4
 8006836:	e680      	b.n	800653a <HAL_RCC_OscConfig+0xaa>
 8006838:	f7ff fbbc 	bl	8005fb4 <HAL_GetTick>
 800683c:	1b40      	subs	r0, r0, r5
 800683e:	42b8      	cmp	r0, r7
 8006840:	f67f ae82 	bls.w	8006548 <HAL_RCC_OscConfig+0xb8>
 8006844:	e6b5      	b.n	80065b2 <HAL_RCC_OscConfig+0x122>
 8006846:	4d67      	ldr	r5, [pc, #412]	@ (80069e4 <HAL_RCC_OscConfig+0x554>)
 8006848:	692b      	ldr	r3, [r5, #16]
 800684a:	f003 0338 	and.w	r3, r3, #56	@ 0x38
 800684e:	2b18      	cmp	r3, #24
 8006850:	d07a      	beq.n	8006948 <HAL_RCC_OscConfig+0x4b8>
 8006852:	682b      	ldr	r3, [r5, #0]
 8006854:	2902      	cmp	r1, #2
 8006856:	f023 7380 	bic.w	r3, r3, #16777216	@ 0x1000000
 800685a:	602b      	str	r3, [r5, #0]
 800685c:	d167      	bne.n	800692e <HAL_RCC_OscConfig+0x49e>
 800685e:	f7ff fba9 	bl	8005fb4 <HAL_GetTick>
 8006862:	4606      	mov	r6, r0
 8006864:	682b      	ldr	r3, [r5, #0]
 8006866:	0199      	lsls	r1, r3, #6
 8006868:	d45b      	bmi.n	8006922 <HAL_RCC_OscConfig+0x492>
 800686a:	6aab      	ldr	r3, [r5, #40]	@ 0x28
 800686c:	6aa2      	ldr	r2, [r4, #40]	@ 0x28
 800686e:	f423 737c 	bic.w	r3, r3, #1008	@ 0x3f0
 8006872:	f023 0303 	bic.w	r3, r3, #3
 8006876:	4313      	orrs	r3, r2
 8006878:	6ae2      	ldr	r2, [r4, #44]	@ 0x2c
 800687a:	ea43 1302 	orr.w	r3, r3, r2, lsl #4
 800687e:	62ab      	str	r3, [r5, #40]	@ 0x28
 8006880:	6b63      	ldr	r3, [r4, #52]	@ 0x34
 8006882:	6ba2      	ldr	r2, [r4, #56]	@ 0x38
 8006884:	3b01      	subs	r3, #1
 8006886:	3a01      	subs	r2, #1
 8006888:	025b      	lsls	r3, r3, #9
 800688a:	0412      	lsls	r2, r2, #16
 800688c:	b29b      	uxth	r3, r3
 800688e:	f402 02fe 	and.w	r2, r2, #8323072	@ 0x7f0000
 8006892:	4313      	orrs	r3, r2
 8006894:	6b22      	ldr	r2, [r4, #48]	@ 0x30
 8006896:	3a01      	subs	r2, #1
 8006898:	f3c2 0208 	ubfx	r2, r2, #0, #9
 800689c:	4313      	orrs	r3, r2
 800689e:	6be2      	ldr	r2, [r4, #60]	@ 0x3c
 80068a0:	3a01      	subs	r2, #1
 80068a2:	0612      	lsls	r2, r2, #24
 80068a4:	f002 42fe 	and.w	r2, r2, #2130706432	@ 0x7f000000
 80068a8:	4313      	orrs	r3, r2
 80068aa:	632b      	str	r3, [r5, #48]	@ 0x30
 80068ac:	6aeb      	ldr	r3, [r5, #44]	@ 0x2c
 80068ae:	f023 0301 	bic.w	r3, r3, #1
 80068b2:	62eb      	str	r3, [r5, #44]	@ 0x2c
 80068b4:	6b6b      	ldr	r3, [r5, #52]	@ 0x34
 80068b6:	6ca2      	ldr	r2, [r4, #72]	@ 0x48
 80068b8:	f423 437f 	bic.w	r3, r3, #65280	@ 0xff00
 80068bc:	f023 03f8 	bic.w	r3, r3, #248	@ 0xf8
 80068c0:	ea43 03c2 	orr.w	r3, r3, r2, lsl #3
 80068c4:	636b      	str	r3, [r5, #52]	@ 0x34
 80068c6:	6aeb      	ldr	r3, [r5, #44]	@ 0x2c
 80068c8:	6c22      	ldr	r2, [r4, #64]	@ 0x40
 80068ca:	f023 030c 	bic.w	r3, r3, #12
 80068ce:	4313      	orrs	r3, r2
 80068d0:	62eb      	str	r3, [r5, #44]	@ 0x2c
 80068d2:	6aeb      	ldr	r3, [r5, #44]	@ 0x2c
 80068d4:	6c62      	ldr	r2, [r4, #68]	@ 0x44
 80068d6:	f023 0302 	bic.w	r3, r3, #2
 80068da:	4313      	orrs	r3, r2
 80068dc:	62eb      	str	r3, [r5, #44]	@ 0x2c
 80068de:	6aeb      	ldr	r3, [r5, #44]	@ 0x2c
 80068e0:	f443 3380 	orr.w	r3, r3, #65536	@ 0x10000
 80068e4:	62eb      	str	r3, [r5, #44]	@ 0x2c
 80068e6:	6aeb      	ldr	r3, [r5, #44]	@ 0x2c
 80068e8:	f443 3300 	orr.w	r3, r3, #131072	@ 0x20000
 80068ec:	62eb      	str	r3, [r5, #44]	@ 0x2c
 80068ee:	6aeb      	ldr	r3, [r5, #44]	@ 0x2c
 80068f0:	f443 2380 	orr.w	r3, r3, #262144	@ 0x40000
 80068f4:	62eb      	str	r3, [r5, #44]	@ 0x2c
 80068f6:	6aeb      	ldr	r3, [r5, #44]	@ 0x2c
 80068f8:	f043 0301 	orr.w	r3, r3, #1
 80068fc:	62eb      	str	r3, [r5, #44]	@ 0x2c
 80068fe:	682b      	ldr	r3, [r5, #0]
 8006900:	f043 7380 	orr.w	r3, r3, #16777216	@ 0x1000000
 8006904:	602b      	str	r3, [r5, #0]
 8006906:	f7ff fb55 	bl	8005fb4 <HAL_GetTick>
 800690a:	4d36      	ldr	r5, [pc, #216]	@ (80069e4 <HAL_RCC_OscConfig+0x554>)
 800690c:	4604      	mov	r4, r0
 800690e:	682b      	ldr	r3, [r5, #0]
 8006910:	019a      	lsls	r2, r3, #6
 8006912:	f53f ae21 	bmi.w	8006558 <HAL_RCC_OscConfig+0xc8>
 8006916:	f7ff fb4d 	bl	8005fb4 <HAL_GetTick>
 800691a:	1b00      	subs	r0, r0, r4
 800691c:	2802      	cmp	r0, #2
 800691e:	d9f6      	bls.n	800690e <HAL_RCC_OscConfig+0x47e>
 8006920:	e647      	b.n	80065b2 <HAL_RCC_OscConfig+0x122>
 8006922:	f7ff fb47 	bl	8005fb4 <HAL_GetTick>
 8006926:	1b80      	subs	r0, r0, r6
 8006928:	2802      	cmp	r0, #2
 800692a:	d99b      	bls.n	8006864 <HAL_RCC_OscConfig+0x3d4>
 800692c:	e641      	b.n	80065b2 <HAL_RCC_OscConfig+0x122>
 800692e:	f7ff fb41 	bl	8005fb4 <HAL_GetTick>
 8006932:	4604      	mov	r4, r0
 8006934:	682b      	ldr	r3, [r5, #0]
 8006936:	019b      	lsls	r3, r3, #6
 8006938:	f57f ae0e 	bpl.w	8006558 <HAL_RCC_OscConfig+0xc8>
 800693c:	f7ff fb3a 	bl	8005fb4 <HAL_GetTick>
 8006940:	1b00      	subs	r0, r0, r4
 8006942:	2802      	cmp	r0, #2
 8006944:	d9f6      	bls.n	8006934 <HAL_RCC_OscConfig+0x4a4>
 8006946:	e634      	b.n	80065b2 <HAL_RCC_OscConfig+0x122>
 8006948:	2901      	cmp	r1, #1
 800694a:	6aaa      	ldr	r2, [r5, #40]	@ 0x28
 800694c:	6b2b      	ldr	r3, [r5, #48]	@ 0x30
 800694e:	f43f ae18 	beq.w	8006582 <HAL_RCC_OscConfig+0xf2>
 8006952:	f002 0103 	and.w	r1, r2, #3
 8006956:	6aa0      	ldr	r0, [r4, #40]	@ 0x28
 8006958:	4281      	cmp	r1, r0
 800695a:	f47f ae12 	bne.w	8006582 <HAL_RCC_OscConfig+0xf2>
 800695e:	f3c2 1205 	ubfx	r2, r2, #4, #6
 8006962:	6ae1      	ldr	r1, [r4, #44]	@ 0x2c
 8006964:	428a      	cmp	r2, r1
 8006966:	f47f ae0c 	bne.w	8006582 <HAL_RCC_OscConfig+0xf2>
 800696a:	6b22      	ldr	r2, [r4, #48]	@ 0x30
 800696c:	f3c3 0108 	ubfx	r1, r3, #0, #9
 8006970:	3a01      	subs	r2, #1
 8006972:	4291      	cmp	r1, r2
 8006974:	f47f ae05 	bne.w	8006582 <HAL_RCC_OscConfig+0xf2>
 8006978:	6b62      	ldr	r2, [r4, #52]	@ 0x34
 800697a:	f3c3 2146 	ubfx	r1, r3, #9, #7
 800697e:	3a01      	subs	r2, #1
 8006980:	4291      	cmp	r1, r2
 8006982:	f47f adfe 	bne.w	8006582 <HAL_RCC_OscConfig+0xf2>
 8006986:	6ba2      	ldr	r2, [r4, #56]	@ 0x38
 8006988:	f3c3 4106 	ubfx	r1, r3, #16, #7
 800698c:	3a01      	subs	r2, #1
 800698e:	4291      	cmp	r1, r2
 8006990:	f47f adf7 	bne.w	8006582 <HAL_RCC_OscConfig+0xf2>
 8006994:	6be2      	ldr	r2, [r4, #60]	@ 0x3c
 8006996:	f3c3 6306 	ubfx	r3, r3, #24, #7
 800699a:	3a01      	subs	r2, #1
 800699c:	4293      	cmp	r3, r2
 800699e:	f47f adf0 	bne.w	8006582 <HAL_RCC_OscConfig+0xf2>
 80069a2:	6b6b      	ldr	r3, [r5, #52]	@ 0x34
 80069a4:	6ca2      	ldr	r2, [r4, #72]	@ 0x48
 80069a6:	f3c3 03cc 	ubfx	r3, r3, #3, #13
 80069aa:	429a      	cmp	r2, r3
 80069ac:	f43f add4 	beq.w	8006558 <HAL_RCC_OscConfig+0xc8>
 80069b0:	4d0c      	ldr	r5, [pc, #48]	@ (80069e4 <HAL_RCC_OscConfig+0x554>)
 80069b2:	6aeb      	ldr	r3, [r5, #44]	@ 0x2c
 80069b4:	f023 0301 	bic.w	r3, r3, #1
 80069b8:	62eb      	str	r3, [r5, #44]	@ 0x2c
 80069ba:	f7ff fafb 	bl	8005fb4 <HAL_GetTick>
 80069be:	4606      	mov	r6, r0
 80069c0:	f7ff faf8 	bl	8005fb4 <HAL_GetTick>
 80069c4:	42b0      	cmp	r0, r6
 80069c6:	d0fb      	beq.n	80069c0 <HAL_RCC_OscConfig+0x530>
 80069c8:	6b6b      	ldr	r3, [r5, #52]	@ 0x34
 80069ca:	6ca2      	ldr	r2, [r4, #72]	@ 0x48
 80069cc:	f423 437f 	bic.w	r3, r3, #65280	@ 0xff00
 80069d0:	f023 03f8 	bic.w	r3, r3, #248	@ 0xf8
 80069d4:	ea43 03c2 	orr.w	r3, r3, r2, lsl #3
 80069d8:	636b      	str	r3, [r5, #52]	@ 0x34
 80069da:	6aeb      	ldr	r3, [r5, #44]	@ 0x2c
 80069dc:	f043 0301 	orr.w	r3, r3, #1
 80069e0:	62eb      	str	r3, [r5, #44]	@ 0x2c
 80069e2:	e5b9      	b.n	8006558 <HAL_RCC_OscConfig+0xc8>
 80069e4:	58024400 	.word	0x58024400

080069e8 <HAL_RCC_GetSysClockFreq>:
 80069e8:	4b49      	ldr	r3, [pc, #292]	@ (8006b10 <HAL_RCC_GetSysClockFreq+0x128>)
 80069ea:	691a      	ldr	r2, [r3, #16]
 80069ec:	f002 0238 	and.w	r2, r2, #56	@ 0x38
 80069f0:	2a10      	cmp	r2, #16
 80069f2:	b530      	push	{r4, r5, lr}
 80069f4:	f000 8088 	beq.w	8006b08 <HAL_RCC_GetSysClockFreq+0x120>
 80069f8:	2a18      	cmp	r2, #24
 80069fa:	d00c      	beq.n	8006a16 <HAL_RCC_GetSysClockFreq+0x2e>
 80069fc:	2a00      	cmp	r2, #0
 80069fe:	f040 8085 	bne.w	8006b0c <HAL_RCC_GetSysClockFreq+0x124>
 8006a02:	681a      	ldr	r2, [r3, #0]
 8006a04:	4843      	ldr	r0, [pc, #268]	@ (8006b14 <HAL_RCC_GetSysClockFreq+0x12c>)
 8006a06:	f012 0f20 	tst.w	r2, #32
 8006a0a:	d003      	beq.n	8006a14 <HAL_RCC_GetSysClockFreq+0x2c>
 8006a0c:	681b      	ldr	r3, [r3, #0]
 8006a0e:	f3c3 03c1 	ubfx	r3, r3, #3, #2
 8006a12:	40d8      	lsrs	r0, r3
 8006a14:	bd30      	pop	{r4, r5, pc}
 8006a16:	6a99      	ldr	r1, [r3, #40]	@ 0x28
 8006a18:	6a9d      	ldr	r5, [r3, #40]	@ 0x28
 8006a1a:	6adc      	ldr	r4, [r3, #44]	@ 0x2c
 8006a1c:	f415 7f7c 	tst.w	r5, #1008	@ 0x3f0
 8006a20:	f3c5 1005 	ubfx	r0, r5, #4, #6
 8006a24:	6b5a      	ldr	r2, [r3, #52]	@ 0x34
 8006a26:	d0f5      	beq.n	8006a14 <HAL_RCC_GetSysClockFreq+0x2c>
 8006a28:	f3c2 02cc 	ubfx	r2, r2, #3, #13
 8006a2c:	f004 0401 	and.w	r4, r4, #1
 8006a30:	f001 0103 	and.w	r1, r1, #3
 8006a34:	ee07 0a90 	vmov	s15, r0
 8006a38:	4362      	muls	r2, r4
 8006a3a:	eeb7 6a00 	vmov.f32	s12, #112	@ 0x3f800000  1.0
 8006a3e:	2901      	cmp	r1, #1
 8006a40:	eeb8 7ae7 	vcvt.f32.s32	s14, s15
 8006a44:	ee06 2a90 	vmov	s13, r2
 8006a48:	eefa 6ae9 	vcvt.f32.s32	s13, s13, #13
 8006a4c:	d04e      	beq.n	8006aec <HAL_RCC_GetSysClockFreq+0x104>
 8006a4e:	2902      	cmp	r1, #2
 8006a50:	d03e      	beq.n	8006ad0 <HAL_RCC_GetSysClockFreq+0xe8>
 8006a52:	2900      	cmp	r1, #0
 8006a54:	d14a      	bne.n	8006aec <HAL_RCC_GetSysClockFreq+0x104>
 8006a56:	681a      	ldr	r2, [r3, #0]
 8006a58:	0692      	lsls	r2, r2, #26
 8006a5a:	d527      	bpl.n	8006aac <HAL_RCC_GetSysClockFreq+0xc4>
 8006a5c:	6819      	ldr	r1, [r3, #0]
 8006a5e:	4a2d      	ldr	r2, [pc, #180]	@ (8006b14 <HAL_RCC_GetSysClockFreq+0x12c>)
 8006a60:	f3c1 01c1 	ubfx	r1, r1, #3, #2
 8006a64:	6b1b      	ldr	r3, [r3, #48]	@ 0x30
 8006a66:	40ca      	lsrs	r2, r1
 8006a68:	f3c3 0308 	ubfx	r3, r3, #0, #9
 8006a6c:	ee07 2a90 	vmov	s15, r2
 8006a70:	eef8 5ae7 	vcvt.f32.s32	s11, s15
 8006a74:	eec5 7a87 	vdiv.f32	s15, s11, s14
 8006a78:	ee07 3a10 	vmov	s14, r3
 8006a7c:	eeb8 7ac7 	vcvt.f32.s32	s14, s14
 8006a80:	ee37 7a26 	vadd.f32	s14, s14, s13
 8006a84:	ee37 7a06 	vadd.f32	s14, s14, s12
 8006a88:	ee67 7a87 	vmul.f32	s15, s15, s14
 8006a8c:	4b20      	ldr	r3, [pc, #128]	@ (8006b10 <HAL_RCC_GetSysClockFreq+0x128>)
 8006a8e:	6b1b      	ldr	r3, [r3, #48]	@ 0x30
 8006a90:	f3c3 2346 	ubfx	r3, r3, #9, #7
 8006a94:	3301      	adds	r3, #1
 8006a96:	ee07 3a10 	vmov	s14, r3
 8006a9a:	eef8 6ac7 	vcvt.f32.s32	s13, s14
 8006a9e:	ee87 7aa6 	vdiv.f32	s14, s15, s13
 8006aa2:	eefc 7ac7 	vcvt.u32.f32	s15, s14
 8006aa6:	ee17 0a90 	vmov	r0, s15
 8006aaa:	e7b3      	b.n	8006a14 <HAL_RCC_GetSysClockFreq+0x2c>
 8006aac:	6b1b      	ldr	r3, [r3, #48]	@ 0x30
 8006aae:	f3c3 0308 	ubfx	r3, r3, #0, #9
 8006ab2:	ee07 3a90 	vmov	s15, r3
 8006ab6:	eef8 7ae7 	vcvt.f32.s32	s15, s15
 8006aba:	ee77 7aa6 	vadd.f32	s15, s15, s13
 8006abe:	ee77 7a86 	vadd.f32	s15, s15, s12
 8006ac2:	ed9f 6a15 	vldr	s12, [pc, #84]	@ 8006b18 <HAL_RCC_GetSysClockFreq+0x130>
 8006ac6:	eec6 6a07 	vdiv.f32	s13, s12, s14
 8006aca:	ee67 7aa6 	vmul.f32	s15, s15, s13
 8006ace:	e7dd      	b.n	8006a8c <HAL_RCC_GetSysClockFreq+0xa4>
 8006ad0:	6b1b      	ldr	r3, [r3, #48]	@ 0x30
 8006ad2:	f3c3 0308 	ubfx	r3, r3, #0, #9
 8006ad6:	ee07 3a90 	vmov	s15, r3
 8006ada:	eef8 7ae7 	vcvt.f32.s32	s15, s15
 8006ade:	ee77 7aa6 	vadd.f32	s15, s15, s13
 8006ae2:	ee77 7a86 	vadd.f32	s15, s15, s12
 8006ae6:	ed9f 6a0d 	vldr	s12, [pc, #52]	@ 8006b1c <HAL_RCC_GetSysClockFreq+0x134>
 8006aea:	e7ec      	b.n	8006ac6 <HAL_RCC_GetSysClockFreq+0xde>
 8006aec:	6b1b      	ldr	r3, [r3, #48]	@ 0x30
 8006aee:	f3c3 0308 	ubfx	r3, r3, #0, #9
 8006af2:	ee07 3a90 	vmov	s15, r3
 8006af6:	eef8 7ae7 	vcvt.f32.s32	s15, s15
 8006afa:	ee77 7aa6 	vadd.f32	s15, s15, s13
 8006afe:	ee77 7a86 	vadd.f32	s15, s15, s12
 8006b02:	ed9f 6a07 	vldr	s12, [pc, #28]	@ 8006b20 <HAL_RCC_GetSysClockFreq+0x138>
 8006b06:	e7de      	b.n	8006ac6 <HAL_RCC_GetSysClockFreq+0xde>
 8006b08:	4806      	ldr	r0, [pc, #24]	@ (8006b24 <HAL_RCC_GetSysClockFreq+0x13c>)
 8006b0a:	e783      	b.n	8006a14 <HAL_RCC_GetSysClockFreq+0x2c>
 8006b0c:	4806      	ldr	r0, [pc, #24]	@ (8006b28 <HAL_RCC_GetSysClockFreq+0x140>)
 8006b0e:	e781      	b.n	8006a14 <HAL_RCC_GetSysClockFreq+0x2c>
 8006b10:	58024400 	.word	0x58024400
 8006b14:	03d09000 	.word	0x03d09000
 8006b18:	4c742400 	.word	0x4c742400
 8006b1c:	4bbebc20 	.word	0x4bbebc20
 8006b20:	4a742400 	.word	0x4a742400
 8006b24:	017d7840 	.word	0x017d7840
 8006b28:	003d0900 	.word	0x003d0900

08006b2c <HAL_RCC_ClockConfig>:
 8006b2c:	e92d 41f0 	stmdb	sp!, {r4, r5, r6, r7, r8, lr}
 8006b30:	460d      	mov	r5, r1
 8006b32:	4604      	mov	r4, r0
 8006b34:	b910      	cbnz	r0, 8006b3c <HAL_RCC_ClockConfig+0x10>
 8006b36:	2001      	movs	r0, #1
 8006b38:	e8bd 81f0 	ldmia.w	sp!, {r4, r5, r6, r7, r8, pc}
 8006b3c:	4a88      	ldr	r2, [pc, #544]	@ (8006d60 <HAL_RCC_ClockConfig+0x234>)
 8006b3e:	6813      	ldr	r3, [r2, #0]
 8006b40:	f003 030f 	and.w	r3, r3, #15
 8006b44:	428b      	cmp	r3, r1
 8006b46:	f0c0 8093 	bcc.w	8006c70 <HAL_RCC_ClockConfig+0x144>
 8006b4a:	6823      	ldr	r3, [r4, #0]
 8006b4c:	075f      	lsls	r7, r3, #29
 8006b4e:	f100 809b 	bmi.w	8006c88 <HAL_RCC_ClockConfig+0x15c>
 8006b52:	071e      	lsls	r6, r3, #28
 8006b54:	d50b      	bpl.n	8006b6e <HAL_RCC_ClockConfig+0x42>
 8006b56:	4983      	ldr	r1, [pc, #524]	@ (8006d64 <HAL_RCC_ClockConfig+0x238>)
 8006b58:	6960      	ldr	r0, [r4, #20]
 8006b5a:	69ca      	ldr	r2, [r1, #28]
 8006b5c:	f002 0270 	and.w	r2, r2, #112	@ 0x70
 8006b60:	4290      	cmp	r0, r2
 8006b62:	d904      	bls.n	8006b6e <HAL_RCC_ClockConfig+0x42>
 8006b64:	69ca      	ldr	r2, [r1, #28]
 8006b66:	f022 0270 	bic.w	r2, r2, #112	@ 0x70
 8006b6a:	4302      	orrs	r2, r0
 8006b6c:	61ca      	str	r2, [r1, #28]
 8006b6e:	06d8      	lsls	r0, r3, #27
 8006b70:	d50b      	bpl.n	8006b8a <HAL_RCC_ClockConfig+0x5e>
 8006b72:	497c      	ldr	r1, [pc, #496]	@ (8006d64 <HAL_RCC_ClockConfig+0x238>)
 8006b74:	69a0      	ldr	r0, [r4, #24]
 8006b76:	69ca      	ldr	r2, [r1, #28]
 8006b78:	f402 62e0 	and.w	r2, r2, #1792	@ 0x700
 8006b7c:	4290      	cmp	r0, r2
 8006b7e:	d904      	bls.n	8006b8a <HAL_RCC_ClockConfig+0x5e>
 8006b80:	69ca      	ldr	r2, [r1, #28]
 8006b82:	f422 62e0 	bic.w	r2, r2, #1792	@ 0x700
 8006b86:	4302      	orrs	r2, r0
 8006b88:	61ca      	str	r2, [r1, #28]
 8006b8a:	0699      	lsls	r1, r3, #26
 8006b8c:	d50b      	bpl.n	8006ba6 <HAL_RCC_ClockConfig+0x7a>
 8006b8e:	4975      	ldr	r1, [pc, #468]	@ (8006d64 <HAL_RCC_ClockConfig+0x238>)
 8006b90:	69e0      	ldr	r0, [r4, #28]
 8006b92:	6a0a      	ldr	r2, [r1, #32]
 8006b94:	f002 0270 	and.w	r2, r2, #112	@ 0x70
 8006b98:	4290      	cmp	r0, r2
 8006b9a:	d904      	bls.n	8006ba6 <HAL_RCC_ClockConfig+0x7a>
 8006b9c:	6a0a      	ldr	r2, [r1, #32]
 8006b9e:	f022 0270 	bic.w	r2, r2, #112	@ 0x70
 8006ba2:	4302      	orrs	r2, r0
 8006ba4:	620a      	str	r2, [r1, #32]
 8006ba6:	079a      	lsls	r2, r3, #30
 8006ba8:	d50b      	bpl.n	8006bc2 <HAL_RCC_ClockConfig+0x96>
 8006baa:	496e      	ldr	r1, [pc, #440]	@ (8006d64 <HAL_RCC_ClockConfig+0x238>)
 8006bac:	68e0      	ldr	r0, [r4, #12]
 8006bae:	698a      	ldr	r2, [r1, #24]
 8006bb0:	f002 020f 	and.w	r2, r2, #15
 8006bb4:	4290      	cmp	r0, r2
 8006bb6:	d904      	bls.n	8006bc2 <HAL_RCC_ClockConfig+0x96>
 8006bb8:	698a      	ldr	r2, [r1, #24]
 8006bba:	f022 020f 	bic.w	r2, r2, #15
 8006bbe:	4302      	orrs	r2, r0
 8006bc0:	618a      	str	r2, [r1, #24]
 8006bc2:	07df      	lsls	r7, r3, #31
 8006bc4:	d46e      	bmi.n	8006ca4 <HAL_RCC_ClockConfig+0x178>
 8006bc6:	6823      	ldr	r3, [r4, #0]
 8006bc8:	079e      	lsls	r6, r3, #30
 8006bca:	f100 80a1 	bmi.w	8006d10 <HAL_RCC_ClockConfig+0x1e4>
 8006bce:	4964      	ldr	r1, [pc, #400]	@ (8006d60 <HAL_RCC_ClockConfig+0x234>)
 8006bd0:	680a      	ldr	r2, [r1, #0]
 8006bd2:	f002 020f 	and.w	r2, r2, #15
 8006bd6:	42aa      	cmp	r2, r5
 8006bd8:	f200 80a8 	bhi.w	8006d2c <HAL_RCC_ClockConfig+0x200>
 8006bdc:	0758      	lsls	r0, r3, #29
 8006bde:	f100 80b1 	bmi.w	8006d44 <HAL_RCC_ClockConfig+0x218>
 8006be2:	0719      	lsls	r1, r3, #28
 8006be4:	d50b      	bpl.n	8006bfe <HAL_RCC_ClockConfig+0xd2>
 8006be6:	495f      	ldr	r1, [pc, #380]	@ (8006d64 <HAL_RCC_ClockConfig+0x238>)
 8006be8:	6960      	ldr	r0, [r4, #20]
 8006bea:	69ca      	ldr	r2, [r1, #28]
 8006bec:	f002 0270 	and.w	r2, r2, #112	@ 0x70
 8006bf0:	4290      	cmp	r0, r2
 8006bf2:	d204      	bcs.n	8006bfe <HAL_RCC_ClockConfig+0xd2>
 8006bf4:	69ca      	ldr	r2, [r1, #28]
 8006bf6:	f022 0270 	bic.w	r2, r2, #112	@ 0x70
 8006bfa:	4302      	orrs	r2, r0
 8006bfc:	61ca      	str	r2, [r1, #28]
 8006bfe:	06da      	lsls	r2, r3, #27
 8006c00:	d50b      	bpl.n	8006c1a <HAL_RCC_ClockConfig+0xee>
 8006c02:	4958      	ldr	r1, [pc, #352]	@ (8006d64 <HAL_RCC_ClockConfig+0x238>)
 8006c04:	69a0      	ldr	r0, [r4, #24]
 8006c06:	69ca      	ldr	r2, [r1, #28]
 8006c08:	f402 62e0 	and.w	r2, r2, #1792	@ 0x700
 8006c0c:	4290      	cmp	r0, r2
 8006c0e:	d204      	bcs.n	8006c1a <HAL_RCC_ClockConfig+0xee>
 8006c10:	69ca      	ldr	r2, [r1, #28]
 8006c12:	f422 62e0 	bic.w	r2, r2, #1792	@ 0x700
 8006c16:	4302      	orrs	r2, r0
 8006c18:	61ca      	str	r2, [r1, #28]
 8006c1a:	069b      	lsls	r3, r3, #26
 8006c1c:	d50b      	bpl.n	8006c36 <HAL_RCC_ClockConfig+0x10a>
 8006c1e:	4a51      	ldr	r2, [pc, #324]	@ (8006d64 <HAL_RCC_ClockConfig+0x238>)
 8006c20:	69e1      	ldr	r1, [r4, #28]
 8006c22:	6a13      	ldr	r3, [r2, #32]
 8006c24:	f003 0370 	and.w	r3, r3, #112	@ 0x70
 8006c28:	4299      	cmp	r1, r3
 8006c2a:	d204      	bcs.n	8006c36 <HAL_RCC_ClockConfig+0x10a>
 8006c2c:	6a13      	ldr	r3, [r2, #32]
 8006c2e:	f023 0370 	bic.w	r3, r3, #112	@ 0x70
 8006c32:	430b      	orrs	r3, r1
 8006c34:	6213      	str	r3, [r2, #32]
 8006c36:	f7ff fed7 	bl	80069e8 <HAL_RCC_GetSysClockFreq>
 8006c3a:	494a      	ldr	r1, [pc, #296]	@ (8006d64 <HAL_RCC_ClockConfig+0x238>)
 8006c3c:	4a4a      	ldr	r2, [pc, #296]	@ (8006d68 <HAL_RCC_ClockConfig+0x23c>)
 8006c3e:	698b      	ldr	r3, [r1, #24]
 8006c40:	f3c3 2303 	ubfx	r3, r3, #8, #4
 8006c44:	5cd3      	ldrb	r3, [r2, r3]
 8006c46:	f003 031f 	and.w	r3, r3, #31
 8006c4a:	40d8      	lsrs	r0, r3
 8006c4c:	698b      	ldr	r3, [r1, #24]
 8006c4e:	f003 030f 	and.w	r3, r3, #15
 8006c52:	5cd3      	ldrb	r3, [r2, r3]
 8006c54:	4a45      	ldr	r2, [pc, #276]	@ (8006d6c <HAL_RCC_ClockConfig+0x240>)
 8006c56:	f003 031f 	and.w	r3, r3, #31
 8006c5a:	fa20 f303 	lsr.w	r3, r0, r3
 8006c5e:	6013      	str	r3, [r2, #0]
 8006c60:	4b43      	ldr	r3, [pc, #268]	@ (8006d70 <HAL_RCC_ClockConfig+0x244>)
 8006c62:	6018      	str	r0, [r3, #0]
 8006c64:	4b43      	ldr	r3, [pc, #268]	@ (8006d74 <HAL_RCC_ClockConfig+0x248>)
 8006c66:	e8bd 41f0 	ldmia.w	sp!, {r4, r5, r6, r7, r8, lr}
 8006c6a:	6818      	ldr	r0, [r3, #0]
 8006c6c:	f7ff b942 	b.w	8005ef4 <HAL_InitTick>
 8006c70:	6813      	ldr	r3, [r2, #0]
 8006c72:	f023 030f 	bic.w	r3, r3, #15
 8006c76:	430b      	orrs	r3, r1
 8006c78:	6013      	str	r3, [r2, #0]
 8006c7a:	6813      	ldr	r3, [r2, #0]
 8006c7c:	f003 030f 	and.w	r3, r3, #15
 8006c80:	428b      	cmp	r3, r1
 8006c82:	f47f af58 	bne.w	8006b36 <HAL_RCC_ClockConfig+0xa>
 8006c86:	e760      	b.n	8006b4a <HAL_RCC_ClockConfig+0x1e>
 8006c88:	4936      	ldr	r1, [pc, #216]	@ (8006d64 <HAL_RCC_ClockConfig+0x238>)
 8006c8a:	6920      	ldr	r0, [r4, #16]
 8006c8c:	698a      	ldr	r2, [r1, #24]
 8006c8e:	f002 0270 	and.w	r2, r2, #112	@ 0x70
 8006c92:	4290      	cmp	r0, r2
 8006c94:	f67f af5d 	bls.w	8006b52 <HAL_RCC_ClockConfig+0x26>
 8006c98:	698a      	ldr	r2, [r1, #24]
 8006c9a:	f022 0270 	bic.w	r2, r2, #112	@ 0x70
 8006c9e:	4302      	orrs	r2, r0
 8006ca0:	618a      	str	r2, [r1, #24]
 8006ca2:	e756      	b.n	8006b52 <HAL_RCC_ClockConfig+0x26>
 8006ca4:	4b2f      	ldr	r3, [pc, #188]	@ (8006d64 <HAL_RCC_ClockConfig+0x238>)
 8006ca6:	68a1      	ldr	r1, [r4, #8]
 8006ca8:	699a      	ldr	r2, [r3, #24]
 8006caa:	f422 6270 	bic.w	r2, r2, #3840	@ 0xf00
 8006cae:	430a      	orrs	r2, r1
 8006cb0:	619a      	str	r2, [r3, #24]
 8006cb2:	6861      	ldr	r1, [r4, #4]
 8006cb4:	681a      	ldr	r2, [r3, #0]
 8006cb6:	2902      	cmp	r1, #2
 8006cb8:	d11d      	bne.n	8006cf6 <HAL_RCC_ClockConfig+0x1ca>
 8006cba:	f412 3f00 	tst.w	r2, #131072	@ 0x20000
 8006cbe:	f43f af3a 	beq.w	8006b36 <HAL_RCC_ClockConfig+0xa>
 8006cc2:	691a      	ldr	r2, [r3, #16]
 8006cc4:	f241 3888 	movw	r8, #5000	@ 0x1388
 8006cc8:	4f26      	ldr	r7, [pc, #152]	@ (8006d64 <HAL_RCC_ClockConfig+0x238>)
 8006cca:	f022 0207 	bic.w	r2, r2, #7
 8006cce:	430a      	orrs	r2, r1
 8006cd0:	611a      	str	r2, [r3, #16]
 8006cd2:	f7ff f96f 	bl	8005fb4 <HAL_GetTick>
 8006cd6:	4606      	mov	r6, r0
 8006cd8:	693b      	ldr	r3, [r7, #16]
 8006cda:	6862      	ldr	r2, [r4, #4]
 8006cdc:	f003 0338 	and.w	r3, r3, #56	@ 0x38
 8006ce0:	ebb3 0fc2 	cmp.w	r3, r2, lsl #3
 8006ce4:	f43f af6f 	beq.w	8006bc6 <HAL_RCC_ClockConfig+0x9a>
 8006ce8:	f7ff f964 	bl	8005fb4 <HAL_GetTick>
 8006cec:	1b80      	subs	r0, r0, r6
 8006cee:	4540      	cmp	r0, r8
 8006cf0:	d9f2      	bls.n	8006cd8 <HAL_RCC_ClockConfig+0x1ac>
 8006cf2:	2003      	movs	r0, #3
 8006cf4:	e720      	b.n	8006b38 <HAL_RCC_ClockConfig+0xc>
 8006cf6:	2903      	cmp	r1, #3
 8006cf8:	d102      	bne.n	8006d00 <HAL_RCC_ClockConfig+0x1d4>
 8006cfa:	f012 7f00 	tst.w	r2, #33554432	@ 0x2000000
 8006cfe:	e7de      	b.n	8006cbe <HAL_RCC_ClockConfig+0x192>
 8006d00:	2901      	cmp	r1, #1
 8006d02:	d102      	bne.n	8006d0a <HAL_RCC_ClockConfig+0x1de>
 8006d04:	f412 7f80 	tst.w	r2, #256	@ 0x100
 8006d08:	e7d9      	b.n	8006cbe <HAL_RCC_ClockConfig+0x192>
 8006d0a:	f012 0f04 	tst.w	r2, #4
 8006d0e:	e7d6      	b.n	8006cbe <HAL_RCC_ClockConfig+0x192>
 8006d10:	4914      	ldr	r1, [pc, #80]	@ (8006d64 <HAL_RCC_ClockConfig+0x238>)
 8006d12:	68e0      	ldr	r0, [r4, #12]
 8006d14:	698a      	ldr	r2, [r1, #24]
 8006d16:	f002 020f 	and.w	r2, r2, #15
 8006d1a:	4290      	cmp	r0, r2
 8006d1c:	f4bf af57 	bcs.w	8006bce <HAL_RCC_ClockConfig+0xa2>
 8006d20:	698a      	ldr	r2, [r1, #24]
 8006d22:	f022 020f 	bic.w	r2, r2, #15
 8006d26:	4302      	orrs	r2, r0
 8006d28:	618a      	str	r2, [r1, #24]
 8006d2a:	e750      	b.n	8006bce <HAL_RCC_ClockConfig+0xa2>
 8006d2c:	680a      	ldr	r2, [r1, #0]
 8006d2e:	f022 020f 	bic.w	r2, r2, #15
 8006d32:	432a      	orrs	r2, r5
 8006d34:	600a      	str	r2, [r1, #0]
 8006d36:	680a      	ldr	r2, [r1, #0]
 8006d38:	f002 020f 	and.w	r2, r2, #15
 8006d3c:	42aa      	cmp	r2, r5
 8006d3e:	f47f aefa 	bne.w	8006b36 <HAL_RCC_ClockConfig+0xa>
 8006d42:	e74b      	b.n	8006bdc <HAL_RCC_ClockConfig+0xb0>
 8006d44:	4907      	ldr	r1, [pc, #28]	@ (8006d64 <HAL_RCC_ClockConfig+0x238>)
 8006d46:	6920      	ldr	r0, [r4, #16]
 8006d48:	698a      	ldr	r2, [r1, #24]
 8006d4a:	f002 0270 	and.w	r2, r2, #112	@ 0x70
 8006d4e:	4290      	cmp	r0, r2
 8006d50:	f4bf af47 	bcs.w	8006be2 <HAL_RCC_ClockConfig+0xb6>
 8006d54:	698a      	ldr	r2, [r1, #24]
 8006d56:	f022 0270 	bic.w	r2, r2, #112	@ 0x70
 8006d5a:	4302      	orrs	r2, r0
 8006d5c:	618a      	str	r2, [r1, #24]
 8006d5e:	e740      	b.n	8006be2 <HAL_RCC_ClockConfig+0xb6>
 8006d60:	52002000 	.word	0x52002000
 8006d64:	58024400 	.word	0x58024400
 8006d68:	0800dd58 	.word	0x0800dd58
 8006d6c:	24000000 	.word	0x24000000
 8006d70:	24000004 	.word	0x24000004
 8006d74:	2400000c 	.word	0x2400000c

08006d78 <HAL_RCC_GetHCLKFreq>:
 8006d78:	b508      	push	{r3, lr}
 8006d7a:	f7ff fe35 	bl	80069e8 <HAL_RCC_GetSysClockFreq>
 8006d7e:	4a0b      	ldr	r2, [pc, #44]	@ (8006dac <HAL_RCC_GetHCLKFreq+0x34>)
 8006d80:	490b      	ldr	r1, [pc, #44]	@ (8006db0 <HAL_RCC_GetHCLKFreq+0x38>)
 8006d82:	6993      	ldr	r3, [r2, #24]
 8006d84:	6992      	ldr	r2, [r2, #24]
 8006d86:	f3c3 2303 	ubfx	r3, r3, #8, #4
 8006d8a:	f002 020f 	and.w	r2, r2, #15
 8006d8e:	5ccb      	ldrb	r3, [r1, r3]
 8006d90:	f003 031f 	and.w	r3, r3, #31
 8006d94:	fa20 f303 	lsr.w	r3, r0, r3
 8006d98:	5c88      	ldrb	r0, [r1, r2]
 8006d9a:	4a06      	ldr	r2, [pc, #24]	@ (8006db4 <HAL_RCC_GetHCLKFreq+0x3c>)
 8006d9c:	f000 001f 	and.w	r0, r0, #31
 8006da0:	fa23 f000 	lsr.w	r0, r3, r0
 8006da4:	6010      	str	r0, [r2, #0]
 8006da6:	4a04      	ldr	r2, [pc, #16]	@ (8006db8 <HAL_RCC_GetHCLKFreq+0x40>)
 8006da8:	6013      	str	r3, [r2, #0]
 8006daa:	bd08      	pop	{r3, pc}
 8006dac:	58024400 	.word	0x58024400
 8006db0:	0800dd58 	.word	0x0800dd58
 8006db4:	24000000 	.word	0x24000000
 8006db8:	24000004 	.word	0x24000004

08006dbc <HAL_RCC_GetPCLK1Freq>:
 8006dbc:	b508      	push	{r3, lr}
 8006dbe:	f7ff ffdb 	bl	8006d78 <HAL_RCC_GetHCLKFreq>
 8006dc2:	4b05      	ldr	r3, [pc, #20]	@ (8006dd8 <HAL_RCC_GetPCLK1Freq+0x1c>)
 8006dc4:	4a05      	ldr	r2, [pc, #20]	@ (8006ddc <HAL_RCC_GetPCLK1Freq+0x20>)
 8006dc6:	69db      	ldr	r3, [r3, #28]
 8006dc8:	f3c3 1302 	ubfx	r3, r3, #4, #3
 8006dcc:	5cd3      	ldrb	r3, [r2, r3]
 8006dce:	f003 031f 	and.w	r3, r3, #31
 8006dd2:	40d8      	lsrs	r0, r3
 8006dd4:	bd08      	pop	{r3, pc}
 8006dd6:	bf00      	nop
 8006dd8:	58024400 	.word	0x58024400
 8006ddc:	0800dd58 	.word	0x0800dd58

08006de0 <HAL_RCC_GetPCLK2Freq>:
 8006de0:	b508      	push	{r3, lr}
 8006de2:	f7ff ffc9 	bl	8006d78 <HAL_RCC_GetHCLKFreq>
 8006de6:	4b05      	ldr	r3, [pc, #20]	@ (8006dfc <HAL_RCC_GetPCLK2Freq+0x1c>)
 8006de8:	4a05      	ldr	r2, [pc, #20]	@ (8006e00 <HAL_RCC_GetPCLK2Freq+0x20>)
 8006dea:	69db      	ldr	r3, [r3, #28]
 8006dec:	f3c3 2302 	ubfx	r3, r3, #8, #3
 8006df0:	5cd3      	ldrb	r3, [r2, r3]
 8006df2:	f003 031f 	and.w	r3, r3, #31
 8006df6:	40d8      	lsrs	r0, r3
 8006df8:	bd08      	pop	{r3, pc}
 8006dfa:	bf00      	nop
 8006dfc:	58024400 	.word	0x58024400
 8006e00:	0800dd58 	.word	0x0800dd58

08006e04 <RCCEx_PLL2_Config>:
 8006e04:	b5f8      	push	{r3, r4, r5, r6, r7, lr}
 8006e06:	4c3a      	ldr	r4, [pc, #232]	@ (8006ef0 <RCCEx_PLL2_Config+0xec>)
 8006e08:	4606      	mov	r6, r0
 8006e0a:	460d      	mov	r5, r1
 8006e0c:	6aa3      	ldr	r3, [r4, #40]	@ 0x28
 8006e0e:	f003 0303 	and.w	r3, r3, #3
 8006e12:	2b03      	cmp	r3, #3
 8006e14:	d069      	beq.n	8006eea <RCCEx_PLL2_Config+0xe6>
 8006e16:	6823      	ldr	r3, [r4, #0]
 8006e18:	f023 6380 	bic.w	r3, r3, #67108864	@ 0x4000000
 8006e1c:	6023      	str	r3, [r4, #0]
 8006e1e:	f7ff f8c9 	bl	8005fb4 <HAL_GetTick>
 8006e22:	4607      	mov	r7, r0
 8006e24:	6823      	ldr	r3, [r4, #0]
 8006e26:	011a      	lsls	r2, r3, #4
 8006e28:	d44b      	bmi.n	8006ec2 <RCCEx_PLL2_Config+0xbe>
 8006e2a:	6aa3      	ldr	r3, [r4, #40]	@ 0x28
 8006e2c:	6832      	ldr	r2, [r6, #0]
 8006e2e:	f423 337c 	bic.w	r3, r3, #258048	@ 0x3f000
 8006e32:	ea43 3302 	orr.w	r3, r3, r2, lsl #12
 8006e36:	62a3      	str	r3, [r4, #40]	@ 0x28
 8006e38:	68b3      	ldr	r3, [r6, #8]
 8006e3a:	68f2      	ldr	r2, [r6, #12]
 8006e3c:	3b01      	subs	r3, #1
 8006e3e:	3a01      	subs	r2, #1
 8006e40:	025b      	lsls	r3, r3, #9
 8006e42:	0412      	lsls	r2, r2, #16
 8006e44:	b29b      	uxth	r3, r3
 8006e46:	f402 02fe 	and.w	r2, r2, #8323072	@ 0x7f0000
 8006e4a:	4313      	orrs	r3, r2
 8006e4c:	6872      	ldr	r2, [r6, #4]
 8006e4e:	3a01      	subs	r2, #1
 8006e50:	f3c2 0208 	ubfx	r2, r2, #0, #9
 8006e54:	4313      	orrs	r3, r2
 8006e56:	6932      	ldr	r2, [r6, #16]
 8006e58:	3a01      	subs	r2, #1
 8006e5a:	0612      	lsls	r2, r2, #24
 8006e5c:	f002 42fe 	and.w	r2, r2, #2130706432	@ 0x7f000000
 8006e60:	4313      	orrs	r3, r2
 8006e62:	63a3      	str	r3, [r4, #56]	@ 0x38
 8006e64:	6ae3      	ldr	r3, [r4, #44]	@ 0x2c
 8006e66:	6972      	ldr	r2, [r6, #20]
 8006e68:	f023 03c0 	bic.w	r3, r3, #192	@ 0xc0
 8006e6c:	4313      	orrs	r3, r2
 8006e6e:	62e3      	str	r3, [r4, #44]	@ 0x2c
 8006e70:	6ae3      	ldr	r3, [r4, #44]	@ 0x2c
 8006e72:	69b2      	ldr	r2, [r6, #24]
 8006e74:	f023 0320 	bic.w	r3, r3, #32
 8006e78:	4313      	orrs	r3, r2
 8006e7a:	62e3      	str	r3, [r4, #44]	@ 0x2c
 8006e7c:	6ae3      	ldr	r3, [r4, #44]	@ 0x2c
 8006e7e:	f023 0310 	bic.w	r3, r3, #16
 8006e82:	62e3      	str	r3, [r4, #44]	@ 0x2c
 8006e84:	6be3      	ldr	r3, [r4, #60]	@ 0x3c
 8006e86:	69f2      	ldr	r2, [r6, #28]
 8006e88:	f423 437f 	bic.w	r3, r3, #65280	@ 0xff00
 8006e8c:	f023 03f8 	bic.w	r3, r3, #248	@ 0xf8
 8006e90:	ea43 03c2 	orr.w	r3, r3, r2, lsl #3
 8006e94:	63e3      	str	r3, [r4, #60]	@ 0x3c
 8006e96:	6ae3      	ldr	r3, [r4, #44]	@ 0x2c
 8006e98:	f043 0310 	orr.w	r3, r3, #16
 8006e9c:	62e3      	str	r3, [r4, #44]	@ 0x2c
 8006e9e:	6ae3      	ldr	r3, [r4, #44]	@ 0x2c
 8006ea0:	b9b5      	cbnz	r5, 8006ed0 <RCCEx_PLL2_Config+0xcc>
 8006ea2:	f443 2300 	orr.w	r3, r3, #524288	@ 0x80000
 8006ea6:	62e3      	str	r3, [r4, #44]	@ 0x2c
 8006ea8:	4c11      	ldr	r4, [pc, #68]	@ (8006ef0 <RCCEx_PLL2_Config+0xec>)
 8006eaa:	6823      	ldr	r3, [r4, #0]
 8006eac:	f043 6380 	orr.w	r3, r3, #67108864	@ 0x4000000
 8006eb0:	6023      	str	r3, [r4, #0]
 8006eb2:	f7ff f87f 	bl	8005fb4 <HAL_GetTick>
 8006eb6:	4605      	mov	r5, r0
 8006eb8:	6823      	ldr	r3, [r4, #0]
 8006eba:	011b      	lsls	r3, r3, #4
 8006ebc:	d50f      	bpl.n	8006ede <RCCEx_PLL2_Config+0xda>
 8006ebe:	2000      	movs	r0, #0
 8006ec0:	e005      	b.n	8006ece <RCCEx_PLL2_Config+0xca>
 8006ec2:	f7ff f877 	bl	8005fb4 <HAL_GetTick>
 8006ec6:	1bc0      	subs	r0, r0, r7
 8006ec8:	2802      	cmp	r0, #2
 8006eca:	d9ab      	bls.n	8006e24 <RCCEx_PLL2_Config+0x20>
 8006ecc:	2003      	movs	r0, #3
 8006ece:	bdf8      	pop	{r3, r4, r5, r6, r7, pc}
 8006ed0:	2d01      	cmp	r5, #1
 8006ed2:	bf0c      	ite	eq
 8006ed4:	f443 1380 	orreq.w	r3, r3, #1048576	@ 0x100000
 8006ed8:	f443 1300 	orrne.w	r3, r3, #2097152	@ 0x200000
 8006edc:	e7e3      	b.n	8006ea6 <RCCEx_PLL2_Config+0xa2>
 8006ede:	f7ff f869 	bl	8005fb4 <HAL_GetTick>
 8006ee2:	1b40      	subs	r0, r0, r5
 8006ee4:	2802      	cmp	r0, #2
 8006ee6:	d9e7      	bls.n	8006eb8 <RCCEx_PLL2_Config+0xb4>
 8006ee8:	e7f0      	b.n	8006ecc <RCCEx_PLL2_Config+0xc8>
 8006eea:	2001      	movs	r0, #1
 8006eec:	e7ef      	b.n	8006ece <RCCEx_PLL2_Config+0xca>
 8006eee:	bf00      	nop
 8006ef0:	58024400 	.word	0x58024400

08006ef4 <RCCEx_PLL3_Config>:
 8006ef4:	b5f8      	push	{r3, r4, r5, r6, r7, lr}
 8006ef6:	4c3a      	ldr	r4, [pc, #232]	@ (8006fe0 <RCCEx_PLL3_Config+0xec>)
 8006ef8:	4606      	mov	r6, r0
 8006efa:	460d      	mov	r5, r1
 8006efc:	6aa3      	ldr	r3, [r4, #40]	@ 0x28
 8006efe:	f003 0303 	and.w	r3, r3, #3
 8006f02:	2b03      	cmp	r3, #3
 8006f04:	d069      	beq.n	8006fda <RCCEx_PLL3_Config+0xe6>
 8006f06:	6823      	ldr	r3, [r4, #0]
 8006f08:	f023 5380 	bic.w	r3, r3, #268435456	@ 0x10000000
 8006f0c:	6023      	str	r3, [r4, #0]
 8006f0e:	f7ff f851 	bl	8005fb4 <HAL_GetTick>
 8006f12:	4607      	mov	r7, r0
 8006f14:	6823      	ldr	r3, [r4, #0]
 8006f16:	009a      	lsls	r2, r3, #2
 8006f18:	d44b      	bmi.n	8006fb2 <RCCEx_PLL3_Config+0xbe>
 8006f1a:	6aa3      	ldr	r3, [r4, #40]	@ 0x28
 8006f1c:	6832      	ldr	r2, [r6, #0]
 8006f1e:	f023 737c 	bic.w	r3, r3, #66060288	@ 0x3f00000
 8006f22:	ea43 5302 	orr.w	r3, r3, r2, lsl #20
 8006f26:	62a3      	str	r3, [r4, #40]	@ 0x28
 8006f28:	68b3      	ldr	r3, [r6, #8]
 8006f2a:	68f2      	ldr	r2, [r6, #12]
 8006f2c:	3b01      	subs	r3, #1
 8006f2e:	3a01      	subs	r2, #1
 8006f30:	025b      	lsls	r3, r3, #9
 8006f32:	0412      	lsls	r2, r2, #16
 8006f34:	b29b      	uxth	r3, r3
 8006f36:	f402 02fe 	and.w	r2, r2, #8323072	@ 0x7f0000
 8006f3a:	4313      	orrs	r3, r2
 8006f3c:	6872      	ldr	r2, [r6, #4]
 8006f3e:	3a01      	subs	r2, #1
 8006f40:	f3c2 0208 	ubfx	r2, r2, #0, #9
 8006f44:	4313      	orrs	r3, r2
 8006f46:	6932      	ldr	r2, [r6, #16]
 8006f48:	3a01      	subs	r2, #1
 8006f4a:	0612      	lsls	r2, r2, #24
 8006f4c:	f002 42fe 	and.w	r2, r2, #2130706432	@ 0x7f000000
 8006f50:	4313      	orrs	r3, r2
 8006f52:	6423      	str	r3, [r4, #64]	@ 0x40
 8006f54:	6ae3      	ldr	r3, [r4, #44]	@ 0x2c
 8006f56:	6972      	ldr	r2, [r6, #20]
 8006f58:	f423 6340 	bic.w	r3, r3, #3072	@ 0xc00
 8006f5c:	4313      	orrs	r3, r2
 8006f5e:	62e3      	str	r3, [r4, #44]	@ 0x2c
 8006f60:	6ae3      	ldr	r3, [r4, #44]	@ 0x2c
 8006f62:	69b2      	ldr	r2, [r6, #24]
 8006f64:	f423 7300 	bic.w	r3, r3, #512	@ 0x200
 8006f68:	4313      	orrs	r3, r2
 8006f6a:	62e3      	str	r3, [r4, #44]	@ 0x2c
 8006f6c:	6ae3      	ldr	r3, [r4, #44]	@ 0x2c
 8006f6e:	f423 7380 	bic.w	r3, r3, #256	@ 0x100
 8006f72:	62e3      	str	r3, [r4, #44]	@ 0x2c
 8006f74:	6c63      	ldr	r3, [r4, #68]	@ 0x44
 8006f76:	69f2      	ldr	r2, [r6, #28]
 8006f78:	f423 437f 	bic.w	r3, r3, #65280	@ 0xff00
 8006f7c:	f023 03f8 	bic.w	r3, r3, #248	@ 0xf8
 8006f80:	ea43 03c2 	orr.w	r3, r3, r2, lsl #3
 8006f84:	6463      	str	r3, [r4, #68]	@ 0x44
 8006f86:	6ae3      	ldr	r3, [r4, #44]	@ 0x2c
 8006f88:	f443 7380 	orr.w	r3, r3, #256	@ 0x100
 8006f8c:	62e3      	str	r3, [r4, #44]	@ 0x2c
 8006f8e:	6ae3      	ldr	r3, [r4, #44]	@ 0x2c
 8006f90:	b9b5      	cbnz	r5, 8006fc0 <RCCEx_PLL3_Config+0xcc>
 8006f92:	f443 0380 	orr.w	r3, r3, #4194304	@ 0x400000
 8006f96:	62e3      	str	r3, [r4, #44]	@ 0x2c
 8006f98:	4c11      	ldr	r4, [pc, #68]	@ (8006fe0 <RCCEx_PLL3_Config+0xec>)
 8006f9a:	6823      	ldr	r3, [r4, #0]
 8006f9c:	f043 5380 	orr.w	r3, r3, #268435456	@ 0x10000000
 8006fa0:	6023      	str	r3, [r4, #0]
 8006fa2:	f7ff f807 	bl	8005fb4 <HAL_GetTick>
 8006fa6:	4605      	mov	r5, r0
 8006fa8:	6823      	ldr	r3, [r4, #0]
 8006faa:	009b      	lsls	r3, r3, #2
 8006fac:	d50f      	bpl.n	8006fce <RCCEx_PLL3_Config+0xda>
 8006fae:	2000      	movs	r0, #0
 8006fb0:	e005      	b.n	8006fbe <RCCEx_PLL3_Config+0xca>
 8006fb2:	f7fe ffff 	bl	8005fb4 <HAL_GetTick>
 8006fb6:	1bc0      	subs	r0, r0, r7
 8006fb8:	2802      	cmp	r0, #2
 8006fba:	d9ab      	bls.n	8006f14 <RCCEx_PLL3_Config+0x20>
 8006fbc:	2003      	movs	r0, #3
 8006fbe:	bdf8      	pop	{r3, r4, r5, r6, r7, pc}
 8006fc0:	2d01      	cmp	r5, #1
 8006fc2:	bf0c      	ite	eq
 8006fc4:	f443 0300 	orreq.w	r3, r3, #8388608	@ 0x800000
 8006fc8:	f043 7380 	orrne.w	r3, r3, #16777216	@ 0x1000000
 8006fcc:	e7e3      	b.n	8006f96 <RCCEx_PLL3_Config+0xa2>
 8006fce:	f7fe fff1 	bl	8005fb4 <HAL_GetTick>
 8006fd2:	1b40      	subs	r0, r0, r5
 8006fd4:	2802      	cmp	r0, #2
 8006fd6:	d9e7      	bls.n	8006fa8 <RCCEx_PLL3_Config+0xb4>
 8006fd8:	e7f0      	b.n	8006fbc <RCCEx_PLL3_Config+0xc8>
 8006fda:	2001      	movs	r0, #1
 8006fdc:	e7ef      	b.n	8006fbe <RCCEx_PLL3_Config+0xca>
 8006fde:	bf00      	nop
 8006fe0:	58024400 	.word	0x58024400

08006fe4 <HAL_RCCEx_PeriphCLKConfig>:
 8006fe4:	e92d 43f8 	stmdb	sp!, {r3, r4, r5, r6, r7, r8, r9, lr}
 8006fe8:	6803      	ldr	r3, [r0, #0]
 8006fea:	4605      	mov	r5, r0
 8006fec:	0118      	lsls	r0, r3, #4
 8006fee:	d51e      	bpl.n	800702e <HAL_RCCEx_PeriphCLKConfig+0x4a>
 8006ff0:	6eab      	ldr	r3, [r5, #104]	@ 0x68
 8006ff2:	f5b3 1f00 	cmp.w	r3, #2097152	@ 0x200000
 8006ff6:	d02b      	beq.n	8007050 <HAL_RCCEx_PeriphCLKConfig+0x6c>
 8006ff8:	d80f      	bhi.n	800701a <HAL_RCCEx_PeriphCLKConfig+0x36>
 8006ffa:	b1d3      	cbz	r3, 8007032 <HAL_RCCEx_PeriphCLKConfig+0x4e>
 8006ffc:	f5b3 1f80 	cmp.w	r3, #1048576	@ 0x100000
 8007000:	d01d      	beq.n	800703e <HAL_RCCEx_PeriphCLKConfig+0x5a>
 8007002:	2601      	movs	r6, #1
 8007004:	682b      	ldr	r3, [r5, #0]
 8007006:	05d9      	lsls	r1, r3, #23
 8007008:	d551      	bpl.n	80070ae <HAL_RCCEx_PeriphCLKConfig+0xca>
 800700a:	6dab      	ldr	r3, [r5, #88]	@ 0x58
 800700c:	2b04      	cmp	r3, #4
 800700e:	d84d      	bhi.n	80070ac <HAL_RCCEx_PeriphCLKConfig+0xc8>
 8007010:	e8df f003 	tbb	[pc, r3]
 8007014:	29463f24 	.word	0x29463f24
 8007018:	29          	.byte	0x29
 8007019:	00          	.byte	0x00
 800701a:	f5b3 1f40 	cmp.w	r3, #3145728	@ 0x300000
 800701e:	d1f0      	bne.n	8007002 <HAL_RCCEx_PeriphCLKConfig+0x1e>
 8007020:	4a85      	ldr	r2, [pc, #532]	@ (8007238 <HAL_RCCEx_PeriphCLKConfig+0x254>)
 8007022:	6ea9      	ldr	r1, [r5, #104]	@ 0x68
 8007024:	6d13      	ldr	r3, [r2, #80]	@ 0x50
 8007026:	f423 1340 	bic.w	r3, r3, #3145728	@ 0x300000
 800702a:	430b      	orrs	r3, r1
 800702c:	6513      	str	r3, [r2, #80]	@ 0x50
 800702e:	2600      	movs	r6, #0
 8007030:	e7e8      	b.n	8007004 <HAL_RCCEx_PeriphCLKConfig+0x20>
 8007032:	4a81      	ldr	r2, [pc, #516]	@ (8007238 <HAL_RCCEx_PeriphCLKConfig+0x254>)
 8007034:	6ad3      	ldr	r3, [r2, #44]	@ 0x2c
 8007036:	f443 3300 	orr.w	r3, r3, #131072	@ 0x20000
 800703a:	62d3      	str	r3, [r2, #44]	@ 0x2c
 800703c:	e7f0      	b.n	8007020 <HAL_RCCEx_PeriphCLKConfig+0x3c>
 800703e:	2102      	movs	r1, #2
 8007040:	f105 0008 	add.w	r0, r5, #8
 8007044:	f7ff fede 	bl	8006e04 <RCCEx_PLL2_Config>
 8007048:	4606      	mov	r6, r0
 800704a:	2800      	cmp	r0, #0
 800704c:	d1da      	bne.n	8007004 <HAL_RCCEx_PeriphCLKConfig+0x20>
 800704e:	e7e7      	b.n	8007020 <HAL_RCCEx_PeriphCLKConfig+0x3c>
 8007050:	2102      	movs	r1, #2
 8007052:	f105 0028 	add.w	r0, r5, #40	@ 0x28
 8007056:	f7ff ff4d 	bl	8006ef4 <RCCEx_PLL3_Config>
 800705a:	e7f5      	b.n	8007048 <HAL_RCCEx_PeriphCLKConfig+0x64>
 800705c:	4a76      	ldr	r2, [pc, #472]	@ (8007238 <HAL_RCCEx_PeriphCLKConfig+0x254>)
 800705e:	6ad3      	ldr	r3, [r2, #44]	@ 0x2c
 8007060:	f443 3300 	orr.w	r3, r3, #131072	@ 0x20000
 8007064:	62d3      	str	r3, [r2, #44]	@ 0x2c
 8007066:	4634      	mov	r4, r6
 8007068:	bb1c      	cbnz	r4, 80070b2 <HAL_RCCEx_PeriphCLKConfig+0xce>
 800706a:	4a73      	ldr	r2, [pc, #460]	@ (8007238 <HAL_RCCEx_PeriphCLKConfig+0x254>)
 800706c:	6da9      	ldr	r1, [r5, #88]	@ 0x58
 800706e:	6d13      	ldr	r3, [r2, #80]	@ 0x50
 8007070:	f023 0307 	bic.w	r3, r3, #7
 8007074:	430b      	orrs	r3, r1
 8007076:	6513      	str	r3, [r2, #80]	@ 0x50
 8007078:	682b      	ldr	r3, [r5, #0]
 800707a:	059a      	lsls	r2, r3, #22
 800707c:	d528      	bpl.n	80070d0 <HAL_RCCEx_PeriphCLKConfig+0xec>
 800707e:	6deb      	ldr	r3, [r5, #92]	@ 0x5c
 8007080:	2b80      	cmp	r3, #128	@ 0x80
 8007082:	d043      	beq.n	800710c <HAL_RCCEx_PeriphCLKConfig+0x128>
 8007084:	d817      	bhi.n	80070b6 <HAL_RCCEx_PeriphCLKConfig+0xd2>
 8007086:	b3a3      	cbz	r3, 80070f2 <HAL_RCCEx_PeriphCLKConfig+0x10e>
 8007088:	2b40      	cmp	r3, #64	@ 0x40
 800708a:	d038      	beq.n	80070fe <HAL_RCCEx_PeriphCLKConfig+0x11a>
 800708c:	2601      	movs	r6, #1
 800708e:	4634      	mov	r4, r6
 8007090:	e01e      	b.n	80070d0 <HAL_RCCEx_PeriphCLKConfig+0xec>
 8007092:	2100      	movs	r1, #0
 8007094:	f105 0008 	add.w	r0, r5, #8
 8007098:	f7ff feb4 	bl	8006e04 <RCCEx_PLL2_Config>
 800709c:	4604      	mov	r4, r0
 800709e:	e7e3      	b.n	8007068 <HAL_RCCEx_PeriphCLKConfig+0x84>
 80070a0:	2100      	movs	r1, #0
 80070a2:	f105 0028 	add.w	r0, r5, #40	@ 0x28
 80070a6:	f7ff ff25 	bl	8006ef4 <RCCEx_PLL3_Config>
 80070aa:	e7f7      	b.n	800709c <HAL_RCCEx_PeriphCLKConfig+0xb8>
 80070ac:	2601      	movs	r6, #1
 80070ae:	4634      	mov	r4, r6
 80070b0:	e7e2      	b.n	8007078 <HAL_RCCEx_PeriphCLKConfig+0x94>
 80070b2:	4626      	mov	r6, r4
 80070b4:	e7e0      	b.n	8007078 <HAL_RCCEx_PeriphCLKConfig+0x94>
 80070b6:	2bc0      	cmp	r3, #192	@ 0xc0
 80070b8:	d002      	beq.n	80070c0 <HAL_RCCEx_PeriphCLKConfig+0xdc>
 80070ba:	f5b3 7f80 	cmp.w	r3, #256	@ 0x100
 80070be:	d1e5      	bne.n	800708c <HAL_RCCEx_PeriphCLKConfig+0xa8>
 80070c0:	bb54      	cbnz	r4, 8007118 <HAL_RCCEx_PeriphCLKConfig+0x134>
 80070c2:	4a5d      	ldr	r2, [pc, #372]	@ (8007238 <HAL_RCCEx_PeriphCLKConfig+0x254>)
 80070c4:	6de9      	ldr	r1, [r5, #92]	@ 0x5c
 80070c6:	6d13      	ldr	r3, [r2, #80]	@ 0x50
 80070c8:	f423 73e0 	bic.w	r3, r3, #448	@ 0x1c0
 80070cc:	430b      	orrs	r3, r1
 80070ce:	6513      	str	r3, [r2, #80]	@ 0x50
 80070d0:	682b      	ldr	r3, [r5, #0]
 80070d2:	055b      	lsls	r3, r3, #21
 80070d4:	d531      	bpl.n	800713a <HAL_RCCEx_PeriphCLKConfig+0x156>
 80070d6:	f8d5 30a8 	ldr.w	r3, [r5, #168]	@ 0xa8
 80070da:	f5b3 0f80 	cmp.w	r3, #4194304	@ 0x400000
 80070de:	d049      	beq.n	8007174 <HAL_RCCEx_PeriphCLKConfig+0x190>
 80070e0:	d81c      	bhi.n	800711c <HAL_RCCEx_PeriphCLKConfig+0x138>
 80070e2:	2b00      	cmp	r3, #0
 80070e4:	d039      	beq.n	800715a <HAL_RCCEx_PeriphCLKConfig+0x176>
 80070e6:	f5b3 1f00 	cmp.w	r3, #2097152	@ 0x200000
 80070ea:	d03c      	beq.n	8007166 <HAL_RCCEx_PeriphCLKConfig+0x182>
 80070ec:	2601      	movs	r6, #1
 80070ee:	4634      	mov	r4, r6
 80070f0:	e023      	b.n	800713a <HAL_RCCEx_PeriphCLKConfig+0x156>
 80070f2:	4a51      	ldr	r2, [pc, #324]	@ (8007238 <HAL_RCCEx_PeriphCLKConfig+0x254>)
 80070f4:	6ad3      	ldr	r3, [r2, #44]	@ 0x2c
 80070f6:	f443 3300 	orr.w	r3, r3, #131072	@ 0x20000
 80070fa:	62d3      	str	r3, [r2, #44]	@ 0x2c
 80070fc:	e7e0      	b.n	80070c0 <HAL_RCCEx_PeriphCLKConfig+0xdc>
 80070fe:	2100      	movs	r1, #0
 8007100:	f105 0008 	add.w	r0, r5, #8
 8007104:	f7ff fe7e 	bl	8006e04 <RCCEx_PLL2_Config>
 8007108:	4604      	mov	r4, r0
 800710a:	e7d9      	b.n	80070c0 <HAL_RCCEx_PeriphCLKConfig+0xdc>
 800710c:	2100      	movs	r1, #0
 800710e:	f105 0028 	add.w	r0, r5, #40	@ 0x28
 8007112:	f7ff feef 	bl	8006ef4 <RCCEx_PLL3_Config>
 8007116:	e7f7      	b.n	8007108 <HAL_RCCEx_PeriphCLKConfig+0x124>
 8007118:	4626      	mov	r6, r4
 800711a:	e7d9      	b.n	80070d0 <HAL_RCCEx_PeriphCLKConfig+0xec>
 800711c:	f5b3 0fc0 	cmp.w	r3, #6291456	@ 0x600000
 8007120:	d002      	beq.n	8007128 <HAL_RCCEx_PeriphCLKConfig+0x144>
 8007122:	f5b3 0f00 	cmp.w	r3, #8388608	@ 0x800000
 8007126:	d1e1      	bne.n	80070ec <HAL_RCCEx_PeriphCLKConfig+0x108>
 8007128:	bb54      	cbnz	r4, 8007180 <HAL_RCCEx_PeriphCLKConfig+0x19c>
 800712a:	4a43      	ldr	r2, [pc, #268]	@ (8007238 <HAL_RCCEx_PeriphCLKConfig+0x254>)
 800712c:	f8d5 10a8 	ldr.w	r1, [r5, #168]	@ 0xa8
 8007130:	6d93      	ldr	r3, [r2, #88]	@ 0x58
 8007132:	f423 0360 	bic.w	r3, r3, #14680064	@ 0xe00000
 8007136:	430b      	orrs	r3, r1
 8007138:	6593      	str	r3, [r2, #88]	@ 0x58
 800713a:	682b      	ldr	r3, [r5, #0]
 800713c:	051f      	lsls	r7, r3, #20
 800713e:	d530      	bpl.n	80071a2 <HAL_RCCEx_PeriphCLKConfig+0x1be>
 8007140:	f8d5 30ac 	ldr.w	r3, [r5, #172]	@ 0xac
 8007144:	f1b3 7f00 	cmp.w	r3, #33554432	@ 0x2000000
 8007148:	d045      	beq.n	80071d6 <HAL_RCCEx_PeriphCLKConfig+0x1f2>
 800714a:	d81b      	bhi.n	8007184 <HAL_RCCEx_PeriphCLKConfig+0x1a0>
 800714c:	b3b3      	cbz	r3, 80071bc <HAL_RCCEx_PeriphCLKConfig+0x1d8>
 800714e:	f1b3 7f80 	cmp.w	r3, #16777216	@ 0x1000000
 8007152:	d039      	beq.n	80071c8 <HAL_RCCEx_PeriphCLKConfig+0x1e4>
 8007154:	2601      	movs	r6, #1
 8007156:	4634      	mov	r4, r6
 8007158:	e023      	b.n	80071a2 <HAL_RCCEx_PeriphCLKConfig+0x1be>
 800715a:	4a37      	ldr	r2, [pc, #220]	@ (8007238 <HAL_RCCEx_PeriphCLKConfig+0x254>)
 800715c:	6ad3      	ldr	r3, [r2, #44]	@ 0x2c
 800715e:	f443 3300 	orr.w	r3, r3, #131072	@ 0x20000
 8007162:	62d3      	str	r3, [r2, #44]	@ 0x2c
 8007164:	e7e0      	b.n	8007128 <HAL_RCCEx_PeriphCLKConfig+0x144>
 8007166:	2100      	movs	r1, #0
 8007168:	f105 0008 	add.w	r0, r5, #8
 800716c:	f7ff fe4a 	bl	8006e04 <RCCEx_PLL2_Config>
 8007170:	4604      	mov	r4, r0
 8007172:	e7d9      	b.n	8007128 <HAL_RCCEx_PeriphCLKConfig+0x144>
 8007174:	2100      	movs	r1, #0
 8007176:	f105 0028 	add.w	r0, r5, #40	@ 0x28
 800717a:	f7ff febb 	bl	8006ef4 <RCCEx_PLL3_Config>
 800717e:	e7f7      	b.n	8007170 <HAL_RCCEx_PeriphCLKConfig+0x18c>
 8007180:	4626      	mov	r6, r4
 8007182:	e7da      	b.n	800713a <HAL_RCCEx_PeriphCLKConfig+0x156>
 8007184:	f1b3 7f40 	cmp.w	r3, #50331648	@ 0x3000000
 8007188:	d002      	beq.n	8007190 <HAL_RCCEx_PeriphCLKConfig+0x1ac>
 800718a:	f1b3 6f80 	cmp.w	r3, #67108864	@ 0x4000000
 800718e:	d1e1      	bne.n	8007154 <HAL_RCCEx_PeriphCLKConfig+0x170>
 8007190:	bb3c      	cbnz	r4, 80071e2 <HAL_RCCEx_PeriphCLKConfig+0x1fe>
 8007192:	4a29      	ldr	r2, [pc, #164]	@ (8007238 <HAL_RCCEx_PeriphCLKConfig+0x254>)
 8007194:	f8d5 10ac 	ldr.w	r1, [r5, #172]	@ 0xac
 8007198:	6d93      	ldr	r3, [r2, #88]	@ 0x58
 800719a:	f023 63e0 	bic.w	r3, r3, #117440512	@ 0x7000000
 800719e:	430b      	orrs	r3, r1
 80071a0:	6593      	str	r3, [r2, #88]	@ 0x58
 80071a2:	682b      	ldr	r3, [r5, #0]
 80071a4:	0198      	lsls	r0, r3, #6
 80071a6:	d528      	bpl.n	80071fa <HAL_RCCEx_PeriphCLKConfig+0x216>
 80071a8:	6ceb      	ldr	r3, [r5, #76]	@ 0x4c
 80071aa:	2b20      	cmp	r3, #32
 80071ac:	d03b      	beq.n	8007226 <HAL_RCCEx_PeriphCLKConfig+0x242>
 80071ae:	d81a      	bhi.n	80071e6 <HAL_RCCEx_PeriphCLKConfig+0x202>
 80071b0:	b1db      	cbz	r3, 80071ea <HAL_RCCEx_PeriphCLKConfig+0x206>
 80071b2:	2b10      	cmp	r3, #16
 80071b4:	d031      	beq.n	800721a <HAL_RCCEx_PeriphCLKConfig+0x236>
 80071b6:	2601      	movs	r6, #1
 80071b8:	4634      	mov	r4, r6
 80071ba:	e01e      	b.n	80071fa <HAL_RCCEx_PeriphCLKConfig+0x216>
 80071bc:	4a1e      	ldr	r2, [pc, #120]	@ (8007238 <HAL_RCCEx_PeriphCLKConfig+0x254>)
 80071be:	6ad3      	ldr	r3, [r2, #44]	@ 0x2c
 80071c0:	f443 3300 	orr.w	r3, r3, #131072	@ 0x20000
 80071c4:	62d3      	str	r3, [r2, #44]	@ 0x2c
 80071c6:	e7e3      	b.n	8007190 <HAL_RCCEx_PeriphCLKConfig+0x1ac>
 80071c8:	2100      	movs	r1, #0
 80071ca:	f105 0008 	add.w	r0, r5, #8
 80071ce:	f7ff fe19 	bl	8006e04 <RCCEx_PLL2_Config>
 80071d2:	4604      	mov	r4, r0
 80071d4:	e7dc      	b.n	8007190 <HAL_RCCEx_PeriphCLKConfig+0x1ac>
 80071d6:	2100      	movs	r1, #0
 80071d8:	f105 0028 	add.w	r0, r5, #40	@ 0x28
 80071dc:	f7ff fe8a 	bl	8006ef4 <RCCEx_PLL3_Config>
 80071e0:	e7f7      	b.n	80071d2 <HAL_RCCEx_PeriphCLKConfig+0x1ee>
 80071e2:	4626      	mov	r6, r4
 80071e4:	e7dd      	b.n	80071a2 <HAL_RCCEx_PeriphCLKConfig+0x1be>
 80071e6:	2b30      	cmp	r3, #48	@ 0x30
 80071e8:	d1e5      	bne.n	80071b6 <HAL_RCCEx_PeriphCLKConfig+0x1d2>
 80071ea:	bb1c      	cbnz	r4, 8007234 <HAL_RCCEx_PeriphCLKConfig+0x250>
 80071ec:	4a12      	ldr	r2, [pc, #72]	@ (8007238 <HAL_RCCEx_PeriphCLKConfig+0x254>)
 80071ee:	6ce9      	ldr	r1, [r5, #76]	@ 0x4c
 80071f0:	6cd3      	ldr	r3, [r2, #76]	@ 0x4c
 80071f2:	f023 0330 	bic.w	r3, r3, #48	@ 0x30
 80071f6:	430b      	orrs	r3, r1
 80071f8:	64d3      	str	r3, [r2, #76]	@ 0x4c
 80071fa:	682b      	ldr	r3, [r5, #0]
 80071fc:	04d9      	lsls	r1, r3, #19
 80071fe:	d52c      	bpl.n	800725a <HAL_RCCEx_PeriphCLKConfig+0x276>
 8007200:	6e2b      	ldr	r3, [r5, #96]	@ 0x60
 8007202:	f5b3 5f00 	cmp.w	r3, #8192	@ 0x2000
 8007206:	d076      	beq.n	80072f6 <HAL_RCCEx_PeriphCLKConfig+0x312>
 8007208:	d818      	bhi.n	800723c <HAL_RCCEx_PeriphCLKConfig+0x258>
 800720a:	2b00      	cmp	r3, #0
 800720c:	d066      	beq.n	80072dc <HAL_RCCEx_PeriphCLKConfig+0x2f8>
 800720e:	f5b3 5f80 	cmp.w	r3, #4096	@ 0x1000
 8007212:	d069      	beq.n	80072e8 <HAL_RCCEx_PeriphCLKConfig+0x304>
 8007214:	2601      	movs	r6, #1
 8007216:	4634      	mov	r4, r6
 8007218:	e01f      	b.n	800725a <HAL_RCCEx_PeriphCLKConfig+0x276>
 800721a:	4a07      	ldr	r2, [pc, #28]	@ (8007238 <HAL_RCCEx_PeriphCLKConfig+0x254>)
 800721c:	6ad3      	ldr	r3, [r2, #44]	@ 0x2c
 800721e:	f443 3300 	orr.w	r3, r3, #131072	@ 0x20000
 8007222:	62d3      	str	r3, [r2, #44]	@ 0x2c
 8007224:	e7e1      	b.n	80071ea <HAL_RCCEx_PeriphCLKConfig+0x206>
 8007226:	2102      	movs	r1, #2
 8007228:	f105 0008 	add.w	r0, r5, #8
 800722c:	f7ff fdea 	bl	8006e04 <RCCEx_PLL2_Config>
 8007230:	4604      	mov	r4, r0
 8007232:	e7da      	b.n	80071ea <HAL_RCCEx_PeriphCLKConfig+0x206>
 8007234:	4626      	mov	r6, r4
 8007236:	e7e0      	b.n	80071fa <HAL_RCCEx_PeriphCLKConfig+0x216>
 8007238:	58024400 	.word	0x58024400
 800723c:	f5b3 5f40 	cmp.w	r3, #12288	@ 0x3000
 8007240:	d002      	beq.n	8007248 <HAL_RCCEx_PeriphCLKConfig+0x264>
 8007242:	f5b3 4f80 	cmp.w	r3, #16384	@ 0x4000
 8007246:	d1e5      	bne.n	8007214 <HAL_RCCEx_PeriphCLKConfig+0x230>
 8007248:	2c00      	cmp	r4, #0
 800724a:	d15a      	bne.n	8007302 <HAL_RCCEx_PeriphCLKConfig+0x31e>
 800724c:	4a9e      	ldr	r2, [pc, #632]	@ (80074c8 <HAL_RCCEx_PeriphCLKConfig+0x4e4>)
 800724e:	6e29      	ldr	r1, [r5, #96]	@ 0x60
 8007250:	6d13      	ldr	r3, [r2, #80]	@ 0x50
 8007252:	f423 43e0 	bic.w	r3, r3, #28672	@ 0x7000
 8007256:	430b      	orrs	r3, r1
 8007258:	6513      	str	r3, [r2, #80]	@ 0x50
 800725a:	682b      	ldr	r3, [r5, #0]
 800725c:	049a      	lsls	r2, r3, #18
 800725e:	d50b      	bpl.n	8007278 <HAL_RCCEx_PeriphCLKConfig+0x294>
 8007260:	6e6b      	ldr	r3, [r5, #100]	@ 0x64
 8007262:	f5b3 3f00 	cmp.w	r3, #131072	@ 0x20000
 8007266:	d066      	beq.n	8007336 <HAL_RCCEx_PeriphCLKConfig+0x352>
 8007268:	d84d      	bhi.n	8007306 <HAL_RCCEx_PeriphCLKConfig+0x322>
 800726a:	2b00      	cmp	r3, #0
 800726c:	d053      	beq.n	8007316 <HAL_RCCEx_PeriphCLKConfig+0x332>
 800726e:	f5b3 3f80 	cmp.w	r3, #65536	@ 0x10000
 8007272:	d059      	beq.n	8007328 <HAL_RCCEx_PeriphCLKConfig+0x344>
 8007274:	2601      	movs	r6, #1
 8007276:	4634      	mov	r4, r6
 8007278:	682b      	ldr	r3, [r5, #0]
 800727a:	045b      	lsls	r3, r3, #17
 800727c:	d50c      	bpl.n	8007298 <HAL_RCCEx_PeriphCLKConfig+0x2b4>
 800727e:	f8d5 30b0 	ldr.w	r3, [r5, #176]	@ 0xb0
 8007282:	f1b3 5f00 	cmp.w	r3, #536870912	@ 0x20000000
 8007286:	d077      	beq.n	8007378 <HAL_RCCEx_PeriphCLKConfig+0x394>
 8007288:	d85d      	bhi.n	8007346 <HAL_RCCEx_PeriphCLKConfig+0x362>
 800728a:	2b00      	cmp	r3, #0
 800728c:	d063      	beq.n	8007356 <HAL_RCCEx_PeriphCLKConfig+0x372>
 800728e:	f1b3 5f80 	cmp.w	r3, #268435456	@ 0x10000000
 8007292:	d06a      	beq.n	800736a <HAL_RCCEx_PeriphCLKConfig+0x386>
 8007294:	2601      	movs	r6, #1
 8007296:	4634      	mov	r4, r6
 8007298:	682b      	ldr	r3, [r5, #0]
 800729a:	041f      	lsls	r7, r3, #16
 800729c:	d511      	bpl.n	80072c2 <HAL_RCCEx_PeriphCLKConfig+0x2de>
 800729e:	6f2b      	ldr	r3, [r5, #112]	@ 0x70
 80072a0:	f1b3 5f80 	cmp.w	r3, #268435456	@ 0x10000000
 80072a4:	d070      	beq.n	8007388 <HAL_RCCEx_PeriphCLKConfig+0x3a4>
 80072a6:	f1b3 5f00 	cmp.w	r3, #536870912	@ 0x20000000
 80072aa:	d073      	beq.n	8007394 <HAL_RCCEx_PeriphCLKConfig+0x3b0>
 80072ac:	2b00      	cmp	r3, #0
 80072ae:	d178      	bne.n	80073a2 <HAL_RCCEx_PeriphCLKConfig+0x3be>
 80072b0:	2c00      	cmp	r4, #0
 80072b2:	d179      	bne.n	80073a8 <HAL_RCCEx_PeriphCLKConfig+0x3c4>
 80072b4:	4a84      	ldr	r2, [pc, #528]	@ (80074c8 <HAL_RCCEx_PeriphCLKConfig+0x4e4>)
 80072b6:	6f29      	ldr	r1, [r5, #112]	@ 0x70
 80072b8:	6d13      	ldr	r3, [r2, #80]	@ 0x50
 80072ba:	f023 5340 	bic.w	r3, r3, #805306368	@ 0x30000000
 80072be:	430b      	orrs	r3, r1
 80072c0:	6513      	str	r3, [r2, #80]	@ 0x50
 80072c2:	682b      	ldr	r3, [r5, #0]
 80072c4:	01d8      	lsls	r0, r3, #7
 80072c6:	d57f      	bpl.n	80073c8 <HAL_RCCEx_PeriphCLKConfig+0x3e4>
 80072c8:	6cab      	ldr	r3, [r5, #72]	@ 0x48
 80072ca:	2b03      	cmp	r3, #3
 80072cc:	f200 80d8 	bhi.w	8007480 <HAL_RCCEx_PeriphCLKConfig+0x49c>
 80072d0:	e8df f013 	tbh	[pc, r3, lsl #1]
 80072d4:	006c0071 	.word	0x006c0071
 80072d8:	007100cf 	.word	0x007100cf
 80072dc:	4a7a      	ldr	r2, [pc, #488]	@ (80074c8 <HAL_RCCEx_PeriphCLKConfig+0x4e4>)
 80072de:	6ad3      	ldr	r3, [r2, #44]	@ 0x2c
 80072e0:	f443 3300 	orr.w	r3, r3, #131072	@ 0x20000
 80072e4:	62d3      	str	r3, [r2, #44]	@ 0x2c
 80072e6:	e7af      	b.n	8007248 <HAL_RCCEx_PeriphCLKConfig+0x264>
 80072e8:	2100      	movs	r1, #0
 80072ea:	f105 0008 	add.w	r0, r5, #8
 80072ee:	f7ff fd89 	bl	8006e04 <RCCEx_PLL2_Config>
 80072f2:	4604      	mov	r4, r0
 80072f4:	e7a8      	b.n	8007248 <HAL_RCCEx_PeriphCLKConfig+0x264>
 80072f6:	2100      	movs	r1, #0
 80072f8:	f105 0028 	add.w	r0, r5, #40	@ 0x28
 80072fc:	f7ff fdfa 	bl	8006ef4 <RCCEx_PLL3_Config>
 8007300:	e7f7      	b.n	80072f2 <HAL_RCCEx_PeriphCLKConfig+0x30e>
 8007302:	4626      	mov	r6, r4
 8007304:	e7a9      	b.n	800725a <HAL_RCCEx_PeriphCLKConfig+0x276>
 8007306:	f423 3280 	bic.w	r2, r3, #65536	@ 0x10000
 800730a:	f5b2 2f80 	cmp.w	r2, #262144	@ 0x40000
 800730e:	d002      	beq.n	8007316 <HAL_RCCEx_PeriphCLKConfig+0x332>
 8007310:	f5b3 3f40 	cmp.w	r3, #196608	@ 0x30000
 8007314:	d1ae      	bne.n	8007274 <HAL_RCCEx_PeriphCLKConfig+0x290>
 8007316:	b9a4      	cbnz	r4, 8007342 <HAL_RCCEx_PeriphCLKConfig+0x35e>
 8007318:	4a6b      	ldr	r2, [pc, #428]	@ (80074c8 <HAL_RCCEx_PeriphCLKConfig+0x4e4>)
 800731a:	6e69      	ldr	r1, [r5, #100]	@ 0x64
 800731c:	6d13      	ldr	r3, [r2, #80]	@ 0x50
 800731e:	f423 23e0 	bic.w	r3, r3, #458752	@ 0x70000
 8007322:	430b      	orrs	r3, r1
 8007324:	6513      	str	r3, [r2, #80]	@ 0x50
 8007326:	e7a7      	b.n	8007278 <HAL_RCCEx_PeriphCLKConfig+0x294>
 8007328:	2101      	movs	r1, #1
 800732a:	f105 0008 	add.w	r0, r5, #8
 800732e:	f7ff fd69 	bl	8006e04 <RCCEx_PLL2_Config>
 8007332:	4604      	mov	r4, r0
 8007334:	e7ef      	b.n	8007316 <HAL_RCCEx_PeriphCLKConfig+0x332>
 8007336:	2101      	movs	r1, #1
 8007338:	f105 0028 	add.w	r0, r5, #40	@ 0x28
 800733c:	f7ff fdda 	bl	8006ef4 <RCCEx_PLL3_Config>
 8007340:	e7f7      	b.n	8007332 <HAL_RCCEx_PeriphCLKConfig+0x34e>
 8007342:	4626      	mov	r6, r4
 8007344:	e798      	b.n	8007278 <HAL_RCCEx_PeriphCLKConfig+0x294>
 8007346:	f023 5280 	bic.w	r2, r3, #268435456	@ 0x10000000
 800734a:	f1b2 4f80 	cmp.w	r2, #1073741824	@ 0x40000000
 800734e:	d002      	beq.n	8007356 <HAL_RCCEx_PeriphCLKConfig+0x372>
 8007350:	f1b3 5f40 	cmp.w	r3, #805306368	@ 0x30000000
 8007354:	d19e      	bne.n	8007294 <HAL_RCCEx_PeriphCLKConfig+0x2b0>
 8007356:	b9ac      	cbnz	r4, 8007384 <HAL_RCCEx_PeriphCLKConfig+0x3a0>
 8007358:	4a5b      	ldr	r2, [pc, #364]	@ (80074c8 <HAL_RCCEx_PeriphCLKConfig+0x4e4>)
 800735a:	f8d5 10b0 	ldr.w	r1, [r5, #176]	@ 0xb0
 800735e:	6d93      	ldr	r3, [r2, #88]	@ 0x58
 8007360:	f023 43e0 	bic.w	r3, r3, #1879048192	@ 0x70000000
 8007364:	430b      	orrs	r3, r1
 8007366:	6593      	str	r3, [r2, #88]	@ 0x58
 8007368:	e796      	b.n	8007298 <HAL_RCCEx_PeriphCLKConfig+0x2b4>
 800736a:	2101      	movs	r1, #1
 800736c:	f105 0008 	add.w	r0, r5, #8
 8007370:	f7ff fd48 	bl	8006e04 <RCCEx_PLL2_Config>
 8007374:	4604      	mov	r4, r0
 8007376:	e7ee      	b.n	8007356 <HAL_RCCEx_PeriphCLKConfig+0x372>
 8007378:	2101      	movs	r1, #1
 800737a:	f105 0028 	add.w	r0, r5, #40	@ 0x28
 800737e:	f7ff fdb9 	bl	8006ef4 <RCCEx_PLL3_Config>
 8007382:	e7f7      	b.n	8007374 <HAL_RCCEx_PeriphCLKConfig+0x390>
 8007384:	4626      	mov	r6, r4
 8007386:	e787      	b.n	8007298 <HAL_RCCEx_PeriphCLKConfig+0x2b4>
 8007388:	4a4f      	ldr	r2, [pc, #316]	@ (80074c8 <HAL_RCCEx_PeriphCLKConfig+0x4e4>)
 800738a:	6ad3      	ldr	r3, [r2, #44]	@ 0x2c
 800738c:	f443 3300 	orr.w	r3, r3, #131072	@ 0x20000
 8007390:	62d3      	str	r3, [r2, #44]	@ 0x2c
 8007392:	e78d      	b.n	80072b0 <HAL_RCCEx_PeriphCLKConfig+0x2cc>
 8007394:	2101      	movs	r1, #1
 8007396:	f105 0008 	add.w	r0, r5, #8
 800739a:	f7ff fd33 	bl	8006e04 <RCCEx_PLL2_Config>
 800739e:	4604      	mov	r4, r0
 80073a0:	e786      	b.n	80072b0 <HAL_RCCEx_PeriphCLKConfig+0x2cc>
 80073a2:	2601      	movs	r6, #1
 80073a4:	4634      	mov	r4, r6
 80073a6:	e78c      	b.n	80072c2 <HAL_RCCEx_PeriphCLKConfig+0x2de>
 80073a8:	4626      	mov	r6, r4
 80073aa:	e78a      	b.n	80072c2 <HAL_RCCEx_PeriphCLKConfig+0x2de>
 80073ac:	4a46      	ldr	r2, [pc, #280]	@ (80074c8 <HAL_RCCEx_PeriphCLKConfig+0x4e4>)
 80073ae:	6ad3      	ldr	r3, [r2, #44]	@ 0x2c
 80073b0:	f443 3300 	orr.w	r3, r3, #131072	@ 0x20000
 80073b4:	62d3      	str	r3, [r2, #44]	@ 0x2c
 80073b6:	2c00      	cmp	r4, #0
 80073b8:	d165      	bne.n	8007486 <HAL_RCCEx_PeriphCLKConfig+0x4a2>
 80073ba:	4a43      	ldr	r2, [pc, #268]	@ (80074c8 <HAL_RCCEx_PeriphCLKConfig+0x4e4>)
 80073bc:	6ca9      	ldr	r1, [r5, #72]	@ 0x48
 80073be:	6cd3      	ldr	r3, [r2, #76]	@ 0x4c
 80073c0:	f023 0303 	bic.w	r3, r3, #3
 80073c4:	430b      	orrs	r3, r1
 80073c6:	64d3      	str	r3, [r2, #76]	@ 0x4c
 80073c8:	682b      	ldr	r3, [r5, #0]
 80073ca:	0259      	lsls	r1, r3, #9
 80073cc:	d539      	bpl.n	8007442 <HAL_RCCEx_PeriphCLKConfig+0x45e>
 80073ce:	4f3f      	ldr	r7, [pc, #252]	@ (80074cc <HAL_RCCEx_PeriphCLKConfig+0x4e8>)
 80073d0:	683b      	ldr	r3, [r7, #0]
 80073d2:	f443 7380 	orr.w	r3, r3, #256	@ 0x100
 80073d6:	603b      	str	r3, [r7, #0]
 80073d8:	f7fe fdec 	bl	8005fb4 <HAL_GetTick>
 80073dc:	4680      	mov	r8, r0
 80073de:	683b      	ldr	r3, [r7, #0]
 80073e0:	05da      	lsls	r2, r3, #23
 80073e2:	d552      	bpl.n	800748a <HAL_RCCEx_PeriphCLKConfig+0x4a6>
 80073e4:	2c00      	cmp	r4, #0
 80073e6:	d175      	bne.n	80074d4 <HAL_RCCEx_PeriphCLKConfig+0x4f0>
 80073e8:	4b37      	ldr	r3, [pc, #220]	@ (80074c8 <HAL_RCCEx_PeriphCLKConfig+0x4e4>)
 80073ea:	f8d5 00b4 	ldr.w	r0, [r5, #180]	@ 0xb4
 80073ee:	6f1a      	ldr	r2, [r3, #112]	@ 0x70
 80073f0:	4042      	eors	r2, r0
 80073f2:	f412 7f40 	tst.w	r2, #768	@ 0x300
 80073f6:	d00b      	beq.n	8007410 <HAL_RCCEx_PeriphCLKConfig+0x42c>
 80073f8:	6f1a      	ldr	r2, [r3, #112]	@ 0x70
 80073fa:	6f19      	ldr	r1, [r3, #112]	@ 0x70
 80073fc:	f422 7240 	bic.w	r2, r2, #768	@ 0x300
 8007400:	f441 3180 	orr.w	r1, r1, #65536	@ 0x10000
 8007404:	6719      	str	r1, [r3, #112]	@ 0x70
 8007406:	6f19      	ldr	r1, [r3, #112]	@ 0x70
 8007408:	f421 3180 	bic.w	r1, r1, #65536	@ 0x10000
 800740c:	6719      	str	r1, [r3, #112]	@ 0x70
 800740e:	671a      	str	r2, [r3, #112]	@ 0x70
 8007410:	f5b0 7f80 	cmp.w	r0, #256	@ 0x100
 8007414:	d042      	beq.n	800749c <HAL_RCCEx_PeriphCLKConfig+0x4b8>
 8007416:	f8d5 30b4 	ldr.w	r3, [r5, #180]	@ 0xb4
 800741a:	492b      	ldr	r1, [pc, #172]	@ (80074c8 <HAL_RCCEx_PeriphCLKConfig+0x4e4>)
 800741c:	f403 7240 	and.w	r2, r3, #768	@ 0x300
 8007420:	f5b2 7f40 	cmp.w	r2, #768	@ 0x300
 8007424:	d14b      	bne.n	80074be <HAL_RCCEx_PeriphCLKConfig+0x4da>
 8007426:	6908      	ldr	r0, [r1, #16]
 8007428:	4a29      	ldr	r2, [pc, #164]	@ (80074d0 <HAL_RCCEx_PeriphCLKConfig+0x4ec>)
 800742a:	f420 507c 	bic.w	r0, r0, #16128	@ 0x3f00
 800742e:	ea02 1213 	and.w	r2, r2, r3, lsr #4
 8007432:	4302      	orrs	r2, r0
 8007434:	610a      	str	r2, [r1, #16]
 8007436:	f3c3 030b 	ubfx	r3, r3, #0, #12
 800743a:	4a23      	ldr	r2, [pc, #140]	@ (80074c8 <HAL_RCCEx_PeriphCLKConfig+0x4e4>)
 800743c:	6f11      	ldr	r1, [r2, #112]	@ 0x70
 800743e:	430b      	orrs	r3, r1
 8007440:	6713      	str	r3, [r2, #112]	@ 0x70
 8007442:	682b      	ldr	r3, [r5, #0]
 8007444:	07d8      	lsls	r0, r3, #31
 8007446:	d509      	bpl.n	800745c <HAL_RCCEx_PeriphCLKConfig+0x478>
 8007448:	6feb      	ldr	r3, [r5, #124]	@ 0x7c
 800744a:	2b10      	cmp	r3, #16
 800744c:	d05a      	beq.n	8007504 <HAL_RCCEx_PeriphCLKConfig+0x520>
 800744e:	d843      	bhi.n	80074d8 <HAL_RCCEx_PeriphCLKConfig+0x4f4>
 8007450:	2b00      	cmp	r3, #0
 8007452:	d047      	beq.n	80074e4 <HAL_RCCEx_PeriphCLKConfig+0x500>
 8007454:	2b08      	cmp	r3, #8
 8007456:	d04e      	beq.n	80074f6 <HAL_RCCEx_PeriphCLKConfig+0x512>
 8007458:	2601      	movs	r6, #1
 800745a:	4634      	mov	r4, r6
 800745c:	682b      	ldr	r3, [r5, #0]
 800745e:	0799      	lsls	r1, r3, #30
 8007460:	d566      	bpl.n	8007530 <HAL_RCCEx_PeriphCLKConfig+0x54c>
 8007462:	6fab      	ldr	r3, [r5, #120]	@ 0x78
 8007464:	2b05      	cmp	r3, #5
 8007466:	d879      	bhi.n	800755c <HAL_RCCEx_PeriphCLKConfig+0x578>
 8007468:	e8df f003 	tbb	[pc, r3]
 800746c:	5a72545a 	.word	0x5a72545a
 8007470:	5a5a      	.short	0x5a5a
 8007472:	2102      	movs	r1, #2
 8007474:	f105 0008 	add.w	r0, r5, #8
 8007478:	f7ff fcc4 	bl	8006e04 <RCCEx_PLL2_Config>
 800747c:	4604      	mov	r4, r0
 800747e:	e79a      	b.n	80073b6 <HAL_RCCEx_PeriphCLKConfig+0x3d2>
 8007480:	2601      	movs	r6, #1
 8007482:	4634      	mov	r4, r6
 8007484:	e7a0      	b.n	80073c8 <HAL_RCCEx_PeriphCLKConfig+0x3e4>
 8007486:	4626      	mov	r6, r4
 8007488:	e79e      	b.n	80073c8 <HAL_RCCEx_PeriphCLKConfig+0x3e4>
 800748a:	f7fe fd93 	bl	8005fb4 <HAL_GetTick>
 800748e:	eba0 0008 	sub.w	r0, r0, r8
 8007492:	2864      	cmp	r0, #100	@ 0x64
 8007494:	d9a3      	bls.n	80073de <HAL_RCCEx_PeriphCLKConfig+0x3fa>
 8007496:	2603      	movs	r6, #3
 8007498:	4634      	mov	r4, r6
 800749a:	e7d2      	b.n	8007442 <HAL_RCCEx_PeriphCLKConfig+0x45e>
 800749c:	f7fe fd8a 	bl	8005fb4 <HAL_GetTick>
 80074a0:	f8df 8024 	ldr.w	r8, [pc, #36]	@ 80074c8 <HAL_RCCEx_PeriphCLKConfig+0x4e4>
 80074a4:	4607      	mov	r7, r0
 80074a6:	f241 3988 	movw	r9, #5000	@ 0x1388
 80074aa:	f8d8 3070 	ldr.w	r3, [r8, #112]	@ 0x70
 80074ae:	079b      	lsls	r3, r3, #30
 80074b0:	d4b1      	bmi.n	8007416 <HAL_RCCEx_PeriphCLKConfig+0x432>
 80074b2:	f7fe fd7f 	bl	8005fb4 <HAL_GetTick>
 80074b6:	1bc0      	subs	r0, r0, r7
 80074b8:	4548      	cmp	r0, r9
 80074ba:	d9f6      	bls.n	80074aa <HAL_RCCEx_PeriphCLKConfig+0x4c6>
 80074bc:	e7eb      	b.n	8007496 <HAL_RCCEx_PeriphCLKConfig+0x4b2>
 80074be:	690a      	ldr	r2, [r1, #16]
 80074c0:	f422 527c 	bic.w	r2, r2, #16128	@ 0x3f00
 80074c4:	e7b6      	b.n	8007434 <HAL_RCCEx_PeriphCLKConfig+0x450>
 80074c6:	bf00      	nop
 80074c8:	58024400 	.word	0x58024400
 80074cc:	58024800 	.word	0x58024800
 80074d0:	00ffffcf 	.word	0x00ffffcf
 80074d4:	4626      	mov	r6, r4
 80074d6:	e7b4      	b.n	8007442 <HAL_RCCEx_PeriphCLKConfig+0x45e>
 80074d8:	f023 0208 	bic.w	r2, r3, #8
 80074dc:	2a20      	cmp	r2, #32
 80074de:	d001      	beq.n	80074e4 <HAL_RCCEx_PeriphCLKConfig+0x500>
 80074e0:	2b18      	cmp	r3, #24
 80074e2:	d1b9      	bne.n	8007458 <HAL_RCCEx_PeriphCLKConfig+0x474>
 80074e4:	b9a4      	cbnz	r4, 8007510 <HAL_RCCEx_PeriphCLKConfig+0x52c>
 80074e6:	4a20      	ldr	r2, [pc, #128]	@ (8007568 <HAL_RCCEx_PeriphCLKConfig+0x584>)
 80074e8:	6fe9      	ldr	r1, [r5, #124]	@ 0x7c
 80074ea:	6d53      	ldr	r3, [r2, #84]	@ 0x54
 80074ec:	f023 0338 	bic.w	r3, r3, #56	@ 0x38
 80074f0:	430b      	orrs	r3, r1
 80074f2:	6553      	str	r3, [r2, #84]	@ 0x54
 80074f4:	e7b2      	b.n	800745c <HAL_RCCEx_PeriphCLKConfig+0x478>
 80074f6:	2101      	movs	r1, #1
 80074f8:	f105 0008 	add.w	r0, r5, #8
 80074fc:	f7ff fc82 	bl	8006e04 <RCCEx_PLL2_Config>
 8007500:	4604      	mov	r4, r0
 8007502:	e7ef      	b.n	80074e4 <HAL_RCCEx_PeriphCLKConfig+0x500>
 8007504:	2101      	movs	r1, #1
 8007506:	f105 0028 	add.w	r0, r5, #40	@ 0x28
 800750a:	f7ff fcf3 	bl	8006ef4 <RCCEx_PLL3_Config>
 800750e:	e7f7      	b.n	8007500 <HAL_RCCEx_PeriphCLKConfig+0x51c>
 8007510:	4626      	mov	r6, r4
 8007512:	e7a3      	b.n	800745c <HAL_RCCEx_PeriphCLKConfig+0x478>
 8007514:	2101      	movs	r1, #1
 8007516:	f105 0008 	add.w	r0, r5, #8
 800751a:	f7ff fc73 	bl	8006e04 <RCCEx_PLL2_Config>
 800751e:	4604      	mov	r4, r0
 8007520:	b9fc      	cbnz	r4, 8007562 <HAL_RCCEx_PeriphCLKConfig+0x57e>
 8007522:	4a11      	ldr	r2, [pc, #68]	@ (8007568 <HAL_RCCEx_PeriphCLKConfig+0x584>)
 8007524:	6fa9      	ldr	r1, [r5, #120]	@ 0x78
 8007526:	6d53      	ldr	r3, [r2, #84]	@ 0x54
 8007528:	f023 0307 	bic.w	r3, r3, #7
 800752c:	430b      	orrs	r3, r1
 800752e:	6553      	str	r3, [r2, #84]	@ 0x54
 8007530:	682b      	ldr	r3, [r5, #0]
 8007532:	075a      	lsls	r2, r3, #29
 8007534:	d52b      	bpl.n	800758e <HAL_RCCEx_PeriphCLKConfig+0x5aa>
 8007536:	f8d5 3094 	ldr.w	r3, [r5, #148]	@ 0x94
 800753a:	2b05      	cmp	r3, #5
 800753c:	f200 816e 	bhi.w	800781c <HAL_RCCEx_PeriphCLKConfig+0x838>
 8007540:	e8df f013 	tbh	[pc, r3, lsl #1]
 8007544:	0014001a 	.word	0x0014001a
 8007548:	001a0166 	.word	0x001a0166
 800754c:	001a001a 	.word	0x001a001a
 8007550:	2101      	movs	r1, #1
 8007552:	f105 0028 	add.w	r0, r5, #40	@ 0x28
 8007556:	f7ff fccd 	bl	8006ef4 <RCCEx_PLL3_Config>
 800755a:	e7e0      	b.n	800751e <HAL_RCCEx_PeriphCLKConfig+0x53a>
 800755c:	2601      	movs	r6, #1
 800755e:	4634      	mov	r4, r6
 8007560:	e7e6      	b.n	8007530 <HAL_RCCEx_PeriphCLKConfig+0x54c>
 8007562:	4626      	mov	r6, r4
 8007564:	e7e4      	b.n	8007530 <HAL_RCCEx_PeriphCLKConfig+0x54c>
 8007566:	bf00      	nop
 8007568:	58024400 	.word	0x58024400
 800756c:	2101      	movs	r1, #1
 800756e:	f105 0008 	add.w	r0, r5, #8
 8007572:	f7ff fc47 	bl	8006e04 <RCCEx_PLL2_Config>
 8007576:	4604      	mov	r4, r0
 8007578:	2c00      	cmp	r4, #0
 800757a:	f040 8152 	bne.w	8007822 <HAL_RCCEx_PeriphCLKConfig+0x83e>
 800757e:	4aaa      	ldr	r2, [pc, #680]	@ (8007828 <HAL_RCCEx_PeriphCLKConfig+0x844>)
 8007580:	f8d5 1094 	ldr.w	r1, [r5, #148]	@ 0x94
 8007584:	6d93      	ldr	r3, [r2, #88]	@ 0x58
 8007586:	f023 0307 	bic.w	r3, r3, #7
 800758a:	430b      	orrs	r3, r1
 800758c:	6593      	str	r3, [r2, #88]	@ 0x58
 800758e:	682b      	ldr	r3, [r5, #0]
 8007590:	069b      	lsls	r3, r3, #26
 8007592:	d510      	bpl.n	80075b6 <HAL_RCCEx_PeriphCLKConfig+0x5d2>
 8007594:	f8d5 3090 	ldr.w	r3, [r5, #144]	@ 0x90
 8007598:	f1b3 5f00 	cmp.w	r3, #536870912	@ 0x20000000
 800759c:	f000 8160 	beq.w	8007860 <HAL_RCCEx_PeriphCLKConfig+0x87c>
 80075a0:	f200 8144 	bhi.w	800782c <HAL_RCCEx_PeriphCLKConfig+0x848>
 80075a4:	2b00      	cmp	r3, #0
 80075a6:	f000 814a 	beq.w	800783e <HAL_RCCEx_PeriphCLKConfig+0x85a>
 80075aa:	f1b3 5f80 	cmp.w	r3, #268435456	@ 0x10000000
 80075ae:	f000 8150 	beq.w	8007852 <HAL_RCCEx_PeriphCLKConfig+0x86e>
 80075b2:	2601      	movs	r6, #1
 80075b4:	4634      	mov	r4, r6
 80075b6:	682b      	ldr	r3, [r5, #0]
 80075b8:	065f      	lsls	r7, r3, #25
 80075ba:	d510      	bpl.n	80075de <HAL_RCCEx_PeriphCLKConfig+0x5fa>
 80075bc:	f8d5 309c 	ldr.w	r3, [r5, #156]	@ 0x9c
 80075c0:	f5b3 6f00 	cmp.w	r3, #2048	@ 0x800
 80075c4:	f000 816e 	beq.w	80078a4 <HAL_RCCEx_PeriphCLKConfig+0x8c0>
 80075c8:	f200 8152 	bhi.w	8007870 <HAL_RCCEx_PeriphCLKConfig+0x88c>
 80075cc:	2b00      	cmp	r3, #0
 80075ce:	f000 8158 	beq.w	8007882 <HAL_RCCEx_PeriphCLKConfig+0x89e>
 80075d2:	f5b3 6f80 	cmp.w	r3, #1024	@ 0x400
 80075d6:	f000 815e 	beq.w	8007896 <HAL_RCCEx_PeriphCLKConfig+0x8b2>
 80075da:	2601      	movs	r6, #1
 80075dc:	4634      	mov	r4, r6
 80075de:	682b      	ldr	r3, [r5, #0]
 80075e0:	0618      	lsls	r0, r3, #24
 80075e2:	d510      	bpl.n	8007606 <HAL_RCCEx_PeriphCLKConfig+0x622>
 80075e4:	f8d5 30a0 	ldr.w	r3, [r5, #160]	@ 0xa0
 80075e8:	f5b3 4f80 	cmp.w	r3, #16384	@ 0x4000
 80075ec:	f000 817c 	beq.w	80078e8 <HAL_RCCEx_PeriphCLKConfig+0x904>
 80075f0:	f200 8160 	bhi.w	80078b4 <HAL_RCCEx_PeriphCLKConfig+0x8d0>
 80075f4:	2b00      	cmp	r3, #0
 80075f6:	f000 8166 	beq.w	80078c6 <HAL_RCCEx_PeriphCLKConfig+0x8e2>
 80075fa:	f5b3 5f00 	cmp.w	r3, #8192	@ 0x2000
 80075fe:	f000 816c 	beq.w	80078da <HAL_RCCEx_PeriphCLKConfig+0x8f6>
 8007602:	2601      	movs	r6, #1
 8007604:	4634      	mov	r4, r6
 8007606:	682b      	ldr	r3, [r5, #0]
 8007608:	0719      	lsls	r1, r3, #28
 800760a:	d514      	bpl.n	8007636 <HAL_RCCEx_PeriphCLKConfig+0x652>
 800760c:	f8d5 3084 	ldr.w	r3, [r5, #132]	@ 0x84
 8007610:	f5b3 5f80 	cmp.w	r3, #4096	@ 0x1000
 8007614:	d107      	bne.n	8007626 <HAL_RCCEx_PeriphCLKConfig+0x642>
 8007616:	2102      	movs	r1, #2
 8007618:	f105 0028 	add.w	r0, r5, #40	@ 0x28
 800761c:	f7ff fc6a 	bl	8006ef4 <RCCEx_PLL3_Config>
 8007620:	2800      	cmp	r0, #0
 8007622:	bf18      	it	ne
 8007624:	2601      	movne	r6, #1
 8007626:	4a80      	ldr	r2, [pc, #512]	@ (8007828 <HAL_RCCEx_PeriphCLKConfig+0x844>)
 8007628:	f8d5 1084 	ldr.w	r1, [r5, #132]	@ 0x84
 800762c:	6d53      	ldr	r3, [r2, #84]	@ 0x54
 800762e:	f423 5340 	bic.w	r3, r3, #12288	@ 0x3000
 8007632:	430b      	orrs	r3, r1
 8007634:	6553      	str	r3, [r2, #84]	@ 0x54
 8007636:	682b      	ldr	r3, [r5, #0]
 8007638:	06da      	lsls	r2, r3, #27
 800763a:	d514      	bpl.n	8007666 <HAL_RCCEx_PeriphCLKConfig+0x682>
 800763c:	f8d5 3098 	ldr.w	r3, [r5, #152]	@ 0x98
 8007640:	f5b3 7f80 	cmp.w	r3, #256	@ 0x100
 8007644:	d107      	bne.n	8007656 <HAL_RCCEx_PeriphCLKConfig+0x672>
 8007646:	2102      	movs	r1, #2
 8007648:	f105 0028 	add.w	r0, r5, #40	@ 0x28
 800764c:	f7ff fc52 	bl	8006ef4 <RCCEx_PLL3_Config>
 8007650:	2800      	cmp	r0, #0
 8007652:	bf18      	it	ne
 8007654:	2601      	movne	r6, #1
 8007656:	4a74      	ldr	r2, [pc, #464]	@ (8007828 <HAL_RCCEx_PeriphCLKConfig+0x844>)
 8007658:	f8d5 1098 	ldr.w	r1, [r5, #152]	@ 0x98
 800765c:	6d93      	ldr	r3, [r2, #88]	@ 0x58
 800765e:	f423 7340 	bic.w	r3, r3, #768	@ 0x300
 8007662:	430b      	orrs	r3, r1
 8007664:	6593      	str	r3, [r2, #88]	@ 0x58
 8007666:	682b      	ldr	r3, [r5, #0]
 8007668:	031b      	lsls	r3, r3, #12
 800766a:	d51b      	bpl.n	80076a4 <HAL_RCCEx_PeriphCLKConfig+0x6c0>
 800766c:	f8d5 10a4 	ldr.w	r1, [r5, #164]	@ 0xa4
 8007670:	f5b1 3f80 	cmp.w	r1, #65536	@ 0x10000
 8007674:	f000 8140 	beq.w	80078f8 <HAL_RCCEx_PeriphCLKConfig+0x914>
 8007678:	f5b1 3f00 	cmp.w	r1, #131072	@ 0x20000
 800767c:	d007      	beq.n	800768e <HAL_RCCEx_PeriphCLKConfig+0x6aa>
 800767e:	2900      	cmp	r1, #0
 8007680:	f040 8140 	bne.w	8007904 <HAL_RCCEx_PeriphCLKConfig+0x920>
 8007684:	f105 0008 	add.w	r0, r5, #8
 8007688:	f7ff fbbc 	bl	8006e04 <RCCEx_PLL2_Config>
 800768c:	4604      	mov	r4, r0
 800768e:	2c00      	cmp	r4, #0
 8007690:	f040 813b 	bne.w	800790a <HAL_RCCEx_PeriphCLKConfig+0x926>
 8007694:	4a64      	ldr	r2, [pc, #400]	@ (8007828 <HAL_RCCEx_PeriphCLKConfig+0x844>)
 8007696:	f8d5 10a4 	ldr.w	r1, [r5, #164]	@ 0xa4
 800769a:	6d93      	ldr	r3, [r2, #88]	@ 0x58
 800769c:	f423 3340 	bic.w	r3, r3, #196608	@ 0x30000
 80076a0:	430b      	orrs	r3, r1
 80076a2:	6593      	str	r3, [r2, #88]	@ 0x58
 80076a4:	682b      	ldr	r3, [r5, #0]
 80076a6:	035f      	lsls	r7, r3, #13
 80076a8:	d50f      	bpl.n	80076ca <HAL_RCCEx_PeriphCLKConfig+0x6e6>
 80076aa:	f8d5 3088 	ldr.w	r3, [r5, #136]	@ 0x88
 80076ae:	f5b3 1f00 	cmp.w	r3, #2097152	@ 0x200000
 80076b2:	f000 813b 	beq.w	800792c <HAL_RCCEx_PeriphCLKConfig+0x948>
 80076b6:	f5b3 1f40 	cmp.w	r3, #3145728	@ 0x300000
 80076ba:	f000 812d 	beq.w	8007918 <HAL_RCCEx_PeriphCLKConfig+0x934>
 80076be:	f5b3 1f80 	cmp.w	r3, #1048576	@ 0x100000
 80076c2:	f000 8124 	beq.w	800790e <HAL_RCCEx_PeriphCLKConfig+0x92a>
 80076c6:	2601      	movs	r6, #1
 80076c8:	4634      	mov	r4, r6
 80076ca:	682b      	ldr	r3, [r5, #0]
 80076cc:	03d8      	lsls	r0, r3, #15
 80076ce:	d509      	bpl.n	80076e4 <HAL_RCCEx_PeriphCLKConfig+0x700>
 80076d0:	6d2b      	ldr	r3, [r5, #80]	@ 0x50
 80076d2:	2b00      	cmp	r3, #0
 80076d4:	f000 8133 	beq.w	800793e <HAL_RCCEx_PeriphCLKConfig+0x95a>
 80076d8:	f5b3 3f80 	cmp.w	r3, #65536	@ 0x10000
 80076dc:	f000 813d 	beq.w	800795a <HAL_RCCEx_PeriphCLKConfig+0x976>
 80076e0:	2601      	movs	r6, #1
 80076e2:	4634      	mov	r4, r6
 80076e4:	682b      	ldr	r3, [r5, #0]
 80076e6:	0099      	lsls	r1, r3, #2
 80076e8:	d507      	bpl.n	80076fa <HAL_RCCEx_PeriphCLKConfig+0x716>
 80076ea:	2102      	movs	r1, #2
 80076ec:	f105 0028 	add.w	r0, r5, #40	@ 0x28
 80076f0:	f7ff fc00 	bl	8006ef4 <RCCEx_PLL3_Config>
 80076f4:	2800      	cmp	r0, #0
 80076f6:	bf18      	it	ne
 80076f8:	2601      	movne	r6, #1
 80076fa:	e9d5 3100 	ldrd	r3, r1, [r5]
 80076fe:	039a      	lsls	r2, r3, #14
 8007700:	f140 8143 	bpl.w	800798a <HAL_RCCEx_PeriphCLKConfig+0x9a6>
 8007704:	f8d5 0080 	ldr.w	r0, [r5, #128]	@ 0x80
 8007708:	f5b0 7f80 	cmp.w	r0, #256	@ 0x100
 800770c:	f000 813f 	beq.w	800798e <HAL_RCCEx_PeriphCLKConfig+0x9aa>
 8007710:	f200 812c 	bhi.w	800796c <HAL_RCCEx_PeriphCLKConfig+0x988>
 8007714:	2800      	cmp	r0, #0
 8007716:	f000 812f 	beq.w	8007978 <HAL_RCCEx_PeriphCLKConfig+0x994>
 800771a:	2401      	movs	r4, #1
 800771c:	02df      	lsls	r7, r3, #11
 800771e:	d506      	bpl.n	800772e <HAL_RCCEx_PeriphCLKConfig+0x74a>
 8007720:	4841      	ldr	r0, [pc, #260]	@ (8007828 <HAL_RCCEx_PeriphCLKConfig+0x844>)
 8007722:	6f6e      	ldr	r6, [r5, #116]	@ 0x74
 8007724:	6d02      	ldr	r2, [r0, #80]	@ 0x50
 8007726:	f022 4200 	bic.w	r2, r2, #2147483648	@ 0x80000000
 800772a:	4332      	orrs	r2, r6
 800772c:	6502      	str	r2, [r0, #80]	@ 0x50
 800772e:	00de      	lsls	r6, r3, #3
 8007730:	d507      	bpl.n	8007742 <HAL_RCCEx_PeriphCLKConfig+0x75e>
 8007732:	483d      	ldr	r0, [pc, #244]	@ (8007828 <HAL_RCCEx_PeriphCLKConfig+0x844>)
 8007734:	f8d5 60b8 	ldr.w	r6, [r5, #184]	@ 0xb8
 8007738:	6902      	ldr	r2, [r0, #16]
 800773a:	f422 4280 	bic.w	r2, r2, #16384	@ 0x4000
 800773e:	4332      	orrs	r2, r6
 8007740:	6102      	str	r2, [r0, #16]
 8007742:	0298      	lsls	r0, r3, #10
 8007744:	d506      	bpl.n	8007754 <HAL_RCCEx_PeriphCLKConfig+0x770>
 8007746:	4838      	ldr	r0, [pc, #224]	@ (8007828 <HAL_RCCEx_PeriphCLKConfig+0x844>)
 8007748:	6eee      	ldr	r6, [r5, #108]	@ 0x6c
 800774a:	6d02      	ldr	r2, [r0, #80]	@ 0x50
 800774c:	f022 7280 	bic.w	r2, r2, #16777216	@ 0x1000000
 8007750:	4332      	orrs	r2, r6
 8007752:	6502      	str	r2, [r0, #80]	@ 0x50
 8007754:	005a      	lsls	r2, r3, #1
 8007756:	d509      	bpl.n	800776c <HAL_RCCEx_PeriphCLKConfig+0x788>
 8007758:	4a33      	ldr	r2, [pc, #204]	@ (8007828 <HAL_RCCEx_PeriphCLKConfig+0x844>)
 800775a:	6910      	ldr	r0, [r2, #16]
 800775c:	f420 4000 	bic.w	r0, r0, #32768	@ 0x8000
 8007760:	6110      	str	r0, [r2, #16]
 8007762:	6910      	ldr	r0, [r2, #16]
 8007764:	f8d5 60bc 	ldr.w	r6, [r5, #188]	@ 0xbc
 8007768:	4330      	orrs	r0, r6
 800776a:	6110      	str	r0, [r2, #16]
 800776c:	2b00      	cmp	r3, #0
 800776e:	da06      	bge.n	800777e <HAL_RCCEx_PeriphCLKConfig+0x79a>
 8007770:	482d      	ldr	r0, [pc, #180]	@ (8007828 <HAL_RCCEx_PeriphCLKConfig+0x844>)
 8007772:	6d6e      	ldr	r6, [r5, #84]	@ 0x54
 8007774:	6cc2      	ldr	r2, [r0, #76]	@ 0x4c
 8007776:	f022 5240 	bic.w	r2, r2, #805306368	@ 0x30000000
 800777a:	4332      	orrs	r2, r6
 800777c:	64c2      	str	r2, [r0, #76]	@ 0x4c
 800777e:	021f      	lsls	r7, r3, #8
 8007780:	d507      	bpl.n	8007792 <HAL_RCCEx_PeriphCLKConfig+0x7ae>
 8007782:	4a29      	ldr	r2, [pc, #164]	@ (8007828 <HAL_RCCEx_PeriphCLKConfig+0x844>)
 8007784:	f8d5 008c 	ldr.w	r0, [r5, #140]	@ 0x8c
 8007788:	6d53      	ldr	r3, [r2, #84]	@ 0x54
 800778a:	f423 0340 	bic.w	r3, r3, #12582912	@ 0xc00000
 800778e:	4303      	orrs	r3, r0
 8007790:	6553      	str	r3, [r2, #84]	@ 0x54
 8007792:	07ce      	lsls	r6, r1, #31
 8007794:	d506      	bpl.n	80077a4 <HAL_RCCEx_PeriphCLKConfig+0x7c0>
 8007796:	2100      	movs	r1, #0
 8007798:	f105 0008 	add.w	r0, r5, #8
 800779c:	f7ff fb32 	bl	8006e04 <RCCEx_PLL2_Config>
 80077a0:	4607      	mov	r7, r0
 80077a2:	b900      	cbnz	r0, 80077a6 <HAL_RCCEx_PeriphCLKConfig+0x7c2>
 80077a4:	4627      	mov	r7, r4
 80077a6:	686b      	ldr	r3, [r5, #4]
 80077a8:	079c      	lsls	r4, r3, #30
 80077aa:	d506      	bpl.n	80077ba <HAL_RCCEx_PeriphCLKConfig+0x7d6>
 80077ac:	2101      	movs	r1, #1
 80077ae:	f105 0008 	add.w	r0, r5, #8
 80077b2:	f7ff fb27 	bl	8006e04 <RCCEx_PLL2_Config>
 80077b6:	4606      	mov	r6, r0
 80077b8:	b900      	cbnz	r0, 80077bc <HAL_RCCEx_PeriphCLKConfig+0x7d8>
 80077ba:	463e      	mov	r6, r7
 80077bc:	686b      	ldr	r3, [r5, #4]
 80077be:	0758      	lsls	r0, r3, #29
 80077c0:	d506      	bpl.n	80077d0 <HAL_RCCEx_PeriphCLKConfig+0x7ec>
 80077c2:	2102      	movs	r1, #2
 80077c4:	f105 0008 	add.w	r0, r5, #8
 80077c8:	f7ff fb1c 	bl	8006e04 <RCCEx_PLL2_Config>
 80077cc:	4604      	mov	r4, r0
 80077ce:	b900      	cbnz	r0, 80077d2 <HAL_RCCEx_PeriphCLKConfig+0x7ee>
 80077d0:	4634      	mov	r4, r6
 80077d2:	686b      	ldr	r3, [r5, #4]
 80077d4:	0719      	lsls	r1, r3, #28
 80077d6:	d506      	bpl.n	80077e6 <HAL_RCCEx_PeriphCLKConfig+0x802>
 80077d8:	2100      	movs	r1, #0
 80077da:	f105 0028 	add.w	r0, r5, #40	@ 0x28
 80077de:	f7ff fb89 	bl	8006ef4 <RCCEx_PLL3_Config>
 80077e2:	4606      	mov	r6, r0
 80077e4:	b900      	cbnz	r0, 80077e8 <HAL_RCCEx_PeriphCLKConfig+0x804>
 80077e6:	4626      	mov	r6, r4
 80077e8:	686b      	ldr	r3, [r5, #4]
 80077ea:	06da      	lsls	r2, r3, #27
 80077ec:	d506      	bpl.n	80077fc <HAL_RCCEx_PeriphCLKConfig+0x818>
 80077ee:	2101      	movs	r1, #1
 80077f0:	f105 0028 	add.w	r0, r5, #40	@ 0x28
 80077f4:	f7ff fb7e 	bl	8006ef4 <RCCEx_PLL3_Config>
 80077f8:	4604      	mov	r4, r0
 80077fa:	b900      	cbnz	r0, 80077fe <HAL_RCCEx_PeriphCLKConfig+0x81a>
 80077fc:	4634      	mov	r4, r6
 80077fe:	686b      	ldr	r3, [r5, #4]
 8007800:	069b      	lsls	r3, r3, #26
 8007802:	f100 80ca 	bmi.w	800799a <HAL_RCCEx_PeriphCLKConfig+0x9b6>
 8007806:	1e20      	subs	r0, r4, #0
 8007808:	bf18      	it	ne
 800780a:	2001      	movne	r0, #1
 800780c:	e8bd 83f8 	ldmia.w	sp!, {r3, r4, r5, r6, r7, r8, r9, pc}
 8007810:	2101      	movs	r1, #1
 8007812:	f105 0028 	add.w	r0, r5, #40	@ 0x28
 8007816:	f7ff fb6d 	bl	8006ef4 <RCCEx_PLL3_Config>
 800781a:	e6ac      	b.n	8007576 <HAL_RCCEx_PeriphCLKConfig+0x592>
 800781c:	2601      	movs	r6, #1
 800781e:	4634      	mov	r4, r6
 8007820:	e6b5      	b.n	800758e <HAL_RCCEx_PeriphCLKConfig+0x5aa>
 8007822:	4626      	mov	r6, r4
 8007824:	e6b3      	b.n	800758e <HAL_RCCEx_PeriphCLKConfig+0x5aa>
 8007826:	bf00      	nop
 8007828:	58024400 	.word	0x58024400
 800782c:	f023 5280 	bic.w	r2, r3, #268435456	@ 0x10000000
 8007830:	f1b2 4f80 	cmp.w	r2, #1073741824	@ 0x40000000
 8007834:	d003      	beq.n	800783e <HAL_RCCEx_PeriphCLKConfig+0x85a>
 8007836:	f1b3 5f40 	cmp.w	r3, #805306368	@ 0x30000000
 800783a:	f47f aeba 	bne.w	80075b2 <HAL_RCCEx_PeriphCLKConfig+0x5ce>
 800783e:	b9ac      	cbnz	r4, 800786c <HAL_RCCEx_PeriphCLKConfig+0x888>
 8007840:	4a5b      	ldr	r2, [pc, #364]	@ (80079b0 <HAL_RCCEx_PeriphCLKConfig+0x9cc>)
 8007842:	f8d5 1090 	ldr.w	r1, [r5, #144]	@ 0x90
 8007846:	6d53      	ldr	r3, [r2, #84]	@ 0x54
 8007848:	f023 43e0 	bic.w	r3, r3, #1879048192	@ 0x70000000
 800784c:	430b      	orrs	r3, r1
 800784e:	6553      	str	r3, [r2, #84]	@ 0x54
 8007850:	e6b1      	b.n	80075b6 <HAL_RCCEx_PeriphCLKConfig+0x5d2>
 8007852:	2100      	movs	r1, #0
 8007854:	f105 0008 	add.w	r0, r5, #8
 8007858:	f7ff fad4 	bl	8006e04 <RCCEx_PLL2_Config>
 800785c:	4604      	mov	r4, r0
 800785e:	e7ee      	b.n	800783e <HAL_RCCEx_PeriphCLKConfig+0x85a>
 8007860:	2102      	movs	r1, #2
 8007862:	f105 0028 	add.w	r0, r5, #40	@ 0x28
 8007866:	f7ff fb45 	bl	8006ef4 <RCCEx_PLL3_Config>
 800786a:	e7f7      	b.n	800785c <HAL_RCCEx_PeriphCLKConfig+0x878>
 800786c:	4626      	mov	r6, r4
 800786e:	e6a2      	b.n	80075b6 <HAL_RCCEx_PeriphCLKConfig+0x5d2>
 8007870:	f423 6280 	bic.w	r2, r3, #1024	@ 0x400
 8007874:	f5b2 5f80 	cmp.w	r2, #4096	@ 0x1000
 8007878:	d003      	beq.n	8007882 <HAL_RCCEx_PeriphCLKConfig+0x89e>
 800787a:	f5b3 6f40 	cmp.w	r3, #3072	@ 0xc00
 800787e:	f47f aeac 	bne.w	80075da <HAL_RCCEx_PeriphCLKConfig+0x5f6>
 8007882:	b9ac      	cbnz	r4, 80078b0 <HAL_RCCEx_PeriphCLKConfig+0x8cc>
 8007884:	4a4a      	ldr	r2, [pc, #296]	@ (80079b0 <HAL_RCCEx_PeriphCLKConfig+0x9cc>)
 8007886:	f8d5 109c 	ldr.w	r1, [r5, #156]	@ 0x9c
 800788a:	6d93      	ldr	r3, [r2, #88]	@ 0x58
 800788c:	f423 53e0 	bic.w	r3, r3, #7168	@ 0x1c00
 8007890:	430b      	orrs	r3, r1
 8007892:	6593      	str	r3, [r2, #88]	@ 0x58
 8007894:	e6a3      	b.n	80075de <HAL_RCCEx_PeriphCLKConfig+0x5fa>
 8007896:	2100      	movs	r1, #0
 8007898:	f105 0008 	add.w	r0, r5, #8
 800789c:	f7ff fab2 	bl	8006e04 <RCCEx_PLL2_Config>
 80078a0:	4604      	mov	r4, r0
 80078a2:	e7ee      	b.n	8007882 <HAL_RCCEx_PeriphCLKConfig+0x89e>
 80078a4:	2102      	movs	r1, #2
 80078a6:	f105 0028 	add.w	r0, r5, #40	@ 0x28
 80078aa:	f7ff fb23 	bl	8006ef4 <RCCEx_PLL3_Config>
 80078ae:	e7f7      	b.n	80078a0 <HAL_RCCEx_PeriphCLKConfig+0x8bc>
 80078b0:	4626      	mov	r6, r4
 80078b2:	e694      	b.n	80075de <HAL_RCCEx_PeriphCLKConfig+0x5fa>
 80078b4:	f423 5200 	bic.w	r2, r3, #8192	@ 0x2000
 80078b8:	f5b2 4f00 	cmp.w	r2, #32768	@ 0x8000
 80078bc:	d003      	beq.n	80078c6 <HAL_RCCEx_PeriphCLKConfig+0x8e2>
 80078be:	f5b3 4fc0 	cmp.w	r3, #24576	@ 0x6000
 80078c2:	f47f ae9e 	bne.w	8007602 <HAL_RCCEx_PeriphCLKConfig+0x61e>
 80078c6:	b9ac      	cbnz	r4, 80078f4 <HAL_RCCEx_PeriphCLKConfig+0x910>
 80078c8:	4a39      	ldr	r2, [pc, #228]	@ (80079b0 <HAL_RCCEx_PeriphCLKConfig+0x9cc>)
 80078ca:	f8d5 10a0 	ldr.w	r1, [r5, #160]	@ 0xa0
 80078ce:	6d93      	ldr	r3, [r2, #88]	@ 0x58
 80078d0:	f423 4360 	bic.w	r3, r3, #57344	@ 0xe000
 80078d4:	430b      	orrs	r3, r1
 80078d6:	6593      	str	r3, [r2, #88]	@ 0x58
 80078d8:	e695      	b.n	8007606 <HAL_RCCEx_PeriphCLKConfig+0x622>
 80078da:	2100      	movs	r1, #0
 80078dc:	f105 0008 	add.w	r0, r5, #8
 80078e0:	f7ff fa90 	bl	8006e04 <RCCEx_PLL2_Config>
 80078e4:	4604      	mov	r4, r0
 80078e6:	e7ee      	b.n	80078c6 <HAL_RCCEx_PeriphCLKConfig+0x8e2>
 80078e8:	2102      	movs	r1, #2
 80078ea:	f105 0028 	add.w	r0, r5, #40	@ 0x28
 80078ee:	f7ff fb01 	bl	8006ef4 <RCCEx_PLL3_Config>
 80078f2:	e7f7      	b.n	80078e4 <HAL_RCCEx_PeriphCLKConfig+0x900>
 80078f4:	4626      	mov	r6, r4
 80078f6:	e686      	b.n	8007606 <HAL_RCCEx_PeriphCLKConfig+0x622>
 80078f8:	2102      	movs	r1, #2
 80078fa:	f105 0028 	add.w	r0, r5, #40	@ 0x28
 80078fe:	f7ff faf9 	bl	8006ef4 <RCCEx_PLL3_Config>
 8007902:	e6c3      	b.n	800768c <HAL_RCCEx_PeriphCLKConfig+0x6a8>
 8007904:	2601      	movs	r6, #1
 8007906:	4634      	mov	r4, r6
 8007908:	e6cc      	b.n	80076a4 <HAL_RCCEx_PeriphCLKConfig+0x6c0>
 800790a:	4626      	mov	r6, r4
 800790c:	e6ca      	b.n	80076a4 <HAL_RCCEx_PeriphCLKConfig+0x6c0>
 800790e:	4a28      	ldr	r2, [pc, #160]	@ (80079b0 <HAL_RCCEx_PeriphCLKConfig+0x9cc>)
 8007910:	6ad3      	ldr	r3, [r2, #44]	@ 0x2c
 8007912:	f443 3300 	orr.w	r3, r3, #131072	@ 0x20000
 8007916:	62d3      	str	r3, [r2, #44]	@ 0x2c
 8007918:	b97c      	cbnz	r4, 800793a <HAL_RCCEx_PeriphCLKConfig+0x956>
 800791a:	4a25      	ldr	r2, [pc, #148]	@ (80079b0 <HAL_RCCEx_PeriphCLKConfig+0x9cc>)
 800791c:	f8d5 1088 	ldr.w	r1, [r5, #136]	@ 0x88
 8007920:	6d53      	ldr	r3, [r2, #84]	@ 0x54
 8007922:	f423 1340 	bic.w	r3, r3, #3145728	@ 0x300000
 8007926:	430b      	orrs	r3, r1
 8007928:	6553      	str	r3, [r2, #84]	@ 0x54
 800792a:	e6ce      	b.n	80076ca <HAL_RCCEx_PeriphCLKConfig+0x6e6>
 800792c:	2101      	movs	r1, #1
 800792e:	f105 0028 	add.w	r0, r5, #40	@ 0x28
 8007932:	f7ff fadf 	bl	8006ef4 <RCCEx_PLL3_Config>
 8007936:	4604      	mov	r4, r0
 8007938:	e7ee      	b.n	8007918 <HAL_RCCEx_PeriphCLKConfig+0x934>
 800793a:	4626      	mov	r6, r4
 800793c:	e6c5      	b.n	80076ca <HAL_RCCEx_PeriphCLKConfig+0x6e6>
 800793e:	4a1c      	ldr	r2, [pc, #112]	@ (80079b0 <HAL_RCCEx_PeriphCLKConfig+0x9cc>)
 8007940:	6ad3      	ldr	r3, [r2, #44]	@ 0x2c
 8007942:	f443 3300 	orr.w	r3, r3, #131072	@ 0x20000
 8007946:	62d3      	str	r3, [r2, #44]	@ 0x2c
 8007948:	b974      	cbnz	r4, 8007968 <HAL_RCCEx_PeriphCLKConfig+0x984>
 800794a:	4a19      	ldr	r2, [pc, #100]	@ (80079b0 <HAL_RCCEx_PeriphCLKConfig+0x9cc>)
 800794c:	6d29      	ldr	r1, [r5, #80]	@ 0x50
 800794e:	6cd3      	ldr	r3, [r2, #76]	@ 0x4c
 8007950:	f423 3380 	bic.w	r3, r3, #65536	@ 0x10000
 8007954:	430b      	orrs	r3, r1
 8007956:	64d3      	str	r3, [r2, #76]	@ 0x4c
 8007958:	e6c4      	b.n	80076e4 <HAL_RCCEx_PeriphCLKConfig+0x700>
 800795a:	2102      	movs	r1, #2
 800795c:	f105 0008 	add.w	r0, r5, #8
 8007960:	f7ff fa50 	bl	8006e04 <RCCEx_PLL2_Config>
 8007964:	4604      	mov	r4, r0
 8007966:	e7ef      	b.n	8007948 <HAL_RCCEx_PeriphCLKConfig+0x964>
 8007968:	4626      	mov	r6, r4
 800796a:	e6bb      	b.n	80076e4 <HAL_RCCEx_PeriphCLKConfig+0x700>
 800796c:	f420 7280 	bic.w	r2, r0, #256	@ 0x100
 8007970:	f5b2 7f00 	cmp.w	r2, #512	@ 0x200
 8007974:	f47f aed1 	bne.w	800771a <HAL_RCCEx_PeriphCLKConfig+0x736>
 8007978:	2c00      	cmp	r4, #0
 800797a:	f47f aecf 	bne.w	800771c <HAL_RCCEx_PeriphCLKConfig+0x738>
 800797e:	4c0c      	ldr	r4, [pc, #48]	@ (80079b0 <HAL_RCCEx_PeriphCLKConfig+0x9cc>)
 8007980:	6d62      	ldr	r2, [r4, #84]	@ 0x54
 8007982:	f422 7240 	bic.w	r2, r2, #768	@ 0x300
 8007986:	4302      	orrs	r2, r0
 8007988:	6562      	str	r2, [r4, #84]	@ 0x54
 800798a:	4634      	mov	r4, r6
 800798c:	e6c6      	b.n	800771c <HAL_RCCEx_PeriphCLKConfig+0x738>
 800798e:	4f08      	ldr	r7, [pc, #32]	@ (80079b0 <HAL_RCCEx_PeriphCLKConfig+0x9cc>)
 8007990:	6afa      	ldr	r2, [r7, #44]	@ 0x2c
 8007992:	f442 3200 	orr.w	r2, r2, #131072	@ 0x20000
 8007996:	62fa      	str	r2, [r7, #44]	@ 0x2c
 8007998:	e7ee      	b.n	8007978 <HAL_RCCEx_PeriphCLKConfig+0x994>
 800799a:	2102      	movs	r1, #2
 800799c:	f105 0028 	add.w	r0, r5, #40	@ 0x28
 80079a0:	f7ff faa8 	bl	8006ef4 <RCCEx_PLL3_Config>
 80079a4:	2800      	cmp	r0, #0
 80079a6:	f43f af2e 	beq.w	8007806 <HAL_RCCEx_PeriphCLKConfig+0x822>
 80079aa:	2001      	movs	r0, #1
 80079ac:	e72e      	b.n	800780c <HAL_RCCEx_PeriphCLKConfig+0x828>
 80079ae:	bf00      	nop
 80079b0:	58024400 	.word	0x58024400

080079b4 <HAL_RCCEx_GetD3PCLK1Freq>:
 80079b4:	b508      	push	{r3, lr}
 80079b6:	f7ff f9df 	bl	8006d78 <HAL_RCC_GetHCLKFreq>
 80079ba:	4b05      	ldr	r3, [pc, #20]	@ (80079d0 <HAL_RCCEx_GetD3PCLK1Freq+0x1c>)
 80079bc:	4a05      	ldr	r2, [pc, #20]	@ (80079d4 <HAL_RCCEx_GetD3PCLK1Freq+0x20>)
 80079be:	6a1b      	ldr	r3, [r3, #32]
 80079c0:	f3c3 1302 	ubfx	r3, r3, #4, #3
 80079c4:	5cd3      	ldrb	r3, [r2, r3]
 80079c6:	f003 031f 	and.w	r3, r3, #31
 80079ca:	40d8      	lsrs	r0, r3
 80079cc:	bd08      	pop	{r3, pc}
 80079ce:	bf00      	nop
 80079d0:	58024400 	.word	0x58024400
 80079d4:	0800dd58 	.word	0x0800dd58

080079d8 <HAL_RCCEx_GetPLL2ClockFreq>:
 80079d8:	494f      	ldr	r1, [pc, #316]	@ (8007b18 <HAL_RCCEx_GetPLL2ClockFreq+0x140>)
 80079da:	b570      	push	{r4, r5, r6, lr}
 80079dc:	6a8c      	ldr	r4, [r1, #40]	@ 0x28
 80079de:	6a8e      	ldr	r6, [r1, #40]	@ 0x28
 80079e0:	6acd      	ldr	r5, [r1, #44]	@ 0x2c
 80079e2:	f416 3f7c 	tst.w	r6, #258048	@ 0x3f000
 80079e6:	f3c6 3305 	ubfx	r3, r6, #12, #6
 80079ea:	6bca      	ldr	r2, [r1, #60]	@ 0x3c
 80079ec:	f000 8090 	beq.w	8007b10 <HAL_RCCEx_GetPLL2ClockFreq+0x138>
 80079f0:	ee07 3a90 	vmov	s15, r3
 80079f4:	f3c2 03cc 	ubfx	r3, r2, #3, #13
 80079f8:	f3c5 1200 	ubfx	r2, r5, #4, #1
 80079fc:	f004 0403 	and.w	r4, r4, #3
 8007a00:	eeb8 7ae7 	vcvt.f32.s32	s14, s15
 8007a04:	4353      	muls	r3, r2
 8007a06:	2c01      	cmp	r4, #1
 8007a08:	eeb7 6a00 	vmov.f32	s12, #112	@ 0x3f800000  1.0
 8007a0c:	ee06 3a90 	vmov	s13, r3
 8007a10:	eefa 6ae9 	vcvt.f32.s32	s13, s13, #13
 8007a14:	d06e      	beq.n	8007af4 <HAL_RCCEx_GetPLL2ClockFreq+0x11c>
 8007a16:	2c02      	cmp	r4, #2
 8007a18:	d05e      	beq.n	8007ad8 <HAL_RCCEx_GetPLL2ClockFreq+0x100>
 8007a1a:	2c00      	cmp	r4, #0
 8007a1c:	d16a      	bne.n	8007af4 <HAL_RCCEx_GetPLL2ClockFreq+0x11c>
 8007a1e:	680b      	ldr	r3, [r1, #0]
 8007a20:	069b      	lsls	r3, r3, #26
 8007a22:	d547      	bpl.n	8007ab4 <HAL_RCCEx_GetPLL2ClockFreq+0xdc>
 8007a24:	680a      	ldr	r2, [r1, #0]
 8007a26:	6b8b      	ldr	r3, [r1, #56]	@ 0x38
 8007a28:	f3c2 01c1 	ubfx	r1, r2, #3, #2
 8007a2c:	4a3b      	ldr	r2, [pc, #236]	@ (8007b1c <HAL_RCCEx_GetPLL2ClockFreq+0x144>)
 8007a2e:	f3c3 0308 	ubfx	r3, r3, #0, #9
 8007a32:	40ca      	lsrs	r2, r1
 8007a34:	ee07 2a90 	vmov	s15, r2
 8007a38:	eef8 5ae7 	vcvt.f32.s32	s11, s15
 8007a3c:	eec5 7a87 	vdiv.f32	s15, s11, s14
 8007a40:	ee07 3a10 	vmov	s14, r3
 8007a44:	eeb8 7ac7 	vcvt.f32.s32	s14, s14
 8007a48:	ee37 7a26 	vadd.f32	s14, s14, s13
 8007a4c:	ee37 7a06 	vadd.f32	s14, s14, s12
 8007a50:	ee67 7a87 	vmul.f32	s15, s15, s14
 8007a54:	4a30      	ldr	r2, [pc, #192]	@ (8007b18 <HAL_RCCEx_GetPLL2ClockFreq+0x140>)
 8007a56:	6b93      	ldr	r3, [r2, #56]	@ 0x38
 8007a58:	f3c3 2346 	ubfx	r3, r3, #9, #7
 8007a5c:	ee07 3a10 	vmov	s14, r3
 8007a60:	eeb8 7ac7 	vcvt.f32.s32	s14, s14
 8007a64:	ee37 7a06 	vadd.f32	s14, s14, s12
 8007a68:	eec7 6a87 	vdiv.f32	s13, s15, s14
 8007a6c:	eefc 6ae6 	vcvt.u32.f32	s13, s13
 8007a70:	edc0 6a00 	vstr	s13, [r0]
 8007a74:	6b93      	ldr	r3, [r2, #56]	@ 0x38
 8007a76:	f3c3 4306 	ubfx	r3, r3, #16, #7
 8007a7a:	ee07 3a10 	vmov	s14, r3
 8007a7e:	eeb8 7ac7 	vcvt.f32.s32	s14, s14
 8007a82:	ee37 7a06 	vadd.f32	s14, s14, s12
 8007a86:	eec7 6a87 	vdiv.f32	s13, s15, s14
 8007a8a:	eefc 6ae6 	vcvt.u32.f32	s13, s13
 8007a8e:	edc0 6a01 	vstr	s13, [r0, #4]
 8007a92:	6b93      	ldr	r3, [r2, #56]	@ 0x38
 8007a94:	f3c3 6306 	ubfx	r3, r3, #24, #7
 8007a98:	ee06 3a90 	vmov	s13, r3
 8007a9c:	eef8 6ae6 	vcvt.f32.s32	s13, s13
 8007aa0:	ee76 6a86 	vadd.f32	s13, s13, s12
 8007aa4:	ee87 7aa6 	vdiv.f32	s14, s15, s13
 8007aa8:	eefc 7ac7 	vcvt.u32.f32	s15, s14
 8007aac:	ee17 3a90 	vmov	r3, s15
 8007ab0:	6083      	str	r3, [r0, #8]
 8007ab2:	bd70      	pop	{r4, r5, r6, pc}
 8007ab4:	6b8b      	ldr	r3, [r1, #56]	@ 0x38
 8007ab6:	eddf 5a1a 	vldr	s11, [pc, #104]	@ 8007b20 <HAL_RCCEx_GetPLL2ClockFreq+0x148>
 8007aba:	f3c3 0308 	ubfx	r3, r3, #0, #9
 8007abe:	ee07 3a90 	vmov	s15, r3
 8007ac2:	eef8 7ae7 	vcvt.f32.s32	s15, s15
 8007ac6:	ee77 7aa6 	vadd.f32	s15, s15, s13
 8007aca:	ee77 7a86 	vadd.f32	s15, s15, s12
 8007ace:	eec5 6a87 	vdiv.f32	s13, s11, s14
 8007ad2:	ee67 7aa6 	vmul.f32	s15, s15, s13
 8007ad6:	e7bd      	b.n	8007a54 <HAL_RCCEx_GetPLL2ClockFreq+0x7c>
 8007ad8:	6b8b      	ldr	r3, [r1, #56]	@ 0x38
 8007ada:	eddf 5a12 	vldr	s11, [pc, #72]	@ 8007b24 <HAL_RCCEx_GetPLL2ClockFreq+0x14c>
 8007ade:	f3c3 0308 	ubfx	r3, r3, #0, #9
 8007ae2:	ee07 3a90 	vmov	s15, r3
 8007ae6:	eef8 7ae7 	vcvt.f32.s32	s15, s15
 8007aea:	ee77 7aa6 	vadd.f32	s15, s15, s13
 8007aee:	ee77 7a86 	vadd.f32	s15, s15, s12
 8007af2:	e7ec      	b.n	8007ace <HAL_RCCEx_GetPLL2ClockFreq+0xf6>
 8007af4:	6b8b      	ldr	r3, [r1, #56]	@ 0x38
 8007af6:	eddf 5a0c 	vldr	s11, [pc, #48]	@ 8007b28 <HAL_RCCEx_GetPLL2ClockFreq+0x150>
 8007afa:	f3c3 0308 	ubfx	r3, r3, #0, #9
 8007afe:	ee07 3a90 	vmov	s15, r3
 8007b02:	eef8 7ae7 	vcvt.f32.s32	s15, s15
 8007b06:	ee77 7aa6 	vadd.f32	s15, s15, s13
 8007b0a:	ee77 7a86 	vadd.f32	s15, s15, s12
 8007b0e:	e7de      	b.n	8007ace <HAL_RCCEx_GetPLL2ClockFreq+0xf6>
 8007b10:	e9c0 3300 	strd	r3, r3, [r0]
 8007b14:	e7cc      	b.n	8007ab0 <HAL_RCCEx_GetPLL2ClockFreq+0xd8>
 8007b16:	bf00      	nop
 8007b18:	58024400 	.word	0x58024400
 8007b1c:	03d09000 	.word	0x03d09000
 8007b20:	4c742400 	.word	0x4c742400
 8007b24:	4bbebc20 	.word	0x4bbebc20
 8007b28:	4a742400 	.word	0x4a742400

08007b2c <HAL_RCCEx_GetPLL3ClockFreq>:
 8007b2c:	494f      	ldr	r1, [pc, #316]	@ (8007c6c <HAL_RCCEx_GetPLL3ClockFreq+0x140>)
 8007b2e:	b570      	push	{r4, r5, r6, lr}
 8007b30:	6a8c      	ldr	r4, [r1, #40]	@ 0x28
 8007b32:	6a8e      	ldr	r6, [r1, #40]	@ 0x28
 8007b34:	6acd      	ldr	r5, [r1, #44]	@ 0x2c
 8007b36:	f016 7f7c 	tst.w	r6, #66060288	@ 0x3f00000
 8007b3a:	f3c6 5305 	ubfx	r3, r6, #20, #6
 8007b3e:	6c4a      	ldr	r2, [r1, #68]	@ 0x44
 8007b40:	f000 8090 	beq.w	8007c64 <HAL_RCCEx_GetPLL3ClockFreq+0x138>
 8007b44:	ee07 3a90 	vmov	s15, r3
 8007b48:	f3c2 03cc 	ubfx	r3, r2, #3, #13
 8007b4c:	f3c5 2200 	ubfx	r2, r5, #8, #1
 8007b50:	f004 0403 	and.w	r4, r4, #3
 8007b54:	eeb8 7ae7 	vcvt.f32.s32	s14, s15
 8007b58:	4353      	muls	r3, r2
 8007b5a:	2c01      	cmp	r4, #1
 8007b5c:	eeb7 6a00 	vmov.f32	s12, #112	@ 0x3f800000  1.0
 8007b60:	ee06 3a90 	vmov	s13, r3
 8007b64:	eefa 6ae9 	vcvt.f32.s32	s13, s13, #13
 8007b68:	d06e      	beq.n	8007c48 <HAL_RCCEx_GetPLL3ClockFreq+0x11c>
 8007b6a:	2c02      	cmp	r4, #2
 8007b6c:	d05e      	beq.n	8007c2c <HAL_RCCEx_GetPLL3ClockFreq+0x100>
 8007b6e:	2c00      	cmp	r4, #0
 8007b70:	d16a      	bne.n	8007c48 <HAL_RCCEx_GetPLL3ClockFreq+0x11c>
 8007b72:	680b      	ldr	r3, [r1, #0]
 8007b74:	069b      	lsls	r3, r3, #26
 8007b76:	d547      	bpl.n	8007c08 <HAL_RCCEx_GetPLL3ClockFreq+0xdc>
 8007b78:	680a      	ldr	r2, [r1, #0]
 8007b7a:	6c0b      	ldr	r3, [r1, #64]	@ 0x40
 8007b7c:	f3c2 01c1 	ubfx	r1, r2, #3, #2
 8007b80:	4a3b      	ldr	r2, [pc, #236]	@ (8007c70 <HAL_RCCEx_GetPLL3ClockFreq+0x144>)
 8007b82:	f3c3 0308 	ubfx	r3, r3, #0, #9
 8007b86:	40ca      	lsrs	r2, r1
 8007b88:	ee07 2a90 	vmov	s15, r2
 8007b8c:	eef8 5ae7 	vcvt.f32.s32	s11, s15
 8007b90:	eec5 7a87 	vdiv.f32	s15, s11, s14
 8007b94:	ee07 3a10 	vmov	s14, r3
 8007b98:	eeb8 7ac7 	vcvt.f32.s32	s14, s14
 8007b9c:	ee37 7a26 	vadd.f32	s14, s14, s13
 8007ba0:	ee37 7a06 	vadd.f32	s14, s14, s12
 8007ba4:	ee67 7a87 	vmul.f32	s15, s15, s14
 8007ba8:	4a30      	ldr	r2, [pc, #192]	@ (8007c6c <HAL_RCCEx_GetPLL3ClockFreq+0x140>)
 8007baa:	6c13      	ldr	r3, [r2, #64]	@ 0x40
 8007bac:	f3c3 2346 	ubfx	r3, r3, #9, #7
 8007bb0:	ee07 3a10 	vmov	s14, r3
 8007bb4:	eeb8 7ac7 	vcvt.f32.s32	s14, s14
 8007bb8:	ee37 7a06 	vadd.f32	s14, s14, s12
 8007bbc:	eec7 6a87 	vdiv.f32	s13, s15, s14
 8007bc0:	eefc 6ae6 	vcvt.u32.f32	s13, s13
 8007bc4:	edc0 6a00 	vstr	s13, [r0]
 8007bc8:	6c13      	ldr	r3, [r2, #64]	@ 0x40
 8007bca:	f3c3 4306 	ubfx	r3, r3, #16, #7
 8007bce:	ee07 3a10 	vmov	s14, r3
 8007bd2:	eeb8 7ac7 	vcvt.f32.s32	s14, s14
 8007bd6:	ee37 7a06 	vadd.f32	s14, s14, s12
 8007bda:	eec7 6a87 	vdiv.f32	s13, s15, s14
 8007bde:	eefc 6ae6 	vcvt.u32.f32	s13, s13
 8007be2:	edc0 6a01 	vstr	s13, [r0, #4]
 8007be6:	6c13      	ldr	r3, [r2, #64]	@ 0x40
 8007be8:	f3c3 6306 	ubfx	r3, r3, #24, #7
 8007bec:	ee06 3a90 	vmov	s13, r3
 8007bf0:	eef8 6ae6 	vcvt.f32.s32	s13, s13
 8007bf4:	ee76 6a86 	vadd.f32	s13, s13, s12
 8007bf8:	ee87 7aa6 	vdiv.f32	s14, s15, s13
 8007bfc:	eefc 7ac7 	vcvt.u32.f32	s15, s14
 8007c00:	ee17 3a90 	vmov	r3, s15
 8007c04:	6083      	str	r3, [r0, #8]
 8007c06:	bd70      	pop	{r4, r5, r6, pc}
 8007c08:	6c0b      	ldr	r3, [r1, #64]	@ 0x40
 8007c0a:	eddf 5a1a 	vldr	s11, [pc, #104]	@ 8007c74 <HAL_RCCEx_GetPLL3ClockFreq+0x148>
 8007c0e:	f3c3 0308 	ubfx	r3, r3, #0, #9
 8007c12:	ee07 3a90 	vmov	s15, r3
 8007c16:	eef8 7ae7 	vcvt.f32.s32	s15, s15
 8007c1a:	ee77 7aa6 	vadd.f32	s15, s15, s13
 8007c1e:	ee77 7a86 	vadd.f32	s15, s15, s12
 8007c22:	eec5 6a87 	vdiv.f32	s13, s11, s14
 8007c26:	ee67 7aa6 	vmul.f32	s15, s15, s13
 8007c2a:	e7bd      	b.n	8007ba8 <HAL_RCCEx_GetPLL3ClockFreq+0x7c>
 8007c2c:	6c0b      	ldr	r3, [r1, #64]	@ 0x40
 8007c2e:	eddf 5a12 	vldr	s11, [pc, #72]	@ 8007c78 <HAL_RCCEx_GetPLL3ClockFreq+0x14c>
 8007c32:	f3c3 0308 	ubfx	r3, r3, #0, #9
 8007c36:	ee07 3a90 	vmov	s15, r3
 8007c3a:	eef8 7ae7 	vcvt.f32.s32	s15, s15
 8007c3e:	ee77 7aa6 	vadd.f32	s15, s15, s13
 8007c42:	ee77 7a86 	vadd.f32	s15, s15, s12
 8007c46:	e7ec      	b.n	8007c22 <HAL_RCCEx_GetPLL3ClockFreq+0xf6>
 8007c48:	6c0b      	ldr	r3, [r1, #64]	@ 0x40
 8007c4a:	eddf 5a0c 	vldr	s11, [pc, #48]	@ 8007c7c <HAL_RCCEx_GetPLL3ClockFreq+0x150>
 8007c4e:	f3c3 0308 	ubfx	r3, r3, #0, #9
 8007c52:	ee07 3a90 	vmov	s15, r3
 8007c56:	eef8 7ae7 	vcvt.f32.s32	s15, s15
 8007c5a:	ee77 7aa6 	vadd.f32	s15, s15, s13
 8007c5e:	ee77 7a86 	vadd.f32	s15, s15, s12
 8007c62:	e7de      	b.n	8007c22 <HAL_RCCEx_GetPLL3ClockFreq+0xf6>
 8007c64:	e9c0 3300 	strd	r3, r3, [r0]
 8007c68:	e7cc      	b.n	8007c04 <HAL_RCCEx_GetPLL3ClockFreq+0xd8>
 8007c6a:	bf00      	nop
 8007c6c:	58024400 	.word	0x58024400
 8007c70:	03d09000 	.word	0x03d09000
 8007c74:	4c742400 	.word	0x4c742400
 8007c78:	4bbebc20 	.word	0x4bbebc20
 8007c7c:	4a742400 	.word	0x4a742400

08007c80 <SPI_CloseTransfer>:
 8007c80:	6803      	ldr	r3, [r0, #0]
 8007c82:	6959      	ldr	r1, [r3, #20]
 8007c84:	699a      	ldr	r2, [r3, #24]
 8007c86:	f042 0208 	orr.w	r2, r2, #8
 8007c8a:	619a      	str	r2, [r3, #24]
 8007c8c:	699a      	ldr	r2, [r3, #24]
 8007c8e:	f042 0210 	orr.w	r2, r2, #16
 8007c92:	619a      	str	r2, [r3, #24]
 8007c94:	681a      	ldr	r2, [r3, #0]
 8007c96:	f022 0201 	bic.w	r2, r2, #1
 8007c9a:	601a      	str	r2, [r3, #0]
 8007c9c:	691a      	ldr	r2, [r3, #16]
 8007c9e:	f422 725b 	bic.w	r2, r2, #876	@ 0x36c
 8007ca2:	f022 0203 	bic.w	r2, r2, #3
 8007ca6:	611a      	str	r2, [r3, #16]
 8007ca8:	689a      	ldr	r2, [r3, #8]
 8007caa:	f422 4240 	bic.w	r2, r2, #49152	@ 0xc000
 8007cae:	609a      	str	r2, [r3, #8]
 8007cb0:	f890 2081 	ldrb.w	r2, [r0, #129]	@ 0x81
 8007cb4:	2a04      	cmp	r2, #4
 8007cb6:	d00b      	beq.n	8007cd0 <SPI_CloseTransfer+0x50>
 8007cb8:	068a      	lsls	r2, r1, #26
 8007cba:	d509      	bpl.n	8007cd0 <SPI_CloseTransfer+0x50>
 8007cbc:	f8d0 2084 	ldr.w	r2, [r0, #132]	@ 0x84
 8007cc0:	f042 0280 	orr.w	r2, r2, #128	@ 0x80
 8007cc4:	f8c0 2084 	str.w	r2, [r0, #132]	@ 0x84
 8007cc8:	699a      	ldr	r2, [r3, #24]
 8007cca:	f042 0220 	orr.w	r2, r2, #32
 8007cce:	619a      	str	r2, [r3, #24]
 8007cd0:	f890 2081 	ldrb.w	r2, [r0, #129]	@ 0x81
 8007cd4:	2a03      	cmp	r2, #3
 8007cd6:	d00b      	beq.n	8007cf0 <SPI_CloseTransfer+0x70>
 8007cd8:	064a      	lsls	r2, r1, #25
 8007cda:	d509      	bpl.n	8007cf0 <SPI_CloseTransfer+0x70>
 8007cdc:	f8d0 2084 	ldr.w	r2, [r0, #132]	@ 0x84
 8007ce0:	f042 0204 	orr.w	r2, r2, #4
 8007ce4:	f8c0 2084 	str.w	r2, [r0, #132]	@ 0x84
 8007ce8:	699a      	ldr	r2, [r3, #24]
 8007cea:	f042 0240 	orr.w	r2, r2, #64	@ 0x40
 8007cee:	619a      	str	r2, [r3, #24]
 8007cf0:	058a      	lsls	r2, r1, #22
 8007cf2:	d509      	bpl.n	8007d08 <SPI_CloseTransfer+0x88>
 8007cf4:	f8d0 2084 	ldr.w	r2, [r0, #132]	@ 0x84
 8007cf8:	f042 0201 	orr.w	r2, r2, #1
 8007cfc:	f8c0 2084 	str.w	r2, [r0, #132]	@ 0x84
 8007d00:	699a      	ldr	r2, [r3, #24]
 8007d02:	f442 7200 	orr.w	r2, r2, #512	@ 0x200
 8007d06:	619a      	str	r2, [r3, #24]
 8007d08:	05ca      	lsls	r2, r1, #23
 8007d0a:	d509      	bpl.n	8007d20 <SPI_CloseTransfer+0xa0>
 8007d0c:	f8d0 2084 	ldr.w	r2, [r0, #132]	@ 0x84
 8007d10:	f042 0208 	orr.w	r2, r2, #8
 8007d14:	f8c0 2084 	str.w	r2, [r0, #132]	@ 0x84
 8007d18:	699a      	ldr	r2, [r3, #24]
 8007d1a:	f442 7280 	orr.w	r2, r2, #256	@ 0x100
 8007d1e:	619a      	str	r2, [r3, #24]
 8007d20:	2300      	movs	r3, #0
 8007d22:	f8a0 3062 	strh.w	r3, [r0, #98]	@ 0x62
 8007d26:	f8a0 306a 	strh.w	r3, [r0, #106]	@ 0x6a
 8007d2a:	4770      	bx	lr

08007d2c <HAL_SPI_Init>:
 8007d2c:	b5f8      	push	{r3, r4, r5, r6, r7, lr}
 8007d2e:	4604      	mov	r4, r0
 8007d30:	b908      	cbnz	r0, 8007d36 <HAL_SPI_Init+0xa>
 8007d32:	2001      	movs	r0, #1
 8007d34:	bdf8      	pop	{r3, r4, r5, r6, r7, pc}
 8007d36:	6802      	ldr	r2, [r0, #0]
 8007d38:	2300      	movs	r3, #0
 8007d3a:	494d      	ldr	r1, [pc, #308]	@ (8007e70 <HAL_SPI_Init+0x144>)
 8007d3c:	6283      	str	r3, [r0, #40]	@ 0x28
 8007d3e:	428a      	cmp	r2, r1
 8007d40:	68c3      	ldr	r3, [r0, #12]
 8007d42:	d009      	beq.n	8007d58 <HAL_SPI_Init+0x2c>
 8007d44:	f5a1 4178 	sub.w	r1, r1, #63488	@ 0xf800
 8007d48:	428a      	cmp	r2, r1
 8007d4a:	d005      	beq.n	8007d58 <HAL_SPI_Init+0x2c>
 8007d4c:	f501 6180 	add.w	r1, r1, #1024	@ 0x400
 8007d50:	428a      	cmp	r2, r1
 8007d52:	d001      	beq.n	8007d58 <HAL_SPI_Init+0x2c>
 8007d54:	2b0f      	cmp	r3, #15
 8007d56:	d8ec      	bhi.n	8007d32 <HAL_SPI_Init+0x6>
 8007d58:	6be1      	ldr	r1, [r4, #60]	@ 0x3c
 8007d5a:	3308      	adds	r3, #8
 8007d5c:	0949      	lsrs	r1, r1, #5
 8007d5e:	08db      	lsrs	r3, r3, #3
 8007d60:	fb01 3303 	mla	r3, r1, r3, r3
 8007d64:	4942      	ldr	r1, [pc, #264]	@ (8007e70 <HAL_SPI_Init+0x144>)
 8007d66:	428a      	cmp	r2, r1
 8007d68:	d073      	beq.n	8007e52 <HAL_SPI_Init+0x126>
 8007d6a:	f5a1 4178 	sub.w	r1, r1, #63488	@ 0xf800
 8007d6e:	428a      	cmp	r2, r1
 8007d70:	d06f      	beq.n	8007e52 <HAL_SPI_Init+0x126>
 8007d72:	f501 6180 	add.w	r1, r1, #1024	@ 0x400
 8007d76:	428a      	cmp	r2, r1
 8007d78:	d06b      	beq.n	8007e52 <HAL_SPI_Init+0x126>
 8007d7a:	2b08      	cmp	r3, #8
 8007d7c:	d8d9      	bhi.n	8007d32 <HAL_SPI_Init+0x6>
 8007d7e:	f894 3081 	ldrb.w	r3, [r4, #129]	@ 0x81
 8007d82:	f003 02ff 	and.w	r2, r3, #255	@ 0xff
 8007d86:	b923      	cbnz	r3, 8007d92 <HAL_SPI_Init+0x66>
 8007d88:	4620      	mov	r0, r4
 8007d8a:	f884 2080 	strb.w	r2, [r4, #128]	@ 0x80
 8007d8e:	f7fd ff0d 	bl	8005bac <HAL_SPI_MspInit>
 8007d92:	6822      	ldr	r2, [r4, #0]
 8007d94:	2302      	movs	r3, #2
 8007d96:	6861      	ldr	r1, [r4, #4]
 8007d98:	f884 3081 	strb.w	r3, [r4, #129]	@ 0x81
 8007d9c:	6813      	ldr	r3, [r2, #0]
 8007d9e:	6ba6      	ldr	r6, [r4, #56]	@ 0x38
 8007da0:	f023 0301 	bic.w	r3, r3, #1
 8007da4:	6013      	str	r3, [r2, #0]
 8007da6:	6893      	ldr	r3, [r2, #8]
 8007da8:	f403 1cf8 	and.w	ip, r3, #2031616	@ 0x1f0000
 8007dac:	69a3      	ldr	r3, [r4, #24]
 8007dae:	f1b3 6f80 	cmp.w	r3, #67108864	@ 0x4000000
 8007db2:	d104      	bne.n	8007dbe <HAL_SPI_Init+0x92>
 8007db4:	f5b1 0f80 	cmp.w	r1, #4194304	@ 0x400000
 8007db8:	d14d      	bne.n	8007e56 <HAL_SPI_Init+0x12a>
 8007dba:	2e00      	cmp	r6, #0
 8007dbc:	d050      	beq.n	8007e60 <HAL_SPI_Init+0x134>
 8007dbe:	f411 0080 	ands.w	r0, r1, #4194304	@ 0x400000
 8007dc2:	68e5      	ldr	r5, [r4, #12]
 8007dc4:	6817      	ldr	r7, [r2, #0]
 8007dc6:	d050      	beq.n	8007e6a <HAL_SPI_Init+0x13e>
 8007dc8:	2d06      	cmp	r5, #6
 8007dca:	d94e      	bls.n	8007e6a <HAL_SPI_Init+0x13e>
 8007dcc:	f427 7e80 	bic.w	lr, r7, #256	@ 0x100
 8007dd0:	6d27      	ldr	r7, [r4, #80]	@ 0x50
 8007dd2:	ea4e 0707 	orr.w	r7, lr, r7
 8007dd6:	6017      	str	r7, [r2, #0]
 8007dd8:	430b      	orrs	r3, r1
 8007dda:	69e7      	ldr	r7, [r4, #28]
 8007ddc:	4333      	orrs	r3, r6
 8007dde:	433d      	orrs	r5, r7
 8007de0:	6aa7      	ldr	r7, [r4, #40]	@ 0x28
 8007de2:	433d      	orrs	r5, r7
 8007de4:	6be7      	ldr	r7, [r4, #60]	@ 0x3c
 8007de6:	433d      	orrs	r5, r7
 8007de8:	ea45 050c 	orr.w	r5, r5, ip
 8007dec:	6095      	str	r5, [r2, #8]
 8007dee:	6b65      	ldr	r5, [r4, #52]	@ 0x34
 8007df0:	432b      	orrs	r3, r5
 8007df2:	6a65      	ldr	r5, [r4, #36]	@ 0x24
 8007df4:	432b      	orrs	r3, r5
 8007df6:	6925      	ldr	r5, [r4, #16]
 8007df8:	432b      	orrs	r3, r5
 8007dfa:	6965      	ldr	r5, [r4, #20]
 8007dfc:	432b      	orrs	r3, r5
 8007dfe:	6a25      	ldr	r5, [r4, #32]
 8007e00:	432b      	orrs	r3, r5
 8007e02:	6ce5      	ldr	r5, [r4, #76]	@ 0x4c
 8007e04:	432b      	orrs	r3, r5
 8007e06:	68a5      	ldr	r5, [r4, #8]
 8007e08:	432b      	orrs	r3, r5
 8007e0a:	6ca5      	ldr	r5, [r4, #72]	@ 0x48
 8007e0c:	432b      	orrs	r3, r5
 8007e0e:	6da5      	ldr	r5, [r4, #88]	@ 0x58
 8007e10:	432b      	orrs	r3, r5
 8007e12:	60d3      	str	r3, [r2, #12]
 8007e14:	b959      	cbnz	r1, 8007e2e <HAL_SPI_Init+0x102>
 8007e16:	6893      	ldr	r3, [r2, #8]
 8007e18:	f423 53c0 	bic.w	r3, r3, #6144	@ 0x1800
 8007e1c:	f443 6300 	orr.w	r3, r3, #2048	@ 0x800
 8007e20:	6093      	str	r3, [r2, #8]
 8007e22:	6893      	ldr	r3, [r2, #8]
 8007e24:	f423 63c0 	bic.w	r3, r3, #1536	@ 0x600
 8007e28:	f443 6380 	orr.w	r3, r3, #1024	@ 0x400
 8007e2c:	6093      	str	r3, [r2, #8]
 8007e2e:	6d13      	ldr	r3, [r2, #80]	@ 0x50
 8007e30:	f023 0301 	bic.w	r3, r3, #1
 8007e34:	6513      	str	r3, [r2, #80]	@ 0x50
 8007e36:	b128      	cbz	r0, 8007e44 <HAL_SPI_Init+0x118>
 8007e38:	68d3      	ldr	r3, [r2, #12]
 8007e3a:	6d61      	ldr	r1, [r4, #84]	@ 0x54
 8007e3c:	f023 4300 	bic.w	r3, r3, #2147483648	@ 0x80000000
 8007e40:	430b      	orrs	r3, r1
 8007e42:	60d3      	str	r3, [r2, #12]
 8007e44:	2000      	movs	r0, #0
 8007e46:	2301      	movs	r3, #1
 8007e48:	f8c4 0084 	str.w	r0, [r4, #132]	@ 0x84
 8007e4c:	f884 3081 	strb.w	r3, [r4, #129]	@ 0x81
 8007e50:	e770      	b.n	8007d34 <HAL_SPI_Init+0x8>
 8007e52:	2b10      	cmp	r3, #16
 8007e54:	e792      	b.n	8007d7c <HAL_SPI_Init+0x50>
 8007e56:	2900      	cmp	r1, #0
 8007e58:	d1b1      	bne.n	8007dbe <HAL_SPI_Init+0x92>
 8007e5a:	f1b6 5f80 	cmp.w	r6, #268435456	@ 0x10000000
 8007e5e:	d1ae      	bne.n	8007dbe <HAL_SPI_Init+0x92>
 8007e60:	6810      	ldr	r0, [r2, #0]
 8007e62:	f440 5080 	orr.w	r0, r0, #4096	@ 0x1000
 8007e66:	6010      	str	r0, [r2, #0]
 8007e68:	e7a9      	b.n	8007dbe <HAL_SPI_Init+0x92>
 8007e6a:	f427 7780 	bic.w	r7, r7, #256	@ 0x100
 8007e6e:	e7b2      	b.n	8007dd6 <HAL_SPI_Init+0xaa>
 8007e70:	40013000 	.word	0x40013000

08007e74 <HAL_SPI_DeInit>:
 8007e74:	b510      	push	{r4, lr}
 8007e76:	4604      	mov	r4, r0
 8007e78:	b188      	cbz	r0, 8007e9e <HAL_SPI_DeInit+0x2a>
 8007e7a:	6802      	ldr	r2, [r0, #0]
 8007e7c:	2302      	movs	r3, #2
 8007e7e:	f880 3081 	strb.w	r3, [r0, #129]	@ 0x81
 8007e82:	6813      	ldr	r3, [r2, #0]
 8007e84:	f023 0301 	bic.w	r3, r3, #1
 8007e88:	6013      	str	r3, [r2, #0]
 8007e8a:	f7fd fee7 	bl	8005c5c <HAL_SPI_MspDeInit>
 8007e8e:	2000      	movs	r0, #0
 8007e90:	f8c4 0084 	str.w	r0, [r4, #132]	@ 0x84
 8007e94:	f884 0080 	strb.w	r0, [r4, #128]	@ 0x80
 8007e98:	f884 0081 	strb.w	r0, [r4, #129]	@ 0x81
 8007e9c:	bd10      	pop	{r4, pc}
 8007e9e:	2001      	movs	r0, #1
 8007ea0:	e7fc      	b.n	8007e9c <HAL_SPI_DeInit+0x28>

08007ea2 <HAL_SPI_Transmit>:
 8007ea2:	e92d 43f8 	stmdb	sp!, {r3, r4, r5, r6, r7, r8, r9, lr}
 8007ea6:	4604      	mov	r4, r0
 8007ea8:	461d      	mov	r5, r3
 8007eaa:	4689      	mov	r9, r1
 8007eac:	4690      	mov	r8, r2
 8007eae:	6807      	ldr	r7, [r0, #0]
 8007eb0:	f7fe f880 	bl	8005fb4 <HAL_GetTick>
 8007eb4:	f894 3081 	ldrb.w	r3, [r4, #129]	@ 0x81
 8007eb8:	4606      	mov	r6, r0
 8007eba:	2b01      	cmp	r3, #1
 8007ebc:	b2d8      	uxtb	r0, r3
 8007ebe:	f040 8108 	bne.w	80080d2 <HAL_SPI_Transmit+0x230>
 8007ec2:	f1b9 0f00 	cmp.w	r9, #0
 8007ec6:	f000 80a3 	beq.w	8008010 <HAL_SPI_Transmit+0x16e>
 8007eca:	f1b8 0f00 	cmp.w	r8, #0
 8007ece:	f000 809f 	beq.w	8008010 <HAL_SPI_Transmit+0x16e>
 8007ed2:	f894 3080 	ldrb.w	r3, [r4, #128]	@ 0x80
 8007ed6:	2b01      	cmp	r3, #1
 8007ed8:	f000 80fb 	beq.w	80080d2 <HAL_SPI_Transmit+0x230>
 8007edc:	2303      	movs	r3, #3
 8007ede:	68a2      	ldr	r2, [r4, #8]
 8007ee0:	f884 0080 	strb.w	r0, [r4, #128]	@ 0x80
 8007ee4:	f884 3081 	strb.w	r3, [r4, #129]	@ 0x81
 8007ee8:	f5b2 2fc0 	cmp.w	r2, #393216	@ 0x60000
 8007eec:	f04f 0300 	mov.w	r3, #0
 8007ef0:	f8c4 905c 	str.w	r9, [r4, #92]	@ 0x5c
 8007ef4:	f8a4 8060 	strh.w	r8, [r4, #96]	@ 0x60
 8007ef8:	f8c4 3084 	str.w	r3, [r4, #132]	@ 0x84
 8007efc:	6663      	str	r3, [r4, #100]	@ 0x64
 8007efe:	f8a4 8062 	strh.w	r8, [r4, #98]	@ 0x62
 8007f02:	f8a4 3068 	strh.w	r3, [r4, #104]	@ 0x68
 8007f06:	f8a4 306a 	strh.w	r3, [r4, #106]	@ 0x6a
 8007f0a:	e9c4 331c 	strd	r3, r3, [r4, #112]	@ 0x70
 8007f0e:	6823      	ldr	r3, [r4, #0]
 8007f10:	d139      	bne.n	8007f86 <HAL_SPI_Transmit+0xe4>
 8007f12:	681a      	ldr	r2, [r3, #0]
 8007f14:	f442 6200 	orr.w	r2, r2, #2048	@ 0x800
 8007f18:	601a      	str	r2, [r3, #0]
 8007f1a:	6859      	ldr	r1, [r3, #4]
 8007f1c:	0c09      	lsrs	r1, r1, #16
 8007f1e:	0409      	lsls	r1, r1, #16
 8007f20:	ea41 0108 	orr.w	r1, r1, r8
 8007f24:	6059      	str	r1, [r3, #4]
 8007f26:	681a      	ldr	r2, [r3, #0]
 8007f28:	f042 0201 	orr.w	r2, r2, #1
 8007f2c:	601a      	str	r2, [r3, #0]
 8007f2e:	6862      	ldr	r2, [r4, #4]
 8007f30:	f5b2 0f80 	cmp.w	r2, #4194304	@ 0x400000
 8007f34:	d103      	bne.n	8007f3e <HAL_SPI_Transmit+0x9c>
 8007f36:	681a      	ldr	r2, [r3, #0]
 8007f38:	f442 7200 	orr.w	r2, r2, #512	@ 0x200
 8007f3c:	601a      	str	r2, [r3, #0]
 8007f3e:	68e3      	ldr	r3, [r4, #12]
 8007f40:	2b0f      	cmp	r3, #15
 8007f42:	d835      	bhi.n	8007fb0 <HAL_SPI_Transmit+0x10e>
 8007f44:	2b07      	cmp	r3, #7
 8007f46:	d87a      	bhi.n	800803e <HAL_SPI_Transmit+0x19c>
 8007f48:	f8b4 3062 	ldrh.w	r3, [r4, #98]	@ 0x62
 8007f4c:	6821      	ldr	r1, [r4, #0]
 8007f4e:	b29b      	uxth	r3, r3
 8007f50:	2b00      	cmp	r3, #0
 8007f52:	d033      	beq.n	8007fbc <HAL_SPI_Transmit+0x11a>
 8007f54:	694b      	ldr	r3, [r1, #20]
 8007f56:	0798      	lsls	r0, r3, #30
 8007f58:	f140 80a1 	bpl.w	800809e <HAL_SPI_Transmit+0x1fc>
 8007f5c:	f8b4 3062 	ldrh.w	r3, [r4, #98]	@ 0x62
 8007f60:	6de2      	ldr	r2, [r4, #92]	@ 0x5c
 8007f62:	b29b      	uxth	r3, r3
 8007f64:	2b03      	cmp	r3, #3
 8007f66:	f240 8081 	bls.w	800806c <HAL_SPI_Transmit+0x1ca>
 8007f6a:	6be3      	ldr	r3, [r4, #60]	@ 0x3c
 8007f6c:	2b40      	cmp	r3, #64	@ 0x40
 8007f6e:	d97d      	bls.n	800806c <HAL_SPI_Transmit+0x1ca>
 8007f70:	f852 3b04 	ldr.w	r3, [r2], #4
 8007f74:	620b      	str	r3, [r1, #32]
 8007f76:	f8b4 3062 	ldrh.w	r3, [r4, #98]	@ 0x62
 8007f7a:	65e2      	str	r2, [r4, #92]	@ 0x5c
 8007f7c:	3b04      	subs	r3, #4
 8007f7e:	b29b      	uxth	r3, r3
 8007f80:	f8a4 3062 	strh.w	r3, [r4, #98]	@ 0x62
 8007f84:	e7e0      	b.n	8007f48 <HAL_SPI_Transmit+0xa6>
 8007f86:	68da      	ldr	r2, [r3, #12]
 8007f88:	f422 22c0 	bic.w	r2, r2, #393216	@ 0x60000
 8007f8c:	f442 3200 	orr.w	r2, r2, #131072	@ 0x20000
 8007f90:	60da      	str	r2, [r3, #12]
 8007f92:	e7c2      	b.n	8007f1a <HAL_SPI_Transmit+0x78>
 8007f94:	6953      	ldr	r3, [r2, #20]
 8007f96:	0798      	lsls	r0, r3, #30
 8007f98:	d523      	bpl.n	8007fe2 <HAL_SPI_Transmit+0x140>
 8007f9a:	6de3      	ldr	r3, [r4, #92]	@ 0x5c
 8007f9c:	f853 1b04 	ldr.w	r1, [r3], #4
 8007fa0:	6211      	str	r1, [r2, #32]
 8007fa2:	65e3      	str	r3, [r4, #92]	@ 0x5c
 8007fa4:	f8b4 3062 	ldrh.w	r3, [r4, #98]	@ 0x62
 8007fa8:	3b01      	subs	r3, #1
 8007faa:	b29b      	uxth	r3, r3
 8007fac:	f8a4 3062 	strh.w	r3, [r4, #98]	@ 0x62
 8007fb0:	f8b4 3062 	ldrh.w	r3, [r4, #98]	@ 0x62
 8007fb4:	6822      	ldr	r2, [r4, #0]
 8007fb6:	b29b      	uxth	r3, r3
 8007fb8:	2b00      	cmp	r3, #0
 8007fba:	d1eb      	bne.n	8007f94 <HAL_SPI_Transmit+0xf2>
 8007fbc:	6823      	ldr	r3, [r4, #0]
 8007fbe:	695b      	ldr	r3, [r3, #20]
 8007fc0:	071b      	lsls	r3, r3, #28
 8007fc2:	d576      	bpl.n	80080b2 <HAL_SPI_Transmit+0x210>
 8007fc4:	4620      	mov	r0, r4
 8007fc6:	f7ff fe5b 	bl	8007c80 <SPI_CloseTransfer>
 8007fca:	2301      	movs	r3, #1
 8007fcc:	f884 3081 	strb.w	r3, [r4, #129]	@ 0x81
 8007fd0:	2300      	movs	r3, #0
 8007fd2:	f8d4 0084 	ldr.w	r0, [r4, #132]	@ 0x84
 8007fd6:	f884 3080 	strb.w	r3, [r4, #128]	@ 0x80
 8007fda:	1ac0      	subs	r0, r0, r3
 8007fdc:	bf18      	it	ne
 8007fde:	2001      	movne	r0, #1
 8007fe0:	e016      	b.n	8008010 <HAL_SPI_Transmit+0x16e>
 8007fe2:	f7fd ffe7 	bl	8005fb4 <HAL_GetTick>
 8007fe6:	1b80      	subs	r0, r0, r6
 8007fe8:	42a8      	cmp	r0, r5
 8007fea:	d3e1      	bcc.n	8007fb0 <HAL_SPI_Transmit+0x10e>
 8007fec:	1c69      	adds	r1, r5, #1
 8007fee:	d0df      	beq.n	8007fb0 <HAL_SPI_Transmit+0x10e>
 8007ff0:	4620      	mov	r0, r4
 8007ff2:	f7ff fe45 	bl	8007c80 <SPI_CloseTransfer>
 8007ff6:	f8d4 3084 	ldr.w	r3, [r4, #132]	@ 0x84
 8007ffa:	2003      	movs	r0, #3
 8007ffc:	f443 7380 	orr.w	r3, r3, #256	@ 0x100
 8008000:	f8c4 3084 	str.w	r3, [r4, #132]	@ 0x84
 8008004:	2301      	movs	r3, #1
 8008006:	f884 3081 	strb.w	r3, [r4, #129]	@ 0x81
 800800a:	2300      	movs	r3, #0
 800800c:	f884 3080 	strb.w	r3, [r4, #128]	@ 0x80
 8008010:	e8bd 83f8 	ldmia.w	sp!, {r3, r4, r5, r6, r7, r8, r9, pc}
 8008014:	694b      	ldr	r3, [r1, #20]
 8008016:	079a      	lsls	r2, r3, #30
 8008018:	d520      	bpl.n	800805c <HAL_SPI_Transmit+0x1ba>
 800801a:	f8b4 2062 	ldrh.w	r2, [r4, #98]	@ 0x62
 800801e:	6de3      	ldr	r3, [r4, #92]	@ 0x5c
 8008020:	b292      	uxth	r2, r2
 8008022:	2a01      	cmp	r2, #1
 8008024:	d912      	bls.n	800804c <HAL_SPI_Transmit+0x1aa>
 8008026:	6be2      	ldr	r2, [r4, #60]	@ 0x3c
 8008028:	b182      	cbz	r2, 800804c <HAL_SPI_Transmit+0x1aa>
 800802a:	f853 2b04 	ldr.w	r2, [r3], #4
 800802e:	620a      	str	r2, [r1, #32]
 8008030:	65e3      	str	r3, [r4, #92]	@ 0x5c
 8008032:	f8b4 3062 	ldrh.w	r3, [r4, #98]	@ 0x62
 8008036:	3b02      	subs	r3, #2
 8008038:	b29b      	uxth	r3, r3
 800803a:	f8a4 3062 	strh.w	r3, [r4, #98]	@ 0x62
 800803e:	f8b4 3062 	ldrh.w	r3, [r4, #98]	@ 0x62
 8008042:	6821      	ldr	r1, [r4, #0]
 8008044:	b29b      	uxth	r3, r3
 8008046:	2b00      	cmp	r3, #0
 8008048:	d1e4      	bne.n	8008014 <HAL_SPI_Transmit+0x172>
 800804a:	e7b7      	b.n	8007fbc <HAL_SPI_Transmit+0x11a>
 800804c:	f833 2b02 	ldrh.w	r2, [r3], #2
 8008050:	843a      	strh	r2, [r7, #32]
 8008052:	65e3      	str	r3, [r4, #92]	@ 0x5c
 8008054:	f8b4 3062 	ldrh.w	r3, [r4, #98]	@ 0x62
 8008058:	3b01      	subs	r3, #1
 800805a:	e7ed      	b.n	8008038 <HAL_SPI_Transmit+0x196>
 800805c:	f7fd ffaa 	bl	8005fb4 <HAL_GetTick>
 8008060:	1b80      	subs	r0, r0, r6
 8008062:	42a8      	cmp	r0, r5
 8008064:	d3eb      	bcc.n	800803e <HAL_SPI_Transmit+0x19c>
 8008066:	1c6b      	adds	r3, r5, #1
 8008068:	d0e9      	beq.n	800803e <HAL_SPI_Transmit+0x19c>
 800806a:	e7c1      	b.n	8007ff0 <HAL_SPI_Transmit+0x14e>
 800806c:	f8b4 3062 	ldrh.w	r3, [r4, #98]	@ 0x62
 8008070:	b29b      	uxth	r3, r3
 8008072:	2b01      	cmp	r3, #1
 8008074:	d909      	bls.n	800808a <HAL_SPI_Transmit+0x1e8>
 8008076:	6be3      	ldr	r3, [r4, #60]	@ 0x3c
 8008078:	b13b      	cbz	r3, 800808a <HAL_SPI_Transmit+0x1e8>
 800807a:	f832 3b02 	ldrh.w	r3, [r2], #2
 800807e:	843b      	strh	r3, [r7, #32]
 8008080:	f8b4 3062 	ldrh.w	r3, [r4, #98]	@ 0x62
 8008084:	65e2      	str	r2, [r4, #92]	@ 0x5c
 8008086:	3b02      	subs	r3, #2
 8008088:	e779      	b.n	8007f7e <HAL_SPI_Transmit+0xdc>
 800808a:	7813      	ldrb	r3, [r2, #0]
 800808c:	f881 3020 	strb.w	r3, [r1, #32]
 8008090:	6de3      	ldr	r3, [r4, #92]	@ 0x5c
 8008092:	3301      	adds	r3, #1
 8008094:	65e3      	str	r3, [r4, #92]	@ 0x5c
 8008096:	f8b4 3062 	ldrh.w	r3, [r4, #98]	@ 0x62
 800809a:	3b01      	subs	r3, #1
 800809c:	e76f      	b.n	8007f7e <HAL_SPI_Transmit+0xdc>
 800809e:	f7fd ff89 	bl	8005fb4 <HAL_GetTick>
 80080a2:	1b80      	subs	r0, r0, r6
 80080a4:	42a8      	cmp	r0, r5
 80080a6:	f4ff af4f 	bcc.w	8007f48 <HAL_SPI_Transmit+0xa6>
 80080aa:	1c69      	adds	r1, r5, #1
 80080ac:	f43f af4c 	beq.w	8007f48 <HAL_SPI_Transmit+0xa6>
 80080b0:	e79e      	b.n	8007ff0 <HAL_SPI_Transmit+0x14e>
 80080b2:	f7fd ff7f 	bl	8005fb4 <HAL_GetTick>
 80080b6:	1b80      	subs	r0, r0, r6
 80080b8:	4285      	cmp	r5, r0
 80080ba:	f63f af7f 	bhi.w	8007fbc <HAL_SPI_Transmit+0x11a>
 80080be:	1c6a      	adds	r2, r5, #1
 80080c0:	f43f af7c 	beq.w	8007fbc <HAL_SPI_Transmit+0x11a>
 80080c4:	f8d4 3084 	ldr.w	r3, [r4, #132]	@ 0x84
 80080c8:	f043 0320 	orr.w	r3, r3, #32
 80080cc:	f8c4 3084 	str.w	r3, [r4, #132]	@ 0x84
 80080d0:	e778      	b.n	8007fc4 <HAL_SPI_Transmit+0x122>
 80080d2:	2002      	movs	r0, #2
 80080d4:	e79c      	b.n	8008010 <HAL_SPI_Transmit+0x16e>

080080d6 <HAL_SPI_Receive>:
 80080d6:	e92d 47f0 	stmdb	sp!, {r4, r5, r6, r7, r8, r9, sl, lr}
 80080da:	4604      	mov	r4, r0
 80080dc:	461e      	mov	r6, r3
 80080de:	468a      	mov	sl, r1
 80080e0:	4691      	mov	r9, r2
 80080e2:	6bc5      	ldr	r5, [r0, #60]	@ 0x3c
 80080e4:	f8d0 8000 	ldr.w	r8, [r0]
 80080e8:	f7fd ff64 	bl	8005fb4 <HAL_GetTick>
 80080ec:	f894 3081 	ldrb.w	r3, [r4, #129]	@ 0x81
 80080f0:	4607      	mov	r7, r0
 80080f2:	2b01      	cmp	r3, #1
 80080f4:	b2d8      	uxtb	r0, r3
 80080f6:	f040 811b 	bne.w	8008330 <HAL_SPI_Receive+0x25a>
 80080fa:	f1ba 0f00 	cmp.w	sl, #0
 80080fe:	d07f      	beq.n	8008200 <HAL_SPI_Receive+0x12a>
 8008100:	f1b9 0f00 	cmp.w	r9, #0
 8008104:	d07c      	beq.n	8008200 <HAL_SPI_Receive+0x12a>
 8008106:	f894 3080 	ldrb.w	r3, [r4, #128]	@ 0x80
 800810a:	2b01      	cmp	r3, #1
 800810c:	f000 8110 	beq.w	8008330 <HAL_SPI_Receive+0x25a>
 8008110:	2304      	movs	r3, #4
 8008112:	6821      	ldr	r1, [r4, #0]
 8008114:	f884 0080 	strb.w	r0, [r4, #128]	@ 0x80
 8008118:	f884 3081 	strb.w	r3, [r4, #129]	@ 0x81
 800811c:	2300      	movs	r3, #0
 800811e:	f8c4 a064 	str.w	sl, [r4, #100]	@ 0x64
 8008122:	f8c4 3084 	str.w	r3, [r4, #132]	@ 0x84
 8008126:	65e3      	str	r3, [r4, #92]	@ 0x5c
 8008128:	f8a4 906a 	strh.w	r9, [r4, #106]	@ 0x6a
 800812c:	f8a4 3060 	strh.w	r3, [r4, #96]	@ 0x60
 8008130:	f8a4 3062 	strh.w	r3, [r4, #98]	@ 0x62
 8008134:	f8a4 9068 	strh.w	r9, [r4, #104]	@ 0x68
 8008138:	e9c4 331c 	strd	r3, r3, [r4, #112]	@ 0x70
 800813c:	68a3      	ldr	r3, [r4, #8]
 800813e:	f5b3 2fc0 	cmp.w	r3, #393216	@ 0x60000
 8008142:	d133      	bne.n	80081ac <HAL_SPI_Receive+0xd6>
 8008144:	680b      	ldr	r3, [r1, #0]
 8008146:	f423 6300 	bic.w	r3, r3, #2048	@ 0x800
 800814a:	600b      	str	r3, [r1, #0]
 800814c:	684b      	ldr	r3, [r1, #4]
 800814e:	0c1b      	lsrs	r3, r3, #16
 8008150:	041b      	lsls	r3, r3, #16
 8008152:	ea43 0309 	orr.w	r3, r3, r9
 8008156:	604b      	str	r3, [r1, #4]
 8008158:	680b      	ldr	r3, [r1, #0]
 800815a:	f043 0301 	orr.w	r3, r3, #1
 800815e:	600b      	str	r3, [r1, #0]
 8008160:	6863      	ldr	r3, [r4, #4]
 8008162:	f5b3 0f80 	cmp.w	r3, #4194304	@ 0x400000
 8008166:	d103      	bne.n	8008170 <HAL_SPI_Receive+0x9a>
 8008168:	680b      	ldr	r3, [r1, #0]
 800816a:	f443 7300 	orr.w	r3, r3, #512	@ 0x200
 800816e:	600b      	str	r3, [r1, #0]
 8008170:	096d      	lsrs	r5, r5, #5
 8008172:	68e3      	ldr	r3, [r4, #12]
 8008174:	3501      	adds	r5, #1
 8008176:	2b0f      	cmp	r3, #15
 8008178:	b2ad      	uxth	r5, r5
 800817a:	d82e      	bhi.n	80081da <HAL_SPI_Receive+0x104>
 800817c:	2b07      	cmp	r3, #7
 800817e:	d877      	bhi.n	8008270 <HAL_SPI_Receive+0x19a>
 8008180:	f8b4 306a 	ldrh.w	r3, [r4, #106]	@ 0x6a
 8008184:	b29b      	uxth	r3, r3
 8008186:	2b00      	cmp	r3, #0
 8008188:	d02c      	beq.n	80081e4 <HAL_SPI_Receive+0x10e>
 800818a:	6823      	ldr	r3, [r4, #0]
 800818c:	6959      	ldr	r1, [r3, #20]
 800818e:	695a      	ldr	r2, [r3, #20]
 8008190:	07d0      	lsls	r0, r2, #31
 8008192:	f140 8090 	bpl.w	80082b6 <HAL_SPI_Receive+0x1e0>
 8008196:	f893 3030 	ldrb.w	r3, [r3, #48]	@ 0x30
 800819a:	6e62      	ldr	r2, [r4, #100]	@ 0x64
 800819c:	7013      	strb	r3, [r2, #0]
 800819e:	6e63      	ldr	r3, [r4, #100]	@ 0x64
 80081a0:	3301      	adds	r3, #1
 80081a2:	6663      	str	r3, [r4, #100]	@ 0x64
 80081a4:	f8b4 306a 	ldrh.w	r3, [r4, #106]	@ 0x6a
 80081a8:	3b01      	subs	r3, #1
 80081aa:	e0aa      	b.n	8008302 <HAL_SPI_Receive+0x22c>
 80081ac:	68cb      	ldr	r3, [r1, #12]
 80081ae:	f423 23c0 	bic.w	r3, r3, #393216	@ 0x60000
 80081b2:	f443 2380 	orr.w	r3, r3, #262144	@ 0x40000
 80081b6:	60cb      	str	r3, [r1, #12]
 80081b8:	e7c8      	b.n	800814c <HAL_SPI_Receive+0x76>
 80081ba:	6823      	ldr	r3, [r4, #0]
 80081bc:	6959      	ldr	r1, [r3, #20]
 80081be:	695a      	ldr	r2, [r3, #20]
 80081c0:	07d0      	lsls	r0, r2, #31
 80081c2:	d51f      	bpl.n	8008204 <HAL_SPI_Receive+0x12e>
 80081c4:	6b1a      	ldr	r2, [r3, #48]	@ 0x30
 80081c6:	6e63      	ldr	r3, [r4, #100]	@ 0x64
 80081c8:	f843 2b04 	str.w	r2, [r3], #4
 80081cc:	6663      	str	r3, [r4, #100]	@ 0x64
 80081ce:	f8b4 306a 	ldrh.w	r3, [r4, #106]	@ 0x6a
 80081d2:	3b01      	subs	r3, #1
 80081d4:	b29b      	uxth	r3, r3
 80081d6:	f8a4 306a 	strh.w	r3, [r4, #106]	@ 0x6a
 80081da:	f8b4 306a 	ldrh.w	r3, [r4, #106]	@ 0x6a
 80081de:	b29b      	uxth	r3, r3
 80081e0:	2b00      	cmp	r3, #0
 80081e2:	d1ea      	bne.n	80081ba <HAL_SPI_Receive+0xe4>
 80081e4:	4620      	mov	r0, r4
 80081e6:	f7ff fd4b 	bl	8007c80 <SPI_CloseTransfer>
 80081ea:	2301      	movs	r3, #1
 80081ec:	f884 3081 	strb.w	r3, [r4, #129]	@ 0x81
 80081f0:	2300      	movs	r3, #0
 80081f2:	f8d4 0084 	ldr.w	r0, [r4, #132]	@ 0x84
 80081f6:	f884 3080 	strb.w	r3, [r4, #128]	@ 0x80
 80081fa:	1ac0      	subs	r0, r0, r3
 80081fc:	bf18      	it	ne
 80081fe:	2001      	movne	r0, #1
 8008200:	e8bd 87f0 	ldmia.w	sp!, {r4, r5, r6, r7, r8, r9, sl, pc}
 8008204:	f8b4 206a 	ldrh.w	r2, [r4, #106]	@ 0x6a
 8008208:	b292      	uxth	r2, r2
 800820a:	42aa      	cmp	r2, r5
 800820c:	d201      	bcs.n	8008212 <HAL_SPI_Receive+0x13c>
 800820e:	040a      	lsls	r2, r1, #16
 8008210:	d4d8      	bmi.n	80081c4 <HAL_SPI_Receive+0xee>
 8008212:	f7fd fecf 	bl	8005fb4 <HAL_GetTick>
 8008216:	1bc0      	subs	r0, r0, r7
 8008218:	42b0      	cmp	r0, r6
 800821a:	d3de      	bcc.n	80081da <HAL_SPI_Receive+0x104>
 800821c:	1c73      	adds	r3, r6, #1
 800821e:	d0dc      	beq.n	80081da <HAL_SPI_Receive+0x104>
 8008220:	4620      	mov	r0, r4
 8008222:	f7ff fd2d 	bl	8007c80 <SPI_CloseTransfer>
 8008226:	f8d4 3084 	ldr.w	r3, [r4, #132]	@ 0x84
 800822a:	2003      	movs	r0, #3
 800822c:	f443 7380 	orr.w	r3, r3, #256	@ 0x100
 8008230:	f8c4 3084 	str.w	r3, [r4, #132]	@ 0x84
 8008234:	2301      	movs	r3, #1
 8008236:	f884 3081 	strb.w	r3, [r4, #129]	@ 0x81
 800823a:	2300      	movs	r3, #0
 800823c:	f884 3080 	strb.w	r3, [r4, #128]	@ 0x80
 8008240:	e7de      	b.n	8008200 <HAL_SPI_Receive+0x12a>
 8008242:	f8b4 306a 	ldrh.w	r3, [r4, #106]	@ 0x6a
 8008246:	b29b      	uxth	r3, r3
 8008248:	42ab      	cmp	r3, r5
 800824a:	d225      	bcs.n	8008298 <HAL_SPI_Receive+0x1c2>
 800824c:	0411      	lsls	r1, r2, #16
 800824e:	d523      	bpl.n	8008298 <HAL_SPI_Receive+0x1c2>
 8008250:	f8b8 2030 	ldrh.w	r2, [r8, #48]	@ 0x30
 8008254:	6e63      	ldr	r3, [r4, #100]	@ 0x64
 8008256:	801a      	strh	r2, [r3, #0]
 8008258:	3304      	adds	r3, #4
 800825a:	f8b8 2030 	ldrh.w	r2, [r8, #48]	@ 0x30
 800825e:	f823 2c02 	strh.w	r2, [r3, #-2]
 8008262:	6663      	str	r3, [r4, #100]	@ 0x64
 8008264:	f8b4 306a 	ldrh.w	r3, [r4, #106]	@ 0x6a
 8008268:	3b02      	subs	r3, #2
 800826a:	b29b      	uxth	r3, r3
 800826c:	f8a4 306a 	strh.w	r3, [r4, #106]	@ 0x6a
 8008270:	f8b4 306a 	ldrh.w	r3, [r4, #106]	@ 0x6a
 8008274:	b29b      	uxth	r3, r3
 8008276:	2b00      	cmp	r3, #0
 8008278:	d0b4      	beq.n	80081e4 <HAL_SPI_Receive+0x10e>
 800827a:	6823      	ldr	r3, [r4, #0]
 800827c:	695a      	ldr	r2, [r3, #20]
 800827e:	695b      	ldr	r3, [r3, #20]
 8008280:	07d8      	lsls	r0, r3, #31
 8008282:	d5de      	bpl.n	8008242 <HAL_SPI_Receive+0x16c>
 8008284:	f8b8 2030 	ldrh.w	r2, [r8, #48]	@ 0x30
 8008288:	6e63      	ldr	r3, [r4, #100]	@ 0x64
 800828a:	f823 2b02 	strh.w	r2, [r3], #2
 800828e:	6663      	str	r3, [r4, #100]	@ 0x64
 8008290:	f8b4 306a 	ldrh.w	r3, [r4, #106]	@ 0x6a
 8008294:	3b01      	subs	r3, #1
 8008296:	e7e8      	b.n	800826a <HAL_SPI_Receive+0x194>
 8008298:	f8b4 306a 	ldrh.w	r3, [r4, #106]	@ 0x6a
 800829c:	b29b      	uxth	r3, r3
 800829e:	2b01      	cmp	r3, #1
 80082a0:	d101      	bne.n	80082a6 <HAL_SPI_Receive+0x1d0>
 80082a2:	0492      	lsls	r2, r2, #18
 80082a4:	d4ee      	bmi.n	8008284 <HAL_SPI_Receive+0x1ae>
 80082a6:	f7fd fe85 	bl	8005fb4 <HAL_GetTick>
 80082aa:	1bc0      	subs	r0, r0, r7
 80082ac:	42b0      	cmp	r0, r6
 80082ae:	d3df      	bcc.n	8008270 <HAL_SPI_Receive+0x19a>
 80082b0:	1c73      	adds	r3, r6, #1
 80082b2:	d0dd      	beq.n	8008270 <HAL_SPI_Receive+0x19a>
 80082b4:	e7b4      	b.n	8008220 <HAL_SPI_Receive+0x14a>
 80082b6:	f8b4 206a 	ldrh.w	r2, [r4, #106]	@ 0x6a
 80082ba:	b292      	uxth	r2, r2
 80082bc:	42aa      	cmp	r2, r5
 80082be:	d224      	bcs.n	800830a <HAL_SPI_Receive+0x234>
 80082c0:	040a      	lsls	r2, r1, #16
 80082c2:	d522      	bpl.n	800830a <HAL_SPI_Receive+0x234>
 80082c4:	f893 3030 	ldrb.w	r3, [r3, #48]	@ 0x30
 80082c8:	6e62      	ldr	r2, [r4, #100]	@ 0x64
 80082ca:	7013      	strb	r3, [r2, #0]
 80082cc:	6e63      	ldr	r3, [r4, #100]	@ 0x64
 80082ce:	1c5a      	adds	r2, r3, #1
 80082d0:	6662      	str	r2, [r4, #100]	@ 0x64
 80082d2:	6822      	ldr	r2, [r4, #0]
 80082d4:	f892 2030 	ldrb.w	r2, [r2, #48]	@ 0x30
 80082d8:	705a      	strb	r2, [r3, #1]
 80082da:	6e63      	ldr	r3, [r4, #100]	@ 0x64
 80082dc:	1c5a      	adds	r2, r3, #1
 80082de:	6662      	str	r2, [r4, #100]	@ 0x64
 80082e0:	6822      	ldr	r2, [r4, #0]
 80082e2:	f892 2030 	ldrb.w	r2, [r2, #48]	@ 0x30
 80082e6:	705a      	strb	r2, [r3, #1]
 80082e8:	6e63      	ldr	r3, [r4, #100]	@ 0x64
 80082ea:	1c5a      	adds	r2, r3, #1
 80082ec:	6662      	str	r2, [r4, #100]	@ 0x64
 80082ee:	6822      	ldr	r2, [r4, #0]
 80082f0:	f892 2030 	ldrb.w	r2, [r2, #48]	@ 0x30
 80082f4:	705a      	strb	r2, [r3, #1]
 80082f6:	6e63      	ldr	r3, [r4, #100]	@ 0x64
 80082f8:	3301      	adds	r3, #1
 80082fa:	6663      	str	r3, [r4, #100]	@ 0x64
 80082fc:	f8b4 306a 	ldrh.w	r3, [r4, #106]	@ 0x6a
 8008300:	3b04      	subs	r3, #4
 8008302:	b29b      	uxth	r3, r3
 8008304:	f8a4 306a 	strh.w	r3, [r4, #106]	@ 0x6a
 8008308:	e73a      	b.n	8008180 <HAL_SPI_Receive+0xaa>
 800830a:	f8b4 206a 	ldrh.w	r2, [r4, #106]	@ 0x6a
 800830e:	b292      	uxth	r2, r2
 8008310:	2a03      	cmp	r2, #3
 8008312:	d803      	bhi.n	800831c <HAL_SPI_Receive+0x246>
 8008314:	f411 4fc0 	tst.w	r1, #24576	@ 0x6000
 8008318:	f47f af3d 	bne.w	8008196 <HAL_SPI_Receive+0xc0>
 800831c:	f7fd fe4a 	bl	8005fb4 <HAL_GetTick>
 8008320:	1bc0      	subs	r0, r0, r7
 8008322:	42b0      	cmp	r0, r6
 8008324:	f4ff af2c 	bcc.w	8008180 <HAL_SPI_Receive+0xaa>
 8008328:	1c73      	adds	r3, r6, #1
 800832a:	f43f af29 	beq.w	8008180 <HAL_SPI_Receive+0xaa>
 800832e:	e777      	b.n	8008220 <HAL_SPI_Receive+0x14a>
 8008330:	2002      	movs	r0, #2
 8008332:	e765      	b.n	8008200 <HAL_SPI_Receive+0x12a>

08008334 <UART_EndRxTransfer>:
 8008334:	b510      	push	{r4, lr}
 8008336:	6802      	ldr	r2, [r0, #0]
 8008338:	e852 3f00 	ldrex	r3, [r2]
 800833c:	f423 7390 	bic.w	r3, r3, #288	@ 0x120
 8008340:	e842 3100 	strex	r1, r3, [r2]
 8008344:	6802      	ldr	r2, [r0, #0]
 8008346:	2900      	cmp	r1, #0
 8008348:	d1f5      	bne.n	8008336 <UART_EndRxTransfer+0x2>
 800834a:	4c0f      	ldr	r4, [pc, #60]	@ (8008388 <UART_EndRxTransfer+0x54>)
 800834c:	f102 0308 	add.w	r3, r2, #8
 8008350:	e853 3f00 	ldrex	r3, [r3]
 8008354:	4023      	ands	r3, r4
 8008356:	f102 0c08 	add.w	ip, r2, #8
 800835a:	e84c 3100 	strex	r1, r3, [ip]
 800835e:	2900      	cmp	r1, #0
 8008360:	d1f4      	bne.n	800834c <UART_EndRxTransfer+0x18>
 8008362:	6ec3      	ldr	r3, [r0, #108]	@ 0x6c
 8008364:	2b01      	cmp	r3, #1
 8008366:	d107      	bne.n	8008378 <UART_EndRxTransfer+0x44>
 8008368:	e852 3f00 	ldrex	r3, [r2]
 800836c:	f023 0310 	bic.w	r3, r3, #16
 8008370:	e842 3100 	strex	r1, r3, [r2]
 8008374:	2900      	cmp	r1, #0
 8008376:	d1f7      	bne.n	8008368 <UART_EndRxTransfer+0x34>
 8008378:	2320      	movs	r3, #32
 800837a:	f8c0 308c 	str.w	r3, [r0, #140]	@ 0x8c
 800837e:	2300      	movs	r3, #0
 8008380:	66c3      	str	r3, [r0, #108]	@ 0x6c
 8008382:	6743      	str	r3, [r0, #116]	@ 0x74
 8008384:	bd10      	pop	{r4, pc}
 8008386:	bf00      	nop
 8008388:	effffffe 	.word	0xeffffffe

0800838c <UART_SetConfig>:
 800838c:	b530      	push	{r4, r5, lr}
 800838e:	4604      	mov	r4, r0
 8008390:	6803      	ldr	r3, [r0, #0]
 8008392:	69c0      	ldr	r0, [r0, #28]
 8008394:	b087      	sub	sp, #28
 8008396:	6921      	ldr	r1, [r4, #16]
 8008398:	68a2      	ldr	r2, [r4, #8]
 800839a:	681d      	ldr	r5, [r3, #0]
 800839c:	430a      	orrs	r2, r1
 800839e:	6961      	ldr	r1, [r4, #20]
 80083a0:	430a      	orrs	r2, r1
 80083a2:	499c      	ldr	r1, [pc, #624]	@ (8008614 <UART_SetConfig+0x288>)
 80083a4:	4302      	orrs	r2, r0
 80083a6:	4029      	ands	r1, r5
 80083a8:	430a      	orrs	r2, r1
 80083aa:	68e1      	ldr	r1, [r4, #12]
 80083ac:	601a      	str	r2, [r3, #0]
 80083ae:	685a      	ldr	r2, [r3, #4]
 80083b0:	f422 5240 	bic.w	r2, r2, #12288	@ 0x3000
 80083b4:	430a      	orrs	r2, r1
 80083b6:	69a1      	ldr	r1, [r4, #24]
 80083b8:	605a      	str	r2, [r3, #4]
 80083ba:	4a97      	ldr	r2, [pc, #604]	@ (8008618 <UART_SetConfig+0x28c>)
 80083bc:	4293      	cmp	r3, r2
 80083be:	bf1c      	itt	ne
 80083c0:	6a22      	ldrne	r2, [r4, #32]
 80083c2:	4311      	orrne	r1, r2
 80083c4:	689a      	ldr	r2, [r3, #8]
 80083c6:	f022 426e 	bic.w	r2, r2, #3992977408	@ 0xee000000
 80083ca:	f422 6230 	bic.w	r2, r2, #2816	@ 0xb00
 80083ce:	430a      	orrs	r2, r1
 80083d0:	6a61      	ldr	r1, [r4, #36]	@ 0x24
 80083d2:	609a      	str	r2, [r3, #8]
 80083d4:	6ada      	ldr	r2, [r3, #44]	@ 0x2c
 80083d6:	f022 020f 	bic.w	r2, r2, #15
 80083da:	430a      	orrs	r2, r1
 80083dc:	62da      	str	r2, [r3, #44]	@ 0x2c
 80083de:	4a8f      	ldr	r2, [pc, #572]	@ (800861c <UART_SetConfig+0x290>)
 80083e0:	4293      	cmp	r3, r2
 80083e2:	d128      	bne.n	8008436 <UART_SetConfig+0xaa>
 80083e4:	4b8e      	ldr	r3, [pc, #568]	@ (8008620 <UART_SetConfig+0x294>)
 80083e6:	6d5b      	ldr	r3, [r3, #84]	@ 0x54
 80083e8:	f003 0338 	and.w	r3, r3, #56	@ 0x38
 80083ec:	2b18      	cmp	r3, #24
 80083ee:	f000 812f 	beq.w	8008650 <UART_SetConfig+0x2c4>
 80083f2:	d814      	bhi.n	800841e <UART_SetConfig+0x92>
 80083f4:	2b08      	cmp	r3, #8
 80083f6:	f000 8154 	beq.w	80086a2 <UART_SetConfig+0x316>
 80083fa:	2b10      	cmp	r3, #16
 80083fc:	f000 8102 	beq.w	8008604 <UART_SetConfig+0x278>
 8008400:	2b00      	cmp	r3, #0
 8008402:	f000 80f9 	beq.w	80085f8 <UART_SetConfig+0x26c>
 8008406:	2380      	movs	r3, #128	@ 0x80
 8008408:	f5b0 4f00 	cmp.w	r0, #32768	@ 0x8000
 800840c:	f040 80b4 	bne.w	8008578 <UART_SetConfig+0x1ec>
 8008410:	2b08      	cmp	r3, #8
 8008412:	d846      	bhi.n	80084a2 <UART_SetConfig+0x116>
 8008414:	4668      	mov	r0, sp
 8008416:	f7ff fadf 	bl	80079d8 <HAL_RCCEx_GetPLL2ClockFreq>
 800841a:	9801      	ldr	r0, [sp, #4]
 800841c:	e0e9      	b.n	80085f2 <UART_SetConfig+0x266>
 800841e:	2b20      	cmp	r3, #32
 8008420:	f000 80dd 	beq.w	80085de <UART_SetConfig+0x252>
 8008424:	2b28      	cmp	r3, #40	@ 0x28
 8008426:	d1ee      	bne.n	8008406 <UART_SetConfig+0x7a>
 8008428:	f5b0 4f00 	cmp.w	r0, #32768	@ 0x8000
 800842c:	f000 811d 	beq.w	800866a <UART_SetConfig+0x2de>
 8008430:	f44f 4000 	mov.w	r0, #32768	@ 0x8000
 8008434:	e0be      	b.n	80085b4 <UART_SetConfig+0x228>
 8008436:	4a7b      	ldr	r2, [pc, #492]	@ (8008624 <UART_SetConfig+0x298>)
 8008438:	4293      	cmp	r3, r2
 800843a:	d115      	bne.n	8008468 <UART_SetConfig+0xdc>
 800843c:	4b78      	ldr	r3, [pc, #480]	@ (8008620 <UART_SetConfig+0x294>)
 800843e:	6d5b      	ldr	r3, [r3, #84]	@ 0x54
 8008440:	f003 0307 	and.w	r3, r3, #7
 8008444:	2b05      	cmp	r3, #5
 8008446:	d82c      	bhi.n	80084a2 <UART_SetConfig+0x116>
 8008448:	a201      	add	r2, pc, #4	@ (adr r2, 8008450 <UART_SetConfig+0xc4>)
 800844a:	f852 f023 	ldr.w	pc, [r2, r3, lsl #2]
 800844e:	bf00      	nop
 8008450:	080085e9 	.word	0x080085e9
 8008454:	08008575 	.word	0x08008575
 8008458:	08008605 	.word	0x08008605
 800845c:	08008651 	.word	0x08008651
 8008460:	080085df 	.word	0x080085df
 8008464:	08008429 	.word	0x08008429
 8008468:	4a6f      	ldr	r2, [pc, #444]	@ (8008628 <UART_SetConfig+0x29c>)
 800846a:	4293      	cmp	r3, r2
 800846c:	d0e6      	beq.n	800843c <UART_SetConfig+0xb0>
 800846e:	4a6f      	ldr	r2, [pc, #444]	@ (800862c <UART_SetConfig+0x2a0>)
 8008470:	4293      	cmp	r3, r2
 8008472:	d0e3      	beq.n	800843c <UART_SetConfig+0xb0>
 8008474:	4a6e      	ldr	r2, [pc, #440]	@ (8008630 <UART_SetConfig+0x2a4>)
 8008476:	4293      	cmp	r3, r2
 8008478:	d0e0      	beq.n	800843c <UART_SetConfig+0xb0>
 800847a:	4a6e      	ldr	r2, [pc, #440]	@ (8008634 <UART_SetConfig+0x2a8>)
 800847c:	4293      	cmp	r3, r2
 800847e:	d118      	bne.n	80084b2 <UART_SetConfig+0x126>
 8008480:	4b67      	ldr	r3, [pc, #412]	@ (8008620 <UART_SetConfig+0x294>)
 8008482:	6d5b      	ldr	r3, [r3, #84]	@ 0x54
 8008484:	f003 0338 	and.w	r3, r3, #56	@ 0x38
 8008488:	2b18      	cmp	r3, #24
 800848a:	f000 80e1 	beq.w	8008650 <UART_SetConfig+0x2c4>
 800848e:	d80a      	bhi.n	80084a6 <UART_SetConfig+0x11a>
 8008490:	2b08      	cmp	r3, #8
 8008492:	f000 8106 	beq.w	80086a2 <UART_SetConfig+0x316>
 8008496:	2b10      	cmp	r3, #16
 8008498:	f000 80b4 	beq.w	8008604 <UART_SetConfig+0x278>
 800849c:	2b00      	cmp	r3, #0
 800849e:	f000 80ab 	beq.w	80085f8 <UART_SetConfig+0x26c>
 80084a2:	2001      	movs	r0, #1
 80084a4:	e049      	b.n	800853a <UART_SetConfig+0x1ae>
 80084a6:	2b20      	cmp	r3, #32
 80084a8:	f000 8099 	beq.w	80085de <UART_SetConfig+0x252>
 80084ac:	2b28      	cmp	r3, #40	@ 0x28
 80084ae:	d0bb      	beq.n	8008428 <UART_SetConfig+0x9c>
 80084b0:	e7f7      	b.n	80084a2 <UART_SetConfig+0x116>
 80084b2:	4a61      	ldr	r2, [pc, #388]	@ (8008638 <UART_SetConfig+0x2ac>)
 80084b4:	4293      	cmp	r3, r2
 80084b6:	d0c1      	beq.n	800843c <UART_SetConfig+0xb0>
 80084b8:	4a60      	ldr	r2, [pc, #384]	@ (800863c <UART_SetConfig+0x2b0>)
 80084ba:	4293      	cmp	r3, r2
 80084bc:	d0be      	beq.n	800843c <UART_SetConfig+0xb0>
 80084be:	4a56      	ldr	r2, [pc, #344]	@ (8008618 <UART_SetConfig+0x28c>)
 80084c0:	4293      	cmp	r3, r2
 80084c2:	d1ee      	bne.n	80084a2 <UART_SetConfig+0x116>
 80084c4:	f502 320e 	add.w	r2, r2, #145408	@ 0x23800
 80084c8:	6d93      	ldr	r3, [r2, #88]	@ 0x58
 80084ca:	f003 0307 	and.w	r3, r3, #7
 80084ce:	2b05      	cmp	r3, #5
 80084d0:	d8e7      	bhi.n	80084a2 <UART_SetConfig+0x116>
 80084d2:	e8df f003 	tbb	[pc, r3]
 80084d6:	2b49      	.short	0x2b49
 80084d8:	4c033f3a 	.word	0x4c033f3a
 80084dc:	4858      	ldr	r0, [pc, #352]	@ (8008640 <UART_SetConfig+0x2b4>)
 80084de:	4b59      	ldr	r3, [pc, #356]	@ (8008644 <UART_SetConfig+0x2b8>)
 80084e0:	6a62      	ldr	r2, [r4, #36]	@ 0x24
 80084e2:	6865      	ldr	r5, [r4, #4]
 80084e4:	f833 2012 	ldrh.w	r2, [r3, r2, lsl #1]
 80084e8:	eb05 0145 	add.w	r1, r5, r5, lsl #1
 80084ec:	fbb0 f3f2 	udiv	r3, r0, r2
 80084f0:	4299      	cmp	r1, r3
 80084f2:	d8d6      	bhi.n	80084a2 <UART_SetConfig+0x116>
 80084f4:	ebb3 3f05 	cmp.w	r3, r5, lsl #12
 80084f8:	d8d3      	bhi.n	80084a2 <UART_SetConfig+0x116>
 80084fa:	2300      	movs	r3, #0
 80084fc:	4619      	mov	r1, r3
 80084fe:	f7f7 ff3f 	bl	8000380 <__aeabi_uldivmod>
 8008502:	462a      	mov	r2, r5
 8008504:	0209      	lsls	r1, r1, #8
 8008506:	086b      	lsrs	r3, r5, #1
 8008508:	ea41 6110 	orr.w	r1, r1, r0, lsr #24
 800850c:	0200      	lsls	r0, r0, #8
 800850e:	18c0      	adds	r0, r0, r3
 8008510:	f04f 0300 	mov.w	r3, #0
 8008514:	f141 0100 	adc.w	r1, r1, #0
 8008518:	f7f7 ff32 	bl	8000380 <__aeabi_uldivmod>
 800851c:	4b4a      	ldr	r3, [pc, #296]	@ (8008648 <UART_SetConfig+0x2bc>)
 800851e:	f5a0 7240 	sub.w	r2, r0, #768	@ 0x300
 8008522:	429a      	cmp	r2, r3
 8008524:	d8bd      	bhi.n	80084a2 <UART_SetConfig+0x116>
 8008526:	6823      	ldr	r3, [r4, #0]
 8008528:	60d8      	str	r0, [r3, #12]
 800852a:	e005      	b.n	8008538 <UART_SetConfig+0x1ac>
 800852c:	4668      	mov	r0, sp
 800852e:	f7ff fa53 	bl	80079d8 <HAL_RCCEx_GetPLL2ClockFreq>
 8008532:	9801      	ldr	r0, [sp, #4]
 8008534:	2800      	cmp	r0, #0
 8008536:	d1d2      	bne.n	80084de <UART_SetConfig+0x152>
 8008538:	2000      	movs	r0, #0
 800853a:	f04f 1301 	mov.w	r3, #65537	@ 0x10001
 800853e:	66a3      	str	r3, [r4, #104]	@ 0x68
 8008540:	2300      	movs	r3, #0
 8008542:	e9c4 331d 	strd	r3, r3, [r4, #116]	@ 0x74
 8008546:	b007      	add	sp, #28
 8008548:	bd30      	pop	{r4, r5, pc}
 800854a:	a803      	add	r0, sp, #12
 800854c:	f7ff faee 	bl	8007b2c <HAL_RCCEx_GetPLL3ClockFreq>
 8008550:	9804      	ldr	r0, [sp, #16]
 8008552:	e7ef      	b.n	8008534 <UART_SetConfig+0x1a8>
 8008554:	6813      	ldr	r3, [r2, #0]
 8008556:	483d      	ldr	r0, [pc, #244]	@ (800864c <UART_SetConfig+0x2c0>)
 8008558:	f013 0f20 	tst.w	r3, #32
 800855c:	d0bf      	beq.n	80084de <UART_SetConfig+0x152>
 800855e:	6813      	ldr	r3, [r2, #0]
 8008560:	f3c3 03c1 	ubfx	r3, r3, #3, #2
 8008564:	40d8      	lsrs	r0, r3
 8008566:	e7ba      	b.n	80084de <UART_SetConfig+0x152>
 8008568:	f7ff fa24 	bl	80079b4 <HAL_RCCEx_GetD3PCLK1Freq>
 800856c:	e7e2      	b.n	8008534 <UART_SetConfig+0x1a8>
 800856e:	f44f 4000 	mov.w	r0, #32768	@ 0x8000
 8008572:	e7b4      	b.n	80084de <UART_SetConfig+0x152>
 8008574:	2304      	movs	r3, #4
 8008576:	e747      	b.n	8008408 <UART_SetConfig+0x7c>
 8008578:	2b08      	cmp	r3, #8
 800857a:	d892      	bhi.n	80084a2 <UART_SetConfig+0x116>
 800857c:	4668      	mov	r0, sp
 800857e:	f7ff fa2b 	bl	80079d8 <HAL_RCCEx_GetPLL2ClockFreq>
 8008582:	9801      	ldr	r0, [sp, #4]
 8008584:	e001      	b.n	800858a <UART_SetConfig+0x1fe>
 8008586:	f7fe fc19 	bl	8006dbc <HAL_RCC_GetPCLK1Freq>
 800858a:	2800      	cmp	r0, #0
 800858c:	d0d4      	beq.n	8008538 <UART_SetConfig+0x1ac>
 800858e:	e011      	b.n	80085b4 <UART_SetConfig+0x228>
 8008590:	f7fe fc26 	bl	8006de0 <HAL_RCC_GetPCLK2Freq>
 8008594:	e7f9      	b.n	800858a <UART_SetConfig+0x1fe>
 8008596:	a803      	add	r0, sp, #12
 8008598:	f7ff fac8 	bl	8007b2c <HAL_RCCEx_GetPLL3ClockFreq>
 800859c:	9804      	ldr	r0, [sp, #16]
 800859e:	e7f4      	b.n	800858a <UART_SetConfig+0x1fe>
 80085a0:	4b1f      	ldr	r3, [pc, #124]	@ (8008620 <UART_SetConfig+0x294>)
 80085a2:	482a      	ldr	r0, [pc, #168]	@ (800864c <UART_SetConfig+0x2c0>)
 80085a4:	681a      	ldr	r2, [r3, #0]
 80085a6:	f012 0f20 	tst.w	r2, #32
 80085aa:	d003      	beq.n	80085b4 <UART_SetConfig+0x228>
 80085ac:	681b      	ldr	r3, [r3, #0]
 80085ae:	f3c3 03c1 	ubfx	r3, r3, #3, #2
 80085b2:	40d8      	lsrs	r0, r3
 80085b4:	6a61      	ldr	r1, [r4, #36]	@ 0x24
 80085b6:	4b23      	ldr	r3, [pc, #140]	@ (8008644 <UART_SetConfig+0x2b8>)
 80085b8:	6862      	ldr	r2, [r4, #4]
 80085ba:	f833 3011 	ldrh.w	r3, [r3, r1, lsl #1]
 80085be:	fbb0 f3f3 	udiv	r3, r0, r3
 80085c2:	eb03 0352 	add.w	r3, r3, r2, lsr #1
 80085c6:	fbb3 f3f2 	udiv	r3, r3, r2
 80085ca:	f64f 72ef 	movw	r2, #65519	@ 0xffef
 80085ce:	f1a3 0110 	sub.w	r1, r3, #16
 80085d2:	4291      	cmp	r1, r2
 80085d4:	f63f af65 	bhi.w	80084a2 <UART_SetConfig+0x116>
 80085d8:	6822      	ldr	r2, [r4, #0]
 80085da:	60d3      	str	r3, [r2, #12]
 80085dc:	e7ac      	b.n	8008538 <UART_SetConfig+0x1ac>
 80085de:	f5b0 4f00 	cmp.w	r0, #32768	@ 0x8000
 80085e2:	4817      	ldr	r0, [pc, #92]	@ (8008640 <UART_SetConfig+0x2b4>)
 80085e4:	d1e6      	bne.n	80085b4 <UART_SetConfig+0x228>
 80085e6:	e040      	b.n	800866a <UART_SetConfig+0x2de>
 80085e8:	f5b0 4f00 	cmp.w	r0, #32768	@ 0x8000
 80085ec:	d1cb      	bne.n	8008586 <UART_SetConfig+0x1fa>
 80085ee:	f7fe fbe5 	bl	8006dbc <HAL_RCC_GetPCLK1Freq>
 80085f2:	2800      	cmp	r0, #0
 80085f4:	d0a0      	beq.n	8008538 <UART_SetConfig+0x1ac>
 80085f6:	e038      	b.n	800866a <UART_SetConfig+0x2de>
 80085f8:	f5b0 4f00 	cmp.w	r0, #32768	@ 0x8000
 80085fc:	d1c8      	bne.n	8008590 <UART_SetConfig+0x204>
 80085fe:	f7fe fbef 	bl	8006de0 <HAL_RCC_GetPCLK2Freq>
 8008602:	e7f6      	b.n	80085f2 <UART_SetConfig+0x266>
 8008604:	f5b0 4f00 	cmp.w	r0, #32768	@ 0x8000
 8008608:	d1c5      	bne.n	8008596 <UART_SetConfig+0x20a>
 800860a:	a803      	add	r0, sp, #12
 800860c:	f7ff fa8e 	bl	8007b2c <HAL_RCCEx_GetPLL3ClockFreq>
 8008610:	9804      	ldr	r0, [sp, #16]
 8008612:	e7ee      	b.n	80085f2 <UART_SetConfig+0x266>
 8008614:	cfff69f3 	.word	0xcfff69f3
 8008618:	58000c00 	.word	0x58000c00
 800861c:	40011000 	.word	0x40011000
 8008620:	58024400 	.word	0x58024400
 8008624:	40004400 	.word	0x40004400
 8008628:	40004800 	.word	0x40004800
 800862c:	40004c00 	.word	0x40004c00
 8008630:	40005000 	.word	0x40005000
 8008634:	40011400 	.word	0x40011400
 8008638:	40007800 	.word	0x40007800
 800863c:	40007c00 	.word	0x40007c00
 8008640:	003d0900 	.word	0x003d0900
 8008644:	0800dd68 	.word	0x0800dd68
 8008648:	000ffcff 	.word	0x000ffcff
 800864c:	03d09000 	.word	0x03d09000
 8008650:	f5b0 4f00 	cmp.w	r0, #32768	@ 0x8000
 8008654:	d1a4      	bne.n	80085a0 <UART_SetConfig+0x214>
 8008656:	4b15      	ldr	r3, [pc, #84]	@ (80086ac <UART_SetConfig+0x320>)
 8008658:	4815      	ldr	r0, [pc, #84]	@ (80086b0 <UART_SetConfig+0x324>)
 800865a:	681a      	ldr	r2, [r3, #0]
 800865c:	f012 0f20 	tst.w	r2, #32
 8008660:	d003      	beq.n	800866a <UART_SetConfig+0x2de>
 8008662:	681b      	ldr	r3, [r3, #0]
 8008664:	f3c3 03c1 	ubfx	r3, r3, #3, #2
 8008668:	40d8      	lsrs	r0, r3
 800866a:	4b12      	ldr	r3, [pc, #72]	@ (80086b4 <UART_SetConfig+0x328>)
 800866c:	6a62      	ldr	r2, [r4, #36]	@ 0x24
 800866e:	6861      	ldr	r1, [r4, #4]
 8008670:	f833 2012 	ldrh.w	r2, [r3, r2, lsl #1]
 8008674:	084b      	lsrs	r3, r1, #1
 8008676:	fbb0 f2f2 	udiv	r2, r0, r2
 800867a:	eb03 0342 	add.w	r3, r3, r2, lsl #1
 800867e:	f64f 72ef 	movw	r2, #65519	@ 0xffef
 8008682:	fbb3 f3f1 	udiv	r3, r3, r1
 8008686:	f1a3 0110 	sub.w	r1, r3, #16
 800868a:	4291      	cmp	r1, r2
 800868c:	f63f af09 	bhi.w	80084a2 <UART_SetConfig+0x116>
 8008690:	f023 020f 	bic.w	r2, r3, #15
 8008694:	f3c3 0342 	ubfx	r3, r3, #1, #3
 8008698:	6821      	ldr	r1, [r4, #0]
 800869a:	b292      	uxth	r2, r2
 800869c:	4313      	orrs	r3, r2
 800869e:	60cb      	str	r3, [r1, #12]
 80086a0:	e74a      	b.n	8008538 <UART_SetConfig+0x1ac>
 80086a2:	f5b0 4f00 	cmp.w	r0, #32768	@ 0x8000
 80086a6:	f47f af69 	bne.w	800857c <UART_SetConfig+0x1f0>
 80086aa:	e6b3      	b.n	8008414 <UART_SetConfig+0x88>
 80086ac:	58024400 	.word	0x58024400
 80086b0:	03d09000 	.word	0x03d09000
 80086b4:	0800dd68 	.word	0x0800dd68

080086b8 <UART_AdvFeatureConfig>:
 80086b8:	6a83      	ldr	r3, [r0, #40]	@ 0x28
 80086ba:	071a      	lsls	r2, r3, #28
 80086bc:	b510      	push	{r4, lr}
 80086be:	d506      	bpl.n	80086ce <UART_AdvFeatureConfig+0x16>
 80086c0:	6801      	ldr	r1, [r0, #0]
 80086c2:	6b84      	ldr	r4, [r0, #56]	@ 0x38
 80086c4:	684a      	ldr	r2, [r1, #4]
 80086c6:	f422 4200 	bic.w	r2, r2, #32768	@ 0x8000
 80086ca:	4322      	orrs	r2, r4
 80086cc:	604a      	str	r2, [r1, #4]
 80086ce:	07dc      	lsls	r4, r3, #31
 80086d0:	d506      	bpl.n	80086e0 <UART_AdvFeatureConfig+0x28>
 80086d2:	6801      	ldr	r1, [r0, #0]
 80086d4:	6ac4      	ldr	r4, [r0, #44]	@ 0x2c
 80086d6:	684a      	ldr	r2, [r1, #4]
 80086d8:	f422 3200 	bic.w	r2, r2, #131072	@ 0x20000
 80086dc:	4322      	orrs	r2, r4
 80086de:	604a      	str	r2, [r1, #4]
 80086e0:	0799      	lsls	r1, r3, #30
 80086e2:	d506      	bpl.n	80086f2 <UART_AdvFeatureConfig+0x3a>
 80086e4:	6801      	ldr	r1, [r0, #0]
 80086e6:	6b04      	ldr	r4, [r0, #48]	@ 0x30
 80086e8:	684a      	ldr	r2, [r1, #4]
 80086ea:	f422 3280 	bic.w	r2, r2, #65536	@ 0x10000
 80086ee:	4322      	orrs	r2, r4
 80086f0:	604a      	str	r2, [r1, #4]
 80086f2:	075a      	lsls	r2, r3, #29
 80086f4:	d506      	bpl.n	8008704 <UART_AdvFeatureConfig+0x4c>
 80086f6:	6801      	ldr	r1, [r0, #0]
 80086f8:	6b44      	ldr	r4, [r0, #52]	@ 0x34
 80086fa:	684a      	ldr	r2, [r1, #4]
 80086fc:	f422 2280 	bic.w	r2, r2, #262144	@ 0x40000
 8008700:	4322      	orrs	r2, r4
 8008702:	604a      	str	r2, [r1, #4]
 8008704:	06dc      	lsls	r4, r3, #27
 8008706:	d506      	bpl.n	8008716 <UART_AdvFeatureConfig+0x5e>
 8008708:	6801      	ldr	r1, [r0, #0]
 800870a:	6bc4      	ldr	r4, [r0, #60]	@ 0x3c
 800870c:	688a      	ldr	r2, [r1, #8]
 800870e:	f422 5280 	bic.w	r2, r2, #4096	@ 0x1000
 8008712:	4322      	orrs	r2, r4
 8008714:	608a      	str	r2, [r1, #8]
 8008716:	0699      	lsls	r1, r3, #26
 8008718:	d506      	bpl.n	8008728 <UART_AdvFeatureConfig+0x70>
 800871a:	6801      	ldr	r1, [r0, #0]
 800871c:	6c04      	ldr	r4, [r0, #64]	@ 0x40
 800871e:	688a      	ldr	r2, [r1, #8]
 8008720:	f422 5200 	bic.w	r2, r2, #8192	@ 0x2000
 8008724:	4322      	orrs	r2, r4
 8008726:	608a      	str	r2, [r1, #8]
 8008728:	065a      	lsls	r2, r3, #25
 800872a:	d510      	bpl.n	800874e <UART_AdvFeatureConfig+0x96>
 800872c:	6801      	ldr	r1, [r0, #0]
 800872e:	6c44      	ldr	r4, [r0, #68]	@ 0x44
 8008730:	684a      	ldr	r2, [r1, #4]
 8008732:	f5b4 1f80 	cmp.w	r4, #1048576	@ 0x100000
 8008736:	f422 1280 	bic.w	r2, r2, #1048576	@ 0x100000
 800873a:	ea42 0204 	orr.w	r2, r2, r4
 800873e:	604a      	str	r2, [r1, #4]
 8008740:	d105      	bne.n	800874e <UART_AdvFeatureConfig+0x96>
 8008742:	684a      	ldr	r2, [r1, #4]
 8008744:	6c84      	ldr	r4, [r0, #72]	@ 0x48
 8008746:	f422 02c0 	bic.w	r2, r2, #6291456	@ 0x600000
 800874a:	4322      	orrs	r2, r4
 800874c:	604a      	str	r2, [r1, #4]
 800874e:	061b      	lsls	r3, r3, #24
 8008750:	d506      	bpl.n	8008760 <UART_AdvFeatureConfig+0xa8>
 8008752:	6802      	ldr	r2, [r0, #0]
 8008754:	6cc1      	ldr	r1, [r0, #76]	@ 0x4c
 8008756:	6853      	ldr	r3, [r2, #4]
 8008758:	f423 2300 	bic.w	r3, r3, #524288	@ 0x80000
 800875c:	430b      	orrs	r3, r1
 800875e:	6053      	str	r3, [r2, #4]
 8008760:	bd10      	pop	{r4, pc}

08008762 <UART_WaitOnFlagUntilTimeout>:
 8008762:	e92d 43f8 	stmdb	sp!, {r3, r4, r5, r6, r7, r8, r9, lr}
 8008766:	f8dd 9020 	ldr.w	r9, [sp, #32]
 800876a:	4604      	mov	r4, r0
 800876c:	460d      	mov	r5, r1
 800876e:	4617      	mov	r7, r2
 8008770:	4698      	mov	r8, r3
 8008772:	6822      	ldr	r2, [r4, #0]
 8008774:	69d3      	ldr	r3, [r2, #28]
 8008776:	ea35 0303 	bics.w	r3, r5, r3
 800877a:	bf0c      	ite	eq
 800877c:	2301      	moveq	r3, #1
 800877e:	2300      	movne	r3, #0
 8008780:	42bb      	cmp	r3, r7
 8008782:	d001      	beq.n	8008788 <UART_WaitOnFlagUntilTimeout+0x26>
 8008784:	2000      	movs	r0, #0
 8008786:	e022      	b.n	80087ce <UART_WaitOnFlagUntilTimeout+0x6c>
 8008788:	f1b9 3fff 	cmp.w	r9, #4294967295	@ 0xffffffff
 800878c:	d0f2      	beq.n	8008774 <UART_WaitOnFlagUntilTimeout+0x12>
 800878e:	f7fd fc11 	bl	8005fb4 <HAL_GetTick>
 8008792:	eba0 0008 	sub.w	r0, r0, r8
 8008796:	4548      	cmp	r0, r9
 8008798:	d829      	bhi.n	80087ee <UART_WaitOnFlagUntilTimeout+0x8c>
 800879a:	f1b9 0f00 	cmp.w	r9, #0
 800879e:	d026      	beq.n	80087ee <UART_WaitOnFlagUntilTimeout+0x8c>
 80087a0:	6821      	ldr	r1, [r4, #0]
 80087a2:	680b      	ldr	r3, [r1, #0]
 80087a4:	075a      	lsls	r2, r3, #29
 80087a6:	d5e4      	bpl.n	8008772 <UART_WaitOnFlagUntilTimeout+0x10>
 80087a8:	2d80      	cmp	r5, #128	@ 0x80
 80087aa:	d0e2      	beq.n	8008772 <UART_WaitOnFlagUntilTimeout+0x10>
 80087ac:	2d40      	cmp	r5, #64	@ 0x40
 80087ae:	d0e0      	beq.n	8008772 <UART_WaitOnFlagUntilTimeout+0x10>
 80087b0:	69ce      	ldr	r6, [r1, #28]
 80087b2:	f016 0608 	ands.w	r6, r6, #8
 80087b6:	d00c      	beq.n	80087d2 <UART_WaitOnFlagUntilTimeout+0x70>
 80087b8:	2508      	movs	r5, #8
 80087ba:	4620      	mov	r0, r4
 80087bc:	620d      	str	r5, [r1, #32]
 80087be:	f7ff fdb9 	bl	8008334 <UART_EndRxTransfer>
 80087c2:	2300      	movs	r3, #0
 80087c4:	2001      	movs	r0, #1
 80087c6:	f8c4 5090 	str.w	r5, [r4, #144]	@ 0x90
 80087ca:	f884 3084 	strb.w	r3, [r4, #132]	@ 0x84
 80087ce:	e8bd 83f8 	ldmia.w	sp!, {r3, r4, r5, r6, r7, r8, r9, pc}
 80087d2:	69cb      	ldr	r3, [r1, #28]
 80087d4:	051b      	lsls	r3, r3, #20
 80087d6:	d5cc      	bpl.n	8008772 <UART_WaitOnFlagUntilTimeout+0x10>
 80087d8:	f44f 6300 	mov.w	r3, #2048	@ 0x800
 80087dc:	4620      	mov	r0, r4
 80087de:	620b      	str	r3, [r1, #32]
 80087e0:	f7ff fda8 	bl	8008334 <UART_EndRxTransfer>
 80087e4:	2320      	movs	r3, #32
 80087e6:	f884 6084 	strb.w	r6, [r4, #132]	@ 0x84
 80087ea:	f8c4 3090 	str.w	r3, [r4, #144]	@ 0x90
 80087ee:	2003      	movs	r0, #3
 80087f0:	e7ed      	b.n	80087ce <UART_WaitOnFlagUntilTimeout+0x6c>

080087f2 <HAL_UART_Transmit>:
 80087f2:	e92d 43f7 	stmdb	sp!, {r0, r1, r2, r4, r5, r6, r7, r8, r9, lr}
 80087f6:	4698      	mov	r8, r3
 80087f8:	f8d0 3088 	ldr.w	r3, [r0, #136]	@ 0x88
 80087fc:	4604      	mov	r4, r0
 80087fe:	460e      	mov	r6, r1
 8008800:	2b20      	cmp	r3, #32
 8008802:	4617      	mov	r7, r2
 8008804:	d146      	bne.n	8008894 <HAL_UART_Transmit+0xa2>
 8008806:	2900      	cmp	r1, #0
 8008808:	d046      	beq.n	8008898 <HAL_UART_Transmit+0xa6>
 800880a:	2a00      	cmp	r2, #0
 800880c:	d044      	beq.n	8008898 <HAL_UART_Transmit+0xa6>
 800880e:	2321      	movs	r3, #33	@ 0x21
 8008810:	2500      	movs	r5, #0
 8008812:	f8c0 5090 	str.w	r5, [r0, #144]	@ 0x90
 8008816:	f8c0 3088 	str.w	r3, [r0, #136]	@ 0x88
 800881a:	f7fd fbcb 	bl	8005fb4 <HAL_GetTick>
 800881e:	68a3      	ldr	r3, [r4, #8]
 8008820:	4681      	mov	r9, r0
 8008822:	f8a4 7054 	strh.w	r7, [r4, #84]	@ 0x54
 8008826:	f5b3 5f80 	cmp.w	r3, #4096	@ 0x1000
 800882a:	f8a4 7056 	strh.w	r7, [r4, #86]	@ 0x56
 800882e:	d103      	bne.n	8008838 <HAL_UART_Transmit+0x46>
 8008830:	6923      	ldr	r3, [r4, #16]
 8008832:	b90b      	cbnz	r3, 8008838 <HAL_UART_Transmit+0x46>
 8008834:	4635      	mov	r5, r6
 8008836:	461e      	mov	r6, r3
 8008838:	f8b4 2056 	ldrh.w	r2, [r4, #86]	@ 0x56
 800883c:	464b      	mov	r3, r9
 800883e:	f8cd 8000 	str.w	r8, [sp]
 8008842:	b292      	uxth	r2, r2
 8008844:	b942      	cbnz	r2, 8008858 <HAL_UART_Transmit+0x66>
 8008846:	2140      	movs	r1, #64	@ 0x40
 8008848:	4620      	mov	r0, r4
 800884a:	f7ff ff8a 	bl	8008762 <UART_WaitOnFlagUntilTimeout>
 800884e:	2320      	movs	r3, #32
 8008850:	b948      	cbnz	r0, 8008866 <HAL_UART_Transmit+0x74>
 8008852:	f8c4 3088 	str.w	r3, [r4, #136]	@ 0x88
 8008856:	e009      	b.n	800886c <HAL_UART_Transmit+0x7a>
 8008858:	2200      	movs	r2, #0
 800885a:	2180      	movs	r1, #128	@ 0x80
 800885c:	4620      	mov	r0, r4
 800885e:	f7ff ff80 	bl	8008762 <UART_WaitOnFlagUntilTimeout>
 8008862:	b130      	cbz	r0, 8008872 <HAL_UART_Transmit+0x80>
 8008864:	2320      	movs	r3, #32
 8008866:	2003      	movs	r0, #3
 8008868:	f8c4 3088 	str.w	r3, [r4, #136]	@ 0x88
 800886c:	b003      	add	sp, #12
 800886e:	e8bd 83f0 	ldmia.w	sp!, {r4, r5, r6, r7, r8, r9, pc}
 8008872:	6822      	ldr	r2, [r4, #0]
 8008874:	b95e      	cbnz	r6, 800888e <HAL_UART_Transmit+0x9c>
 8008876:	f835 3b02 	ldrh.w	r3, [r5], #2
 800887a:	f3c3 0308 	ubfx	r3, r3, #0, #9
 800887e:	6293      	str	r3, [r2, #40]	@ 0x28
 8008880:	f8b4 2056 	ldrh.w	r2, [r4, #86]	@ 0x56
 8008884:	3a01      	subs	r2, #1
 8008886:	b292      	uxth	r2, r2
 8008888:	f8a4 2056 	strh.w	r2, [r4, #86]	@ 0x56
 800888c:	e7d4      	b.n	8008838 <HAL_UART_Transmit+0x46>
 800888e:	f816 3b01 	ldrb.w	r3, [r6], #1
 8008892:	e7f4      	b.n	800887e <HAL_UART_Transmit+0x8c>
 8008894:	2002      	movs	r0, #2
 8008896:	e7e9      	b.n	800886c <HAL_UART_Transmit+0x7a>
 8008898:	2001      	movs	r0, #1
 800889a:	e7e7      	b.n	800886c <HAL_UART_Transmit+0x7a>

0800889c <UART_CheckIdleState>:
 800889c:	b573      	push	{r0, r1, r4, r5, r6, lr}
 800889e:	2600      	movs	r6, #0
 80088a0:	4604      	mov	r4, r0
 80088a2:	f8c0 6090 	str.w	r6, [r0, #144]	@ 0x90
 80088a6:	f7fd fb85 	bl	8005fb4 <HAL_GetTick>
 80088aa:	6823      	ldr	r3, [r4, #0]
 80088ac:	4605      	mov	r5, r0
 80088ae:	681b      	ldr	r3, [r3, #0]
 80088b0:	071a      	lsls	r2, r3, #28
 80088b2:	d51c      	bpl.n	80088ee <UART_CheckIdleState+0x52>
 80088b4:	f06f 437e 	mvn.w	r3, #4261412864	@ 0xfe000000
 80088b8:	4632      	mov	r2, r6
 80088ba:	f44f 1100 	mov.w	r1, #2097152	@ 0x200000
 80088be:	9300      	str	r3, [sp, #0]
 80088c0:	4603      	mov	r3, r0
 80088c2:	4620      	mov	r0, r4
 80088c4:	f7ff ff4d 	bl	8008762 <UART_WaitOnFlagUntilTimeout>
 80088c8:	b188      	cbz	r0, 80088ee <UART_CheckIdleState+0x52>
 80088ca:	6822      	ldr	r2, [r4, #0]
 80088cc:	e852 3f00 	ldrex	r3, [r2]
 80088d0:	f023 0380 	bic.w	r3, r3, #128	@ 0x80
 80088d4:	e842 3100 	strex	r1, r3, [r2]
 80088d8:	2900      	cmp	r1, #0
 80088da:	d1f6      	bne.n	80088ca <UART_CheckIdleState+0x2e>
 80088dc:	2320      	movs	r3, #32
 80088de:	f8c4 3088 	str.w	r3, [r4, #136]	@ 0x88
 80088e2:	2003      	movs	r0, #3
 80088e4:	2300      	movs	r3, #0
 80088e6:	f884 3084 	strb.w	r3, [r4, #132]	@ 0x84
 80088ea:	b002      	add	sp, #8
 80088ec:	bd70      	pop	{r4, r5, r6, pc}
 80088ee:	6823      	ldr	r3, [r4, #0]
 80088f0:	681b      	ldr	r3, [r3, #0]
 80088f2:	075b      	lsls	r3, r3, #29
 80088f4:	d524      	bpl.n	8008940 <UART_CheckIdleState+0xa4>
 80088f6:	f06f 437e 	mvn.w	r3, #4261412864	@ 0xfe000000
 80088fa:	2200      	movs	r2, #0
 80088fc:	f44f 0180 	mov.w	r1, #4194304	@ 0x400000
 8008900:	4620      	mov	r0, r4
 8008902:	9300      	str	r3, [sp, #0]
 8008904:	462b      	mov	r3, r5
 8008906:	f7ff ff2c 	bl	8008762 <UART_WaitOnFlagUntilTimeout>
 800890a:	b1c8      	cbz	r0, 8008940 <UART_CheckIdleState+0xa4>
 800890c:	6822      	ldr	r2, [r4, #0]
 800890e:	e852 3f00 	ldrex	r3, [r2]
 8008912:	f423 7390 	bic.w	r3, r3, #288	@ 0x120
 8008916:	e842 3100 	strex	r1, r3, [r2]
 800891a:	6822      	ldr	r2, [r4, #0]
 800891c:	2900      	cmp	r1, #0
 800891e:	d1f5      	bne.n	800890c <UART_CheckIdleState+0x70>
 8008920:	f102 0308 	add.w	r3, r2, #8
 8008924:	e853 3f00 	ldrex	r3, [r3]
 8008928:	f023 0301 	bic.w	r3, r3, #1
 800892c:	f102 0008 	add.w	r0, r2, #8
 8008930:	e840 3100 	strex	r1, r3, [r0]
 8008934:	2900      	cmp	r1, #0
 8008936:	d1f3      	bne.n	8008920 <UART_CheckIdleState+0x84>
 8008938:	2320      	movs	r3, #32
 800893a:	f8c4 308c 	str.w	r3, [r4, #140]	@ 0x8c
 800893e:	e7d0      	b.n	80088e2 <UART_CheckIdleState+0x46>
 8008940:	2320      	movs	r3, #32
 8008942:	2000      	movs	r0, #0
 8008944:	f8c4 3088 	str.w	r3, [r4, #136]	@ 0x88
 8008948:	f8c4 308c 	str.w	r3, [r4, #140]	@ 0x8c
 800894c:	66e0      	str	r0, [r4, #108]	@ 0x6c
 800894e:	6720      	str	r0, [r4, #112]	@ 0x70
 8008950:	e7c8      	b.n	80088e4 <UART_CheckIdleState+0x48>

08008952 <HAL_UART_Init>:
 8008952:	b510      	push	{r4, lr}
 8008954:	4604      	mov	r4, r0
 8008956:	b350      	cbz	r0, 80089ae <HAL_UART_Init+0x5c>
 8008958:	f8d0 3088 	ldr.w	r3, [r0, #136]	@ 0x88
 800895c:	b91b      	cbnz	r3, 8008966 <HAL_UART_Init+0x14>
 800895e:	f880 3084 	strb.w	r3, [r0, #132]	@ 0x84
 8008962:	f7fd f991 	bl	8005c88 <HAL_UART_MspInit>
 8008966:	2324      	movs	r3, #36	@ 0x24
 8008968:	6822      	ldr	r2, [r4, #0]
 800896a:	f8c4 3088 	str.w	r3, [r4, #136]	@ 0x88
 800896e:	6813      	ldr	r3, [r2, #0]
 8008970:	f023 0301 	bic.w	r3, r3, #1
 8008974:	6013      	str	r3, [r2, #0]
 8008976:	6aa3      	ldr	r3, [r4, #40]	@ 0x28
 8008978:	b113      	cbz	r3, 8008980 <HAL_UART_Init+0x2e>
 800897a:	4620      	mov	r0, r4
 800897c:	f7ff fe9c 	bl	80086b8 <UART_AdvFeatureConfig>
 8008980:	4620      	mov	r0, r4
 8008982:	f7ff fd03 	bl	800838c <UART_SetConfig>
 8008986:	2801      	cmp	r0, #1
 8008988:	d011      	beq.n	80089ae <HAL_UART_Init+0x5c>
 800898a:	6823      	ldr	r3, [r4, #0]
 800898c:	4620      	mov	r0, r4
 800898e:	685a      	ldr	r2, [r3, #4]
 8008990:	f422 4290 	bic.w	r2, r2, #18432	@ 0x4800
 8008994:	605a      	str	r2, [r3, #4]
 8008996:	689a      	ldr	r2, [r3, #8]
 8008998:	f022 022a 	bic.w	r2, r2, #42	@ 0x2a
 800899c:	609a      	str	r2, [r3, #8]
 800899e:	681a      	ldr	r2, [r3, #0]
 80089a0:	f042 0201 	orr.w	r2, r2, #1
 80089a4:	e8bd 4010 	ldmia.w	sp!, {r4, lr}
 80089a8:	601a      	str	r2, [r3, #0]
 80089aa:	f7ff bf77 	b.w	800889c <UART_CheckIdleState>
 80089ae:	2001      	movs	r0, #1
 80089b0:	bd10      	pop	{r4, pc}
	...

080089b4 <UARTEx_SetNbDataToProcess>:
 80089b4:	6e43      	ldr	r3, [r0, #100]	@ 0x64
 80089b6:	b530      	push	{r4, r5, lr}
 80089b8:	b92b      	cbnz	r3, 80089c6 <UARTEx_SetNbDataToProcess+0x12>
 80089ba:	2301      	movs	r3, #1
 80089bc:	f8a0 306a 	strh.w	r3, [r0, #106]	@ 0x6a
 80089c0:	f8a0 3068 	strh.w	r3, [r0, #104]	@ 0x68
 80089c4:	bd30      	pop	{r4, r5, pc}
 80089c6:	6803      	ldr	r3, [r0, #0]
 80089c8:	4d09      	ldr	r5, [pc, #36]	@ (80089f0 <UARTEx_SetNbDataToProcess+0x3c>)
 80089ca:	689a      	ldr	r2, [r3, #8]
 80089cc:	6899      	ldr	r1, [r3, #8]
 80089ce:	4c09      	ldr	r4, [pc, #36]	@ (80089f4 <UARTEx_SetNbDataToProcess+0x40>)
 80089d0:	f3c2 6242 	ubfx	r2, r2, #25, #3
 80089d4:	0f49      	lsrs	r1, r1, #29
 80089d6:	5c6b      	ldrb	r3, [r5, r1]
 80089d8:	5c61      	ldrb	r1, [r4, r1]
 80089da:	011b      	lsls	r3, r3, #4
 80089dc:	fbb3 f3f1 	udiv	r3, r3, r1
 80089e0:	f8a0 306a 	strh.w	r3, [r0, #106]	@ 0x6a
 80089e4:	5cab      	ldrb	r3, [r5, r2]
 80089e6:	5ca2      	ldrb	r2, [r4, r2]
 80089e8:	011b      	lsls	r3, r3, #4
 80089ea:	fbb3 f3f2 	udiv	r3, r3, r2
 80089ee:	e7e7      	b.n	80089c0 <UARTEx_SetNbDataToProcess+0xc>
 80089f0:	0800dd88 	.word	0x0800dd88
 80089f4:	0800dd80 	.word	0x0800dd80

080089f8 <HAL_UARTEx_DisableFifoMode>:
 80089f8:	f890 3084 	ldrb.w	r3, [r0, #132]	@ 0x84
 80089fc:	2b01      	cmp	r3, #1
 80089fe:	d014      	beq.n	8008a2a <HAL_UARTEx_DisableFifoMode+0x32>
 8008a00:	6802      	ldr	r2, [r0, #0]
 8008a02:	2324      	movs	r3, #36	@ 0x24
 8008a04:	f8c0 3088 	str.w	r3, [r0, #136]	@ 0x88
 8008a08:	6811      	ldr	r1, [r2, #0]
 8008a0a:	6813      	ldr	r3, [r2, #0]
 8008a0c:	f021 5100 	bic.w	r1, r1, #536870912	@ 0x20000000
 8008a10:	f023 0301 	bic.w	r3, r3, #1
 8008a14:	6013      	str	r3, [r2, #0]
 8008a16:	2300      	movs	r3, #0
 8008a18:	6643      	str	r3, [r0, #100]	@ 0x64
 8008a1a:	6011      	str	r1, [r2, #0]
 8008a1c:	2220      	movs	r2, #32
 8008a1e:	f880 3084 	strb.w	r3, [r0, #132]	@ 0x84
 8008a22:	f8c0 2088 	str.w	r2, [r0, #136]	@ 0x88
 8008a26:	4618      	mov	r0, r3
 8008a28:	4770      	bx	lr
 8008a2a:	2002      	movs	r0, #2
 8008a2c:	4770      	bx	lr

08008a2e <HAL_UARTEx_SetTxFifoThreshold>:
 8008a2e:	b570      	push	{r4, r5, r6, lr}
 8008a30:	f890 3084 	ldrb.w	r3, [r0, #132]	@ 0x84
 8008a34:	4604      	mov	r4, r0
 8008a36:	2b01      	cmp	r3, #1
 8008a38:	d017      	beq.n	8008a6a <HAL_UARTEx_SetTxFifoThreshold+0x3c>
 8008a3a:	6805      	ldr	r5, [r0, #0]
 8008a3c:	2324      	movs	r3, #36	@ 0x24
 8008a3e:	f8c0 3088 	str.w	r3, [r0, #136]	@ 0x88
 8008a42:	682e      	ldr	r6, [r5, #0]
 8008a44:	682b      	ldr	r3, [r5, #0]
 8008a46:	f023 0301 	bic.w	r3, r3, #1
 8008a4a:	602b      	str	r3, [r5, #0]
 8008a4c:	68ab      	ldr	r3, [r5, #8]
 8008a4e:	f023 4360 	bic.w	r3, r3, #3758096384	@ 0xe0000000
 8008a52:	4319      	orrs	r1, r3
 8008a54:	60a9      	str	r1, [r5, #8]
 8008a56:	f7ff ffad 	bl	80089b4 <UARTEx_SetNbDataToProcess>
 8008a5a:	2320      	movs	r3, #32
 8008a5c:	602e      	str	r6, [r5, #0]
 8008a5e:	f8c0 3088 	str.w	r3, [r0, #136]	@ 0x88
 8008a62:	2000      	movs	r0, #0
 8008a64:	f884 0084 	strb.w	r0, [r4, #132]	@ 0x84
 8008a68:	bd70      	pop	{r4, r5, r6, pc}
 8008a6a:	2002      	movs	r0, #2
 8008a6c:	e7fc      	b.n	8008a68 <HAL_UARTEx_SetTxFifoThreshold+0x3a>

08008a6e <HAL_UARTEx_SetRxFifoThreshold>:
 8008a6e:	b570      	push	{r4, r5, r6, lr}
 8008a70:	f890 3084 	ldrb.w	r3, [r0, #132]	@ 0x84
 8008a74:	4604      	mov	r4, r0
 8008a76:	2b01      	cmp	r3, #1
 8008a78:	d017      	beq.n	8008aaa <HAL_UARTEx_SetRxFifoThreshold+0x3c>
 8008a7a:	6805      	ldr	r5, [r0, #0]
 8008a7c:	2324      	movs	r3, #36	@ 0x24
 8008a7e:	f8c0 3088 	str.w	r3, [r0, #136]	@ 0x88
 8008a82:	682e      	ldr	r6, [r5, #0]
 8008a84:	682b      	ldr	r3, [r5, #0]
 8008a86:	f023 0301 	bic.w	r3, r3, #1
 8008a8a:	602b      	str	r3, [r5, #0]
 8008a8c:	68ab      	ldr	r3, [r5, #8]
 8008a8e:	f023 6360 	bic.w	r3, r3, #234881024	@ 0xe000000
 8008a92:	4319      	orrs	r1, r3
 8008a94:	60a9      	str	r1, [r5, #8]
 8008a96:	f7ff ff8d 	bl	80089b4 <UARTEx_SetNbDataToProcess>
 8008a9a:	2320      	movs	r3, #32
 8008a9c:	602e      	str	r6, [r5, #0]
 8008a9e:	f8c0 3088 	str.w	r3, [r0, #136]	@ 0x88
 8008aa2:	2000      	movs	r0, #0
 8008aa4:	f884 0084 	strb.w	r0, [r4, #132]	@ 0x84
 8008aa8:	bd70      	pop	{r4, r5, r6, pc}
 8008aaa:	2002      	movs	r0, #2
 8008aac:	e7fc      	b.n	8008aa8 <HAL_UARTEx_SetRxFifoThreshold+0x3a>

08008aae <__cxa_guard_acquire>:
 8008aae:	6802      	ldr	r2, [r0, #0]
 8008ab0:	07d2      	lsls	r2, r2, #31
 8008ab2:	4603      	mov	r3, r0
 8008ab4:	d405      	bmi.n	8008ac2 <__cxa_guard_acquire+0x14>
 8008ab6:	7842      	ldrb	r2, [r0, #1]
 8008ab8:	b102      	cbz	r2, 8008abc <__cxa_guard_acquire+0xe>
 8008aba:	deff      	udf	#255	@ 0xff
 8008abc:	2001      	movs	r0, #1
 8008abe:	7058      	strb	r0, [r3, #1]
 8008ac0:	4770      	bx	lr
 8008ac2:	2000      	movs	r0, #0
 8008ac4:	4770      	bx	lr

08008ac6 <__cxa_guard_release>:
 8008ac6:	2301      	movs	r3, #1
 8008ac8:	6003      	str	r3, [r0, #0]
 8008aca:	4770      	bx	lr

08008acc <acos>:
 8008acc:	b508      	push	{r3, lr}
 8008ace:	ed2d 8b04 	vpush	{d8-d9}
 8008ad2:	eeb0 8b40 	vmov.f64	d8, d0
 8008ad6:	f000 f827 	bl	8008b28 <__ieee754_acos>
 8008ada:	eeb4 8b48 	vcmp.f64	d8, d8
 8008ade:	eef1 fa10 	vmrs	APSR_nzcv, fpscr
 8008ae2:	eeb0 9b40 	vmov.f64	d9, d0
 8008ae6:	d615      	bvs.n	8008b14 <acos+0x48>
 8008ae8:	eeb0 0b48 	vmov.f64	d0, d8
 8008aec:	f000 fb78 	bl	80091e0 <fabs>
 8008af0:	eeb7 7b00 	vmov.f64	d7, #112	@ 0x3f800000  1.0
 8008af4:	eeb4 0bc7 	vcmpe.f64	d0, d7
 8008af8:	eef1 fa10 	vmrs	APSR_nzcv, fpscr
 8008afc:	dd0a      	ble.n	8008b14 <acos+0x48>
 8008afe:	f001 fb2f 	bl	800a160 <__errno>
 8008b02:	ecbd 8b04 	vpop	{d8-d9}
 8008b06:	2321      	movs	r3, #33	@ 0x21
 8008b08:	6003      	str	r3, [r0, #0]
 8008b0a:	e8bd 4008 	ldmia.w	sp!, {r3, lr}
 8008b0e:	4804      	ldr	r0, [pc, #16]	@ (8008b20 <acos+0x54>)
 8008b10:	f000 bbbe 	b.w	8009290 <nan>
 8008b14:	eeb0 0b49 	vmov.f64	d0, d9
 8008b18:	ecbd 8b04 	vpop	{d8-d9}
 8008b1c:	bd08      	pop	{r3, pc}
 8008b1e:	bf00      	nop
 8008b20:	0800b278 	.word	0x0800b278

08008b24 <atan2>:
 8008b24:	f000 b930 	b.w	8008d88 <__ieee754_atan2>

08008b28 <__ieee754_acos>:
 8008b28:	b500      	push	{lr}
 8008b2a:	ed2d 8b10 	vpush	{d8-d15}
 8008b2e:	eeb0 8b40 	vmov.f64	d8, d0
 8008b32:	ee18 2a90 	vmov	r2, s17
 8008b36:	4990      	ldr	r1, [pc, #576]	@ (8008d78 <__ieee754_acos+0x250>)
 8008b38:	f022 4300 	bic.w	r3, r2, #2147483648	@ 0x80000000
 8008b3c:	428b      	cmp	r3, r1
 8008b3e:	b087      	sub	sp, #28
 8008b40:	d918      	bls.n	8008b74 <__ieee754_acos+0x4c>
 8008b42:	ee10 1a10 	vmov	r1, s0
 8008b46:	f103 4340 	add.w	r3, r3, #3221225472	@ 0xc0000000
 8008b4a:	f503 1380 	add.w	r3, r3, #1048576	@ 0x100000
 8008b4e:	430b      	orrs	r3, r1
 8008b50:	d10b      	bne.n	8008b6a <__ieee754_acos+0x42>
 8008b52:	ed9f 0b6b 	vldr	d0, [pc, #428]	@ 8008d00 <__ieee754_acos+0x1d8>
 8008b56:	ed9f 7b6c 	vldr	d7, [pc, #432]	@ 8008d08 <__ieee754_acos+0x1e0>
 8008b5a:	2a00      	cmp	r2, #0
 8008b5c:	fe37 0b00 	vselgt.f64	d0, d7, d0
 8008b60:	b007      	add	sp, #28
 8008b62:	ecbd 8b10 	vpop	{d8-d15}
 8008b66:	f85d fb04 	ldr.w	pc, [sp], #4
 8008b6a:	ee30 8b40 	vsub.f64	d8, d0, d0
 8008b6e:	ee88 0b08 	vdiv.f64	d0, d8, d8
 8008b72:	e7f5      	b.n	8008b60 <__ieee754_acos+0x38>
 8008b74:	4981      	ldr	r1, [pc, #516]	@ (8008d7c <__ieee754_acos+0x254>)
 8008b76:	428b      	cmp	r3, r1
 8008b78:	d83b      	bhi.n	8008bf2 <__ieee754_acos+0xca>
 8008b7a:	4a81      	ldr	r2, [pc, #516]	@ (8008d80 <__ieee754_acos+0x258>)
 8008b7c:	4293      	cmp	r3, r2
 8008b7e:	ed9f 0b64 	vldr	d0, [pc, #400]	@ 8008d10 <__ieee754_acos+0x1e8>
 8008b82:	d9ed      	bls.n	8008b60 <__ieee754_acos+0x38>
 8008b84:	ee28 7b08 	vmul.f64	d7, d8, d8
 8008b88:	ed9f 5b63 	vldr	d5, [pc, #396]	@ 8008d18 <__ieee754_acos+0x1f0>
 8008b8c:	ed9f 6b64 	vldr	d6, [pc, #400]	@ 8008d20 <__ieee754_acos+0x1f8>
 8008b90:	eea7 6b05 	vfma.f64	d6, d7, d5
 8008b94:	ed9f 5b64 	vldr	d5, [pc, #400]	@ 8008d28 <__ieee754_acos+0x200>
 8008b98:	eea6 5b07 	vfma.f64	d5, d6, d7
 8008b9c:	ed9f 6b64 	vldr	d6, [pc, #400]	@ 8008d30 <__ieee754_acos+0x208>
 8008ba0:	eea5 6b07 	vfma.f64	d6, d5, d7
 8008ba4:	ed9f 5b64 	vldr	d5, [pc, #400]	@ 8008d38 <__ieee754_acos+0x210>
 8008ba8:	eea6 5b07 	vfma.f64	d5, d6, d7
 8008bac:	ed9f 6b64 	vldr	d6, [pc, #400]	@ 8008d40 <__ieee754_acos+0x218>
 8008bb0:	ed9f 4b65 	vldr	d4, [pc, #404]	@ 8008d48 <__ieee754_acos+0x220>
 8008bb4:	eea5 6b07 	vfma.f64	d6, d5, d7
 8008bb8:	ee26 6b07 	vmul.f64	d6, d6, d7
 8008bbc:	ed9f 5b64 	vldr	d5, [pc, #400]	@ 8008d50 <__ieee754_acos+0x228>
 8008bc0:	eea7 4b05 	vfma.f64	d4, d7, d5
 8008bc4:	ed9f 5b64 	vldr	d5, [pc, #400]	@ 8008d58 <__ieee754_acos+0x230>
 8008bc8:	eea4 5b07 	vfma.f64	d5, d4, d7
 8008bcc:	ed9f 4b64 	vldr	d4, [pc, #400]	@ 8008d60 <__ieee754_acos+0x238>
 8008bd0:	eea5 4b07 	vfma.f64	d4, d5, d7
 8008bd4:	eeb7 5b00 	vmov.f64	d5, #112	@ 0x3f800000  1.0
 8008bd8:	eea4 5b07 	vfma.f64	d5, d4, d7
 8008bdc:	ed9f 7b62 	vldr	d7, [pc, #392]	@ 8008d68 <__ieee754_acos+0x240>
 8008be0:	ee86 4b05 	vdiv.f64	d4, d6, d5
 8008be4:	eea8 7b44 	vfms.f64	d7, d8, d4
 8008be8:	ee38 7b47 	vsub.f64	d7, d8, d7
 8008bec:	ee30 0b47 	vsub.f64	d0, d0, d7
 8008bf0:	e7b6      	b.n	8008b60 <__ieee754_acos+0x38>
 8008bf2:	2a00      	cmp	r2, #0
 8008bf4:	ed9f eb48 	vldr	d14, [pc, #288]	@ 8008d18 <__ieee754_acos+0x1f0>
 8008bf8:	eeb7 9b00 	vmov.f64	d9, #112	@ 0x3f800000  1.0
 8008bfc:	eeb6 0b00 	vmov.f64	d0, #96	@ 0x3f000000  0.5
 8008c00:	ed9f db47 	vldr	d13, [pc, #284]	@ 8008d20 <__ieee754_acos+0x1f8>
 8008c04:	ed9f cb48 	vldr	d12, [pc, #288]	@ 8008d28 <__ieee754_acos+0x200>
 8008c08:	ed9f bb49 	vldr	d11, [pc, #292]	@ 8008d30 <__ieee754_acos+0x208>
 8008c0c:	ed9f ab4a 	vldr	d10, [pc, #296]	@ 8008d38 <__ieee754_acos+0x210>
 8008c10:	ed9f fb4b 	vldr	d15, [pc, #300]	@ 8008d40 <__ieee754_acos+0x218>
 8008c14:	ed9f 3b4c 	vldr	d3, [pc, #304]	@ 8008d48 <__ieee754_acos+0x220>
 8008c18:	ed9f 2b4f 	vldr	d2, [pc, #316]	@ 8008d58 <__ieee754_acos+0x230>
 8008c1c:	ed9f 1b50 	vldr	d1, [pc, #320]	@ 8008d60 <__ieee754_acos+0x238>
 8008c20:	da2a      	bge.n	8008c78 <__ieee754_acos+0x150>
 8008c22:	ee38 8b09 	vadd.f64	d8, d8, d9
 8008c26:	ee28 0b00 	vmul.f64	d0, d8, d0
 8008c2a:	ed9f 7b49 	vldr	d7, [pc, #292]	@ 8008d50 <__ieee754_acos+0x228>
 8008c2e:	eea0 db0e 	vfma.f64	d13, d0, d14
 8008c32:	eead cb00 	vfma.f64	d12, d13, d0
 8008c36:	eea0 3b07 	vfma.f64	d3, d0, d7
 8008c3a:	eeac bb00 	vfma.f64	d11, d12, d0
 8008c3e:	eea3 2b00 	vfma.f64	d2, d3, d0
 8008c42:	eeab ab00 	vfma.f64	d10, d11, d0
 8008c46:	eea2 1b00 	vfma.f64	d1, d2, d0
 8008c4a:	eeaa fb00 	vfma.f64	d15, d10, d0
 8008c4e:	eea1 9b00 	vfma.f64	d9, d1, d0
 8008c52:	ee2f 8b00 	vmul.f64	d8, d15, d0
 8008c56:	f000 fb17 	bl	8009288 <__ieee754_sqrt>
 8008c5a:	ee88 6b09 	vdiv.f64	d6, d8, d9
 8008c5e:	ed9f 7b44 	vldr	d7, [pc, #272]	@ 8008d70 <__ieee754_acos+0x248>
 8008c62:	eea0 7b06 	vfma.f64	d7, d0, d6
 8008c66:	ee37 7b00 	vadd.f64	d7, d7, d0
 8008c6a:	ed9f 0b25 	vldr	d0, [pc, #148]	@ 8008d00 <__ieee754_acos+0x1d8>
 8008c6e:	eeb0 6b00 	vmov.f64	d6, #0	@ 0x40000000  2.0
 8008c72:	eea7 0b46 	vfms.f64	d0, d7, d6
 8008c76:	e773      	b.n	8008b60 <__ieee754_acos+0x38>
 8008c78:	ee39 8b48 	vsub.f64	d8, d9, d8
 8008c7c:	ee28 8b00 	vmul.f64	d8, d8, d0
 8008c80:	eeb0 0b48 	vmov.f64	d0, d8
 8008c84:	ed8d 1b04 	vstr	d1, [sp, #16]
 8008c88:	ed8d 2b02 	vstr	d2, [sp, #8]
 8008c8c:	ed8d 3b00 	vstr	d3, [sp]
 8008c90:	f000 fafa 	bl	8009288 <__ieee754_sqrt>
 8008c94:	eeb0 5b48 	vmov.f64	d5, d8
 8008c98:	eea8 db0e 	vfma.f64	d13, d8, d14
 8008c9c:	ec53 2b10 	vmov	r2, r3, d0
 8008ca0:	eead cb08 	vfma.f64	d12, d13, d8
 8008ca4:	2200      	movs	r2, #0
 8008ca6:	ec43 2b17 	vmov	d7, r2, r3
 8008caa:	eeac bb08 	vfma.f64	d11, d12, d8
 8008cae:	ee30 6b07 	vadd.f64	d6, d0, d7
 8008cb2:	eea7 5b47 	vfms.f64	d5, d7, d7
 8008cb6:	ed9d 3b00 	vldr	d3, [sp]
 8008cba:	ee85 4b06 	vdiv.f64	d4, d5, d6
 8008cbe:	eeab ab08 	vfma.f64	d10, d11, d8
 8008cc2:	ed9f 6b23 	vldr	d6, [pc, #140]	@ 8008d50 <__ieee754_acos+0x228>
 8008cc6:	eeaa fb08 	vfma.f64	d15, d10, d8
 8008cca:	ee2f fb08 	vmul.f64	d15, d15, d8
 8008cce:	ed9d 2b02 	vldr	d2, [sp, #8]
 8008cd2:	eea8 3b06 	vfma.f64	d3, d8, d6
 8008cd6:	eeb0 6b44 	vmov.f64	d6, d4
 8008cda:	ed9d 1b04 	vldr	d1, [sp, #16]
 8008cde:	eea3 2b08 	vfma.f64	d2, d3, d8
 8008ce2:	eea2 1b08 	vfma.f64	d1, d2, d8
 8008ce6:	eea1 9b08 	vfma.f64	d9, d1, d8
 8008cea:	ee8f 5b09 	vdiv.f64	d5, d15, d9
 8008cee:	eea0 6b05 	vfma.f64	d6, d0, d5
 8008cf2:	ee37 0b06 	vadd.f64	d0, d7, d6
 8008cf6:	ee30 0b00 	vadd.f64	d0, d0, d0
 8008cfa:	e731      	b.n	8008b60 <__ieee754_acos+0x38>
 8008cfc:	f3af 8000 	nop.w
 8008d00:	54442d18 	.word	0x54442d18
 8008d04:	400921fb 	.word	0x400921fb
	...
 8008d10:	54442d18 	.word	0x54442d18
 8008d14:	3ff921fb 	.word	0x3ff921fb
 8008d18:	0dfdf709 	.word	0x0dfdf709
 8008d1c:	3f023de1 	.word	0x3f023de1
 8008d20:	7501b288 	.word	0x7501b288
 8008d24:	3f49efe0 	.word	0x3f49efe0
 8008d28:	b5688f3b 	.word	0xb5688f3b
 8008d2c:	bfa48228 	.word	0xbfa48228
 8008d30:	0e884455 	.word	0x0e884455
 8008d34:	3fc9c155 	.word	0x3fc9c155
 8008d38:	03eb6f7d 	.word	0x03eb6f7d
 8008d3c:	bfd4d612 	.word	0xbfd4d612
 8008d40:	55555555 	.word	0x55555555
 8008d44:	3fc55555 	.word	0x3fc55555
 8008d48:	1b8d0159 	.word	0x1b8d0159
 8008d4c:	bfe6066c 	.word	0xbfe6066c
 8008d50:	b12e9282 	.word	0xb12e9282
 8008d54:	3fb3b8c5 	.word	0x3fb3b8c5
 8008d58:	9c598ac8 	.word	0x9c598ac8
 8008d5c:	40002ae5 	.word	0x40002ae5
 8008d60:	1c8a2d4b 	.word	0x1c8a2d4b
 8008d64:	c0033a27 	.word	0xc0033a27
 8008d68:	33145c07 	.word	0x33145c07
 8008d6c:	3c91a626 	.word	0x3c91a626
 8008d70:	33145c07 	.word	0x33145c07
 8008d74:	bc91a626 	.word	0xbc91a626
 8008d78:	3fefffff 	.word	0x3fefffff
 8008d7c:	3fdfffff 	.word	0x3fdfffff
 8008d80:	3c600000 	.word	0x3c600000
 8008d84:	00000000 	.word	0x00000000

08008d88 <__ieee754_atan2>:
 8008d88:	ee11 1a10 	vmov	r1, s2
 8008d8c:	eeb0 7b40 	vmov.f64	d7, d0
 8008d90:	b5f8      	push	{r3, r4, r5, r6, r7, lr}
 8008d92:	ee11 5a90 	vmov	r5, s3
 8008d96:	424b      	negs	r3, r1
 8008d98:	4f59      	ldr	r7, [pc, #356]	@ (8008f00 <__ieee754_atan2+0x178>)
 8008d9a:	f025 4200 	bic.w	r2, r5, #2147483648	@ 0x80000000
 8008d9e:	430b      	orrs	r3, r1
 8008da0:	ea42 73d3 	orr.w	r3, r2, r3, lsr #31
 8008da4:	42bb      	cmp	r3, r7
 8008da6:	d80d      	bhi.n	8008dc4 <__ieee754_atan2+0x3c>
 8008da8:	ee10 ca10 	vmov	ip, s0
 8008dac:	ee17 6a90 	vmov	r6, s15
 8008db0:	f1cc 0000 	rsb	r0, ip, #0
 8008db4:	f026 4300 	bic.w	r3, r6, #2147483648	@ 0x80000000
 8008db8:	ea40 000c 	orr.w	r0, r0, ip
 8008dbc:	ea43 70d0 	orr.w	r0, r3, r0, lsr #31
 8008dc0:	42b8      	cmp	r0, r7
 8008dc2:	d904      	bls.n	8008dce <__ieee754_atan2+0x46>
 8008dc4:	ee37 7b01 	vadd.f64	d7, d7, d1
 8008dc8:	eeb0 0b47 	vmov.f64	d0, d7
 8008dcc:	bdf8      	pop	{r3, r4, r5, r6, r7, pc}
 8008dce:	f105 4040 	add.w	r0, r5, #3221225472	@ 0xc0000000
 8008dd2:	f500 1080 	add.w	r0, r0, #1048576	@ 0x100000
 8008dd6:	4308      	orrs	r0, r1
 8008dd8:	d103      	bne.n	8008de2 <__ieee754_atan2+0x5a>
 8008dda:	e8bd 40f8 	ldmia.w	sp!, {r3, r4, r5, r6, r7, lr}
 8008dde:	f000 b8b7 	b.w	8008f50 <atan>
 8008de2:	17ac      	asrs	r4, r5, #30
 8008de4:	f004 0402 	and.w	r4, r4, #2
 8008de8:	ea53 0c0c 	orrs.w	ip, r3, ip
 8008dec:	ea44 74d6 	orr.w	r4, r4, r6, lsr #31
 8008df0:	d107      	bne.n	8008e02 <__ieee754_atan2+0x7a>
 8008df2:	2c02      	cmp	r4, #2
 8008df4:	d05c      	beq.n	8008eb0 <__ieee754_atan2+0x128>
 8008df6:	ed9f 6b34 	vldr	d6, [pc, #208]	@ 8008ec8 <__ieee754_atan2+0x140>
 8008dfa:	2c03      	cmp	r4, #3
 8008dfc:	fe06 7b00 	vseleq.f64	d7, d6, d0
 8008e00:	e7e2      	b.n	8008dc8 <__ieee754_atan2+0x40>
 8008e02:	4311      	orrs	r1, r2
 8008e04:	d107      	bne.n	8008e16 <__ieee754_atan2+0x8e>
 8008e06:	ed9f 7b32 	vldr	d7, [pc, #200]	@ 8008ed0 <__ieee754_atan2+0x148>
 8008e0a:	ed9f 6b33 	vldr	d6, [pc, #204]	@ 8008ed8 <__ieee754_atan2+0x150>
 8008e0e:	2e00      	cmp	r6, #0
 8008e10:	fe27 7b06 	vselge.f64	d7, d7, d6
 8008e14:	e7d8      	b.n	8008dc8 <__ieee754_atan2+0x40>
 8008e16:	42ba      	cmp	r2, r7
 8008e18:	d10f      	bne.n	8008e3a <__ieee754_atan2+0xb2>
 8008e1a:	4293      	cmp	r3, r2
 8008e1c:	f104 34ff 	add.w	r4, r4, #4294967295	@ 0xffffffff
 8008e20:	d107      	bne.n	8008e32 <__ieee754_atan2+0xaa>
 8008e22:	2c02      	cmp	r4, #2
 8008e24:	d847      	bhi.n	8008eb6 <__ieee754_atan2+0x12e>
 8008e26:	4b37      	ldr	r3, [pc, #220]	@ (8008f04 <__ieee754_atan2+0x17c>)
 8008e28:	eb03 03c4 	add.w	r3, r3, r4, lsl #3
 8008e2c:	ed93 7b00 	vldr	d7, [r3]
 8008e30:	e7ca      	b.n	8008dc8 <__ieee754_atan2+0x40>
 8008e32:	2c02      	cmp	r4, #2
 8008e34:	d842      	bhi.n	8008ebc <__ieee754_atan2+0x134>
 8008e36:	4b34      	ldr	r3, [pc, #208]	@ (8008f08 <__ieee754_atan2+0x180>)
 8008e38:	e7f6      	b.n	8008e28 <__ieee754_atan2+0xa0>
 8008e3a:	42bb      	cmp	r3, r7
 8008e3c:	d0e3      	beq.n	8008e06 <__ieee754_atan2+0x7e>
 8008e3e:	1a9b      	subs	r3, r3, r2
 8008e40:	f1b3 7f74 	cmp.w	r3, #63963136	@ 0x3d00000
 8008e44:	ea4f 5223 	mov.w	r2, r3, asr #20
 8008e48:	da1a      	bge.n	8008e80 <__ieee754_atan2+0xf8>
 8008e4a:	2d00      	cmp	r5, #0
 8008e4c:	da01      	bge.n	8008e52 <__ieee754_atan2+0xca>
 8008e4e:	323c      	adds	r2, #60	@ 0x3c
 8008e50:	db19      	blt.n	8008e86 <__ieee754_atan2+0xfe>
 8008e52:	ee87 0b01 	vdiv.f64	d0, d7, d1
 8008e56:	f000 f9c3 	bl	80091e0 <fabs>
 8008e5a:	f000 f879 	bl	8008f50 <atan>
 8008e5e:	eeb0 7b40 	vmov.f64	d7, d0
 8008e62:	2c01      	cmp	r4, #1
 8008e64:	d012      	beq.n	8008e8c <__ieee754_atan2+0x104>
 8008e66:	2c02      	cmp	r4, #2
 8008e68:	d019      	beq.n	8008e9e <__ieee754_atan2+0x116>
 8008e6a:	2c00      	cmp	r4, #0
 8008e6c:	d0ac      	beq.n	8008dc8 <__ieee754_atan2+0x40>
 8008e6e:	ed9f 6b1c 	vldr	d6, [pc, #112]	@ 8008ee0 <__ieee754_atan2+0x158>
 8008e72:	ee37 7b46 	vsub.f64	d7, d7, d6
 8008e76:	ed9f 6b1c 	vldr	d6, [pc, #112]	@ 8008ee8 <__ieee754_atan2+0x160>
 8008e7a:	ee37 7b46 	vsub.f64	d7, d7, d6
 8008e7e:	e7a3      	b.n	8008dc8 <__ieee754_atan2+0x40>
 8008e80:	ed9f 7b13 	vldr	d7, [pc, #76]	@ 8008ed0 <__ieee754_atan2+0x148>
 8008e84:	e7ed      	b.n	8008e62 <__ieee754_atan2+0xda>
 8008e86:	ed9f 7b1a 	vldr	d7, [pc, #104]	@ 8008ef0 <__ieee754_atan2+0x168>
 8008e8a:	e7ea      	b.n	8008e62 <__ieee754_atan2+0xda>
 8008e8c:	ee17 1a90 	vmov	r1, s15
 8008e90:	ec53 2b17 	vmov	r2, r3, d7
 8008e94:	f101 4300 	add.w	r3, r1, #2147483648	@ 0x80000000
 8008e98:	ec43 2b17 	vmov	d7, r2, r3
 8008e9c:	e794      	b.n	8008dc8 <__ieee754_atan2+0x40>
 8008e9e:	ed9f 6b10 	vldr	d6, [pc, #64]	@ 8008ee0 <__ieee754_atan2+0x158>
 8008ea2:	ee37 7b46 	vsub.f64	d7, d7, d6
 8008ea6:	ed9f 6b10 	vldr	d6, [pc, #64]	@ 8008ee8 <__ieee754_atan2+0x160>
 8008eaa:	ee36 7b47 	vsub.f64	d7, d6, d7
 8008eae:	e78b      	b.n	8008dc8 <__ieee754_atan2+0x40>
 8008eb0:	ed9f 7b0d 	vldr	d7, [pc, #52]	@ 8008ee8 <__ieee754_atan2+0x160>
 8008eb4:	e788      	b.n	8008dc8 <__ieee754_atan2+0x40>
 8008eb6:	ed9f 7b10 	vldr	d7, [pc, #64]	@ 8008ef8 <__ieee754_atan2+0x170>
 8008eba:	e785      	b.n	8008dc8 <__ieee754_atan2+0x40>
 8008ebc:	ed9f 7b0c 	vldr	d7, [pc, #48]	@ 8008ef0 <__ieee754_atan2+0x168>
 8008ec0:	e782      	b.n	8008dc8 <__ieee754_atan2+0x40>
 8008ec2:	bf00      	nop
 8008ec4:	f3af 8000 	nop.w
 8008ec8:	54442d18 	.word	0x54442d18
 8008ecc:	c00921fb 	.word	0xc00921fb
 8008ed0:	54442d18 	.word	0x54442d18
 8008ed4:	3ff921fb 	.word	0x3ff921fb
 8008ed8:	54442d18 	.word	0x54442d18
 8008edc:	bff921fb 	.word	0xbff921fb
 8008ee0:	33145c07 	.word	0x33145c07
 8008ee4:	3ca1a626 	.word	0x3ca1a626
 8008ee8:	54442d18 	.word	0x54442d18
 8008eec:	400921fb 	.word	0x400921fb
	...
 8008ef8:	54442d18 	.word	0x54442d18
 8008efc:	3fe921fb 	.word	0x3fe921fb
 8008f00:	7ff00000 	.word	0x7ff00000
 8008f04:	0800dda8 	.word	0x0800dda8
 8008f08:	0800dd90 	.word	0x0800dd90
 8008f0c:	00000000 	.word	0x00000000

08008f10 <sqrt>:
 8008f10:	b508      	push	{r3, lr}
 8008f12:	ed2d 8b04 	vpush	{d8-d9}
 8008f16:	eeb0 8b40 	vmov.f64	d8, d0
 8008f1a:	f000 f9b5 	bl	8009288 <__ieee754_sqrt>
 8008f1e:	eeb4 8b48 	vcmp.f64	d8, d8
 8008f22:	eef1 fa10 	vmrs	APSR_nzcv, fpscr
 8008f26:	d60c      	bvs.n	8008f42 <sqrt+0x32>
 8008f28:	ed9f 9b07 	vldr	d9, [pc, #28]	@ 8008f48 <sqrt+0x38>
 8008f2c:	eeb4 8bc9 	vcmpe.f64	d8, d9
 8008f30:	eef1 fa10 	vmrs	APSR_nzcv, fpscr
 8008f34:	d505      	bpl.n	8008f42 <sqrt+0x32>
 8008f36:	f001 f913 	bl	800a160 <__errno>
 8008f3a:	ee89 0b09 	vdiv.f64	d0, d9, d9
 8008f3e:	2321      	movs	r3, #33	@ 0x21
 8008f40:	6003      	str	r3, [r0, #0]
 8008f42:	ecbd 8b04 	vpop	{d8-d9}
 8008f46:	bd08      	pop	{r3, pc}
	...

08008f50 <atan>:
 8008f50:	b538      	push	{r3, r4, r5, lr}
 8008f52:	eeb0 7b40 	vmov.f64	d7, d0
 8008f56:	ee17 5a90 	vmov	r5, s15
 8008f5a:	4b73      	ldr	r3, [pc, #460]	@ (8009128 <atan+0x1d8>)
 8008f5c:	f025 4400 	bic.w	r4, r5, #2147483648	@ 0x80000000
 8008f60:	429c      	cmp	r4, r3
 8008f62:	d913      	bls.n	8008f8c <atan+0x3c>
 8008f64:	4b71      	ldr	r3, [pc, #452]	@ (800912c <atan+0x1dc>)
 8008f66:	429c      	cmp	r4, r3
 8008f68:	d803      	bhi.n	8008f72 <atan+0x22>
 8008f6a:	d107      	bne.n	8008f7c <atan+0x2c>
 8008f6c:	ee10 3a10 	vmov	r3, s0
 8008f70:	b123      	cbz	r3, 8008f7c <atan+0x2c>
 8008f72:	ee37 7b07 	vadd.f64	d7, d7, d7
 8008f76:	eeb0 0b47 	vmov.f64	d0, d7
 8008f7a:	bd38      	pop	{r3, r4, r5, pc}
 8008f7c:	ed9f 7b4e 	vldr	d7, [pc, #312]	@ 80090b8 <atan+0x168>
 8008f80:	ed9f 6b4f 	vldr	d6, [pc, #316]	@ 80090c0 <atan+0x170>
 8008f84:	2d00      	cmp	r5, #0
 8008f86:	fe36 7b07 	vselgt.f64	d7, d6, d7
 8008f8a:	e7f4      	b.n	8008f76 <atan+0x26>
 8008f8c:	4b68      	ldr	r3, [pc, #416]	@ (8009130 <atan+0x1e0>)
 8008f8e:	429c      	cmp	r4, r3
 8008f90:	d811      	bhi.n	8008fb6 <atan+0x66>
 8008f92:	f1a3 73de 	sub.w	r3, r3, #29097984	@ 0x1bc0000
 8008f96:	429c      	cmp	r4, r3
 8008f98:	d80a      	bhi.n	8008fb0 <atan+0x60>
 8008f9a:	eeb7 5b00 	vmov.f64	d5, #112	@ 0x3f800000  1.0
 8008f9e:	ed9f 6b4a 	vldr	d6, [pc, #296]	@ 80090c8 <atan+0x178>
 8008fa2:	ee30 6b06 	vadd.f64	d6, d0, d6
 8008fa6:	eeb4 6bc5 	vcmpe.f64	d6, d5
 8008faa:	eef1 fa10 	vmrs	APSR_nzcv, fpscr
 8008fae:	dce2      	bgt.n	8008f76 <atan+0x26>
 8008fb0:	f04f 33ff 	mov.w	r3, #4294967295	@ 0xffffffff
 8008fb4:	e013      	b.n	8008fde <atan+0x8e>
 8008fb6:	f000 f913 	bl	80091e0 <fabs>
 8008fba:	4b5e      	ldr	r3, [pc, #376]	@ (8009134 <atan+0x1e4>)
 8008fbc:	429c      	cmp	r4, r3
 8008fbe:	d84f      	bhi.n	8009060 <atan+0x110>
 8008fc0:	f5a3 2350 	sub.w	r3, r3, #851968	@ 0xd0000
 8008fc4:	429c      	cmp	r4, r3
 8008fc6:	d841      	bhi.n	800904c <atan+0xfc>
 8008fc8:	eeb0 7b00 	vmov.f64	d7, #0	@ 0x40000000  2.0
 8008fcc:	eebf 5b00 	vmov.f64	d5, #240	@ 0xbf800000 -1.0
 8008fd0:	2300      	movs	r3, #0
 8008fd2:	eea0 5b07 	vfma.f64	d5, d0, d7
 8008fd6:	ee30 0b07 	vadd.f64	d0, d0, d7
 8008fda:	ee85 7b00 	vdiv.f64	d7, d5, d0
 8008fde:	ed9f 6b3c 	vldr	d6, [pc, #240]	@ 80090d0 <atan+0x180>
 8008fe2:	ee27 4b07 	vmul.f64	d4, d7, d7
 8008fe6:	ee24 5b04 	vmul.f64	d5, d4, d4
 8008fea:	ed9f 3b3b 	vldr	d3, [pc, #236]	@ 80090d8 <atan+0x188>
 8008fee:	eea5 3b06 	vfma.f64	d3, d5, d6
 8008ff2:	ed9f 6b3b 	vldr	d6, [pc, #236]	@ 80090e0 <atan+0x190>
 8008ff6:	eea3 6b05 	vfma.f64	d6, d3, d5
 8008ffa:	ed9f 3b3b 	vldr	d3, [pc, #236]	@ 80090e8 <atan+0x198>
 8008ffe:	eea6 3b05 	vfma.f64	d3, d6, d5
 8009002:	ed9f 6b3b 	vldr	d6, [pc, #236]	@ 80090f0 <atan+0x1a0>
 8009006:	eea3 6b05 	vfma.f64	d6, d3, d5
 800900a:	ed9f 3b3b 	vldr	d3, [pc, #236]	@ 80090f8 <atan+0x1a8>
 800900e:	ed9f 2b3c 	vldr	d2, [pc, #240]	@ 8009100 <atan+0x1b0>
 8009012:	eea6 3b05 	vfma.f64	d3, d6, d5
 8009016:	ed9f 6b3c 	vldr	d6, [pc, #240]	@ 8009108 <atan+0x1b8>
 800901a:	eea5 2b06 	vfma.f64	d2, d5, d6
 800901e:	ed9f 6b3c 	vldr	d6, [pc, #240]	@ 8009110 <atan+0x1c0>
 8009022:	eea2 6b05 	vfma.f64	d6, d2, d5
 8009026:	ed9f 2b3c 	vldr	d2, [pc, #240]	@ 8009118 <atan+0x1c8>
 800902a:	eea6 2b05 	vfma.f64	d2, d6, d5
 800902e:	ed9f 6b3c 	vldr	d6, [pc, #240]	@ 8009120 <atan+0x1d0>
 8009032:	1c5a      	adds	r2, r3, #1
 8009034:	eea2 6b05 	vfma.f64	d6, d2, d5
 8009038:	ee26 6b05 	vmul.f64	d6, d6, d5
 800903c:	eea3 6b04 	vfma.f64	d6, d3, d4
 8009040:	ee27 6b06 	vmul.f64	d6, d7, d6
 8009044:	d121      	bne.n	800908a <atan+0x13a>
 8009046:	ee37 7b46 	vsub.f64	d7, d7, d6
 800904a:	e794      	b.n	8008f76 <atan+0x26>
 800904c:	eeb7 7b00 	vmov.f64	d7, #112	@ 0x3f800000  1.0
 8009050:	2301      	movs	r3, #1
 8009052:	ee30 5b47 	vsub.f64	d5, d0, d7
 8009056:	ee30 0b07 	vadd.f64	d0, d0, d7
 800905a:	ee85 7b00 	vdiv.f64	d7, d5, d0
 800905e:	e7be      	b.n	8008fde <atan+0x8e>
 8009060:	4b35      	ldr	r3, [pc, #212]	@ (8009138 <atan+0x1e8>)
 8009062:	429c      	cmp	r4, r3
 8009064:	d20b      	bcs.n	800907e <atan+0x12e>
 8009066:	eeb7 7b08 	vmov.f64	d7, #120	@ 0x3fc00000  1.5
 800906a:	eeb7 6b00 	vmov.f64	d6, #112	@ 0x3f800000  1.0
 800906e:	ee30 5b47 	vsub.f64	d5, d0, d7
 8009072:	eea0 6b07 	vfma.f64	d6, d0, d7
 8009076:	2302      	movs	r3, #2
 8009078:	ee85 7b06 	vdiv.f64	d7, d5, d6
 800907c:	e7af      	b.n	8008fde <atan+0x8e>
 800907e:	eebf 6b00 	vmov.f64	d6, #240	@ 0xbf800000 -1.0
 8009082:	2303      	movs	r3, #3
 8009084:	ee86 7b00 	vdiv.f64	d7, d6, d0
 8009088:	e7a9      	b.n	8008fde <atan+0x8e>
 800908a:	4a2c      	ldr	r2, [pc, #176]	@ (800913c <atan+0x1ec>)
 800908c:	492c      	ldr	r1, [pc, #176]	@ (8009140 <atan+0x1f0>)
 800908e:	eb02 02c3 	add.w	r2, r2, r3, lsl #3
 8009092:	eb01 03c3 	add.w	r3, r1, r3, lsl #3
 8009096:	ed93 5b00 	vldr	d5, [r3]
 800909a:	ee36 6b45 	vsub.f64	d6, d6, d5
 800909e:	ee36 6b47 	vsub.f64	d6, d6, d7
 80090a2:	ed92 7b00 	vldr	d7, [r2]
 80090a6:	2d00      	cmp	r5, #0
 80090a8:	ee37 7b46 	vsub.f64	d7, d7, d6
 80090ac:	bfb8      	it	lt
 80090ae:	eeb1 7b47 	vneglt.f64	d7, d7
 80090b2:	e760      	b.n	8008f76 <atan+0x26>
 80090b4:	f3af 8000 	nop.w
 80090b8:	54442d18 	.word	0x54442d18
 80090bc:	bff921fb 	.word	0xbff921fb
 80090c0:	54442d18 	.word	0x54442d18
 80090c4:	3ff921fb 	.word	0x3ff921fb
 80090c8:	8800759c 	.word	0x8800759c
 80090cc:	7e37e43c 	.word	0x7e37e43c
 80090d0:	e322da11 	.word	0xe322da11
 80090d4:	3f90ad3a 	.word	0x3f90ad3a
 80090d8:	24760deb 	.word	0x24760deb
 80090dc:	3fa97b4b 	.word	0x3fa97b4b
 80090e0:	a0d03d51 	.word	0xa0d03d51
 80090e4:	3fb10d66 	.word	0x3fb10d66
 80090e8:	c54c206e 	.word	0xc54c206e
 80090ec:	3fb745cd 	.word	0x3fb745cd
 80090f0:	920083ff 	.word	0x920083ff
 80090f4:	3fc24924 	.word	0x3fc24924
 80090f8:	5555550d 	.word	0x5555550d
 80090fc:	3fd55555 	.word	0x3fd55555
 8009100:	52defd9a 	.word	0x52defd9a
 8009104:	bfadde2d 	.word	0xbfadde2d
 8009108:	2c6a6c2f 	.word	0x2c6a6c2f
 800910c:	bfa2b444 	.word	0xbfa2b444
 8009110:	af749a6d 	.word	0xaf749a6d
 8009114:	bfb3b0f2 	.word	0xbfb3b0f2
 8009118:	fe231671 	.word	0xfe231671
 800911c:	bfbc71c6 	.word	0xbfbc71c6
 8009120:	9998ebc4 	.word	0x9998ebc4
 8009124:	bfc99999 	.word	0xbfc99999
 8009128:	440fffff 	.word	0x440fffff
 800912c:	7ff00000 	.word	0x7ff00000
 8009130:	3fdbffff 	.word	0x3fdbffff
 8009134:	3ff2ffff 	.word	0x3ff2ffff
 8009138:	40038000 	.word	0x40038000
 800913c:	0800dde0 	.word	0x0800dde0
 8009140:	0800ddc0 	.word	0x0800ddc0
 8009144:	00000000 	.word	0x00000000

08009148 <cos>:
 8009148:	b51f      	push	{r0, r1, r2, r3, r4, lr}
 800914a:	eeb0 7b40 	vmov.f64	d7, d0
 800914e:	ee17 3a90 	vmov	r3, s15
 8009152:	4a21      	ldr	r2, [pc, #132]	@ (80091d8 <cos+0x90>)
 8009154:	f023 4300 	bic.w	r3, r3, #2147483648	@ 0x80000000
 8009158:	4293      	cmp	r3, r2
 800915a:	d806      	bhi.n	800916a <cos+0x22>
 800915c:	ed9f 1b1c 	vldr	d1, [pc, #112]	@ 80091d0 <cos+0x88>
 8009160:	b005      	add	sp, #20
 8009162:	f85d eb04 	ldr.w	lr, [sp], #4
 8009166:	f000 bc5b 	b.w	8009a20 <__kernel_cos>
 800916a:	4a1c      	ldr	r2, [pc, #112]	@ (80091dc <cos+0x94>)
 800916c:	4293      	cmp	r3, r2
 800916e:	d904      	bls.n	800917a <cos+0x32>
 8009170:	ee30 0b40 	vsub.f64	d0, d0, d0
 8009174:	b005      	add	sp, #20
 8009176:	f85d fb04 	ldr.w	pc, [sp], #4
 800917a:	4668      	mov	r0, sp
 800917c:	f000 f890 	bl	80092a0 <__ieee754_rem_pio2>
 8009180:	f000 0003 	and.w	r0, r0, #3
 8009184:	2801      	cmp	r0, #1
 8009186:	d009      	beq.n	800919c <cos+0x54>
 8009188:	2802      	cmp	r0, #2
 800918a:	d010      	beq.n	80091ae <cos+0x66>
 800918c:	b9b0      	cbnz	r0, 80091bc <cos+0x74>
 800918e:	ed9d 1b02 	vldr	d1, [sp, #8]
 8009192:	ed9d 0b00 	vldr	d0, [sp]
 8009196:	f000 fc43 	bl	8009a20 <__kernel_cos>
 800919a:	e7eb      	b.n	8009174 <cos+0x2c>
 800919c:	ed9d 1b02 	vldr	d1, [sp, #8]
 80091a0:	ed9d 0b00 	vldr	d0, [sp]
 80091a4:	f000 fca4 	bl	8009af0 <__kernel_sin>
 80091a8:	eeb1 0b40 	vneg.f64	d0, d0
 80091ac:	e7e2      	b.n	8009174 <cos+0x2c>
 80091ae:	ed9d 1b02 	vldr	d1, [sp, #8]
 80091b2:	ed9d 0b00 	vldr	d0, [sp]
 80091b6:	f000 fc33 	bl	8009a20 <__kernel_cos>
 80091ba:	e7f5      	b.n	80091a8 <cos+0x60>
 80091bc:	ed9d 1b02 	vldr	d1, [sp, #8]
 80091c0:	ed9d 0b00 	vldr	d0, [sp]
 80091c4:	2001      	movs	r0, #1
 80091c6:	f000 fc93 	bl	8009af0 <__kernel_sin>
 80091ca:	e7d3      	b.n	8009174 <cos+0x2c>
 80091cc:	f3af 8000 	nop.w
	...
 80091d8:	3fe921fb 	.word	0x3fe921fb
 80091dc:	7fefffff 	.word	0x7fefffff

080091e0 <fabs>:
 80091e0:	ec51 0b10 	vmov	r0, r1, d0
 80091e4:	4602      	mov	r2, r0
 80091e6:	f021 4300 	bic.w	r3, r1, #2147483648	@ 0x80000000
 80091ea:	ec43 2b10 	vmov	d0, r2, r3
 80091ee:	4770      	bx	lr

080091f0 <sin>:
 80091f0:	b51f      	push	{r0, r1, r2, r3, r4, lr}
 80091f2:	eeb0 7b40 	vmov.f64	d7, d0
 80091f6:	ee17 3a90 	vmov	r3, s15
 80091fa:	4a21      	ldr	r2, [pc, #132]	@ (8009280 <sin+0x90>)
 80091fc:	f023 4300 	bic.w	r3, r3, #2147483648	@ 0x80000000
 8009200:	4293      	cmp	r3, r2
 8009202:	d807      	bhi.n	8009214 <sin+0x24>
 8009204:	ed9f 1b1c 	vldr	d1, [pc, #112]	@ 8009278 <sin+0x88>
 8009208:	2000      	movs	r0, #0
 800920a:	b005      	add	sp, #20
 800920c:	f85d eb04 	ldr.w	lr, [sp], #4
 8009210:	f000 bc6e 	b.w	8009af0 <__kernel_sin>
 8009214:	4a1b      	ldr	r2, [pc, #108]	@ (8009284 <sin+0x94>)
 8009216:	4293      	cmp	r3, r2
 8009218:	d904      	bls.n	8009224 <sin+0x34>
 800921a:	ee30 0b40 	vsub.f64	d0, d0, d0
 800921e:	b005      	add	sp, #20
 8009220:	f85d fb04 	ldr.w	pc, [sp], #4
 8009224:	4668      	mov	r0, sp
 8009226:	f000 f83b 	bl	80092a0 <__ieee754_rem_pio2>
 800922a:	f000 0003 	and.w	r0, r0, #3
 800922e:	2801      	cmp	r0, #1
 8009230:	d00a      	beq.n	8009248 <sin+0x58>
 8009232:	2802      	cmp	r0, #2
 8009234:	d00f      	beq.n	8009256 <sin+0x66>
 8009236:	b9c0      	cbnz	r0, 800926a <sin+0x7a>
 8009238:	ed9d 1b02 	vldr	d1, [sp, #8]
 800923c:	ed9d 0b00 	vldr	d0, [sp]
 8009240:	2001      	movs	r0, #1
 8009242:	f000 fc55 	bl	8009af0 <__kernel_sin>
 8009246:	e7ea      	b.n	800921e <sin+0x2e>
 8009248:	ed9d 1b02 	vldr	d1, [sp, #8]
 800924c:	ed9d 0b00 	vldr	d0, [sp]
 8009250:	f000 fbe6 	bl	8009a20 <__kernel_cos>
 8009254:	e7e3      	b.n	800921e <sin+0x2e>
 8009256:	ed9d 1b02 	vldr	d1, [sp, #8]
 800925a:	ed9d 0b00 	vldr	d0, [sp]
 800925e:	2001      	movs	r0, #1
 8009260:	f000 fc46 	bl	8009af0 <__kernel_sin>
 8009264:	eeb1 0b40 	vneg.f64	d0, d0
 8009268:	e7d9      	b.n	800921e <sin+0x2e>
 800926a:	ed9d 1b02 	vldr	d1, [sp, #8]
 800926e:	ed9d 0b00 	vldr	d0, [sp]
 8009272:	f000 fbd5 	bl	8009a20 <__kernel_cos>
 8009276:	e7f5      	b.n	8009264 <sin+0x74>
	...
 8009280:	3fe921fb 	.word	0x3fe921fb
 8009284:	7fefffff 	.word	0x7fefffff

08009288 <__ieee754_sqrt>:
 8009288:	eeb1 0bc0 	vsqrt.f64	d0, d0
 800928c:	4770      	bx	lr
	...

08009290 <nan>:
 8009290:	ed9f 0b01 	vldr	d0, [pc, #4]	@ 8009298 <nan+0x8>
 8009294:	4770      	bx	lr
 8009296:	bf00      	nop
 8009298:	00000000 	.word	0x00000000
 800929c:	7ff80000 	.word	0x7ff80000

080092a0 <__ieee754_rem_pio2>:
 80092a0:	b570      	push	{r4, r5, r6, lr}
 80092a2:	eeb0 7b40 	vmov.f64	d7, d0
 80092a6:	ee17 5a90 	vmov	r5, s15
 80092aa:	4b99      	ldr	r3, [pc, #612]	@ (8009510 <__ieee754_rem_pio2+0x270>)
 80092ac:	f025 4600 	bic.w	r6, r5, #2147483648	@ 0x80000000
 80092b0:	429e      	cmp	r6, r3
 80092b2:	b088      	sub	sp, #32
 80092b4:	4604      	mov	r4, r0
 80092b6:	d807      	bhi.n	80092c8 <__ieee754_rem_pio2+0x28>
 80092b8:	2200      	movs	r2, #0
 80092ba:	2300      	movs	r3, #0
 80092bc:	ed84 0b00 	vstr	d0, [r4]
 80092c0:	e9c0 2302 	strd	r2, r3, [r0, #8]
 80092c4:	2000      	movs	r0, #0
 80092c6:	e01b      	b.n	8009300 <__ieee754_rem_pio2+0x60>
 80092c8:	4b92      	ldr	r3, [pc, #584]	@ (8009514 <__ieee754_rem_pio2+0x274>)
 80092ca:	429e      	cmp	r6, r3
 80092cc:	d83b      	bhi.n	8009346 <__ieee754_rem_pio2+0xa6>
 80092ce:	f5a3 231b 	sub.w	r3, r3, #634880	@ 0x9b000
 80092d2:	2d00      	cmp	r5, #0
 80092d4:	ed9f 6b7e 	vldr	d6, [pc, #504]	@ 80094d0 <__ieee754_rem_pio2+0x230>
 80092d8:	f5a3 63f0 	sub.w	r3, r3, #1920	@ 0x780
 80092dc:	dd19      	ble.n	8009312 <__ieee754_rem_pio2+0x72>
 80092de:	ee30 7b46 	vsub.f64	d7, d0, d6
 80092e2:	429e      	cmp	r6, r3
 80092e4:	d00e      	beq.n	8009304 <__ieee754_rem_pio2+0x64>
 80092e6:	ed9f 5b7c 	vldr	d5, [pc, #496]	@ 80094d8 <__ieee754_rem_pio2+0x238>
 80092ea:	ee37 6b45 	vsub.f64	d6, d7, d5
 80092ee:	ee37 7b46 	vsub.f64	d7, d7, d6
 80092f2:	ed84 6b00 	vstr	d6, [r4]
 80092f6:	ee37 7b45 	vsub.f64	d7, d7, d5
 80092fa:	ed84 7b02 	vstr	d7, [r4, #8]
 80092fe:	2001      	movs	r0, #1
 8009300:	b008      	add	sp, #32
 8009302:	bd70      	pop	{r4, r5, r6, pc}
 8009304:	ed9f 6b76 	vldr	d6, [pc, #472]	@ 80094e0 <__ieee754_rem_pio2+0x240>
 8009308:	ed9f 5b77 	vldr	d5, [pc, #476]	@ 80094e8 <__ieee754_rem_pio2+0x248>
 800930c:	ee37 7b46 	vsub.f64	d7, d7, d6
 8009310:	e7eb      	b.n	80092ea <__ieee754_rem_pio2+0x4a>
 8009312:	429e      	cmp	r6, r3
 8009314:	ee30 7b06 	vadd.f64	d7, d0, d6
 8009318:	d00e      	beq.n	8009338 <__ieee754_rem_pio2+0x98>
 800931a:	ed9f 5b6f 	vldr	d5, [pc, #444]	@ 80094d8 <__ieee754_rem_pio2+0x238>
 800931e:	ee37 6b05 	vadd.f64	d6, d7, d5
 8009322:	ee37 7b46 	vsub.f64	d7, d7, d6
 8009326:	ed84 6b00 	vstr	d6, [r4]
 800932a:	ee37 7b05 	vadd.f64	d7, d7, d5
 800932e:	f04f 30ff 	mov.w	r0, #4294967295	@ 0xffffffff
 8009332:	ed84 7b02 	vstr	d7, [r4, #8]
 8009336:	e7e3      	b.n	8009300 <__ieee754_rem_pio2+0x60>
 8009338:	ed9f 6b69 	vldr	d6, [pc, #420]	@ 80094e0 <__ieee754_rem_pio2+0x240>
 800933c:	ed9f 5b6a 	vldr	d5, [pc, #424]	@ 80094e8 <__ieee754_rem_pio2+0x248>
 8009340:	ee37 7b06 	vadd.f64	d7, d7, d6
 8009344:	e7eb      	b.n	800931e <__ieee754_rem_pio2+0x7e>
 8009346:	4b74      	ldr	r3, [pc, #464]	@ (8009518 <__ieee754_rem_pio2+0x278>)
 8009348:	429e      	cmp	r6, r3
 800934a:	d870      	bhi.n	800942e <__ieee754_rem_pio2+0x18e>
 800934c:	f7ff ff48 	bl	80091e0 <fabs>
 8009350:	eeb6 7b00 	vmov.f64	d7, #96	@ 0x3f000000  0.5
 8009354:	ed9f 6b66 	vldr	d6, [pc, #408]	@ 80094f0 <__ieee754_rem_pio2+0x250>
 8009358:	eea0 7b06 	vfma.f64	d7, d0, d6
 800935c:	eefd 7bc7 	vcvt.s32.f64	s15, d7
 8009360:	eeb8 5be7 	vcvt.f64.s32	d5, s15
 8009364:	ee17 0a90 	vmov	r0, s15
 8009368:	eeb1 4b45 	vneg.f64	d4, d5
 800936c:	ed9f 7b58 	vldr	d7, [pc, #352]	@ 80094d0 <__ieee754_rem_pio2+0x230>
 8009370:	eea5 0b47 	vfms.f64	d0, d5, d7
 8009374:	ed9f 7b58 	vldr	d7, [pc, #352]	@ 80094d8 <__ieee754_rem_pio2+0x238>
 8009378:	281f      	cmp	r0, #31
 800937a:	ee25 7b07 	vmul.f64	d7, d5, d7
 800937e:	ee30 6b47 	vsub.f64	d6, d0, d7
 8009382:	dc05      	bgt.n	8009390 <__ieee754_rem_pio2+0xf0>
 8009384:	4b65      	ldr	r3, [pc, #404]	@ (800951c <__ieee754_rem_pio2+0x27c>)
 8009386:	1e42      	subs	r2, r0, #1
 8009388:	f853 3022 	ldr.w	r3, [r3, r2, lsl #2]
 800938c:	42b3      	cmp	r3, r6
 800938e:	d109      	bne.n	80093a4 <__ieee754_rem_pio2+0x104>
 8009390:	ee16 3a90 	vmov	r3, s13
 8009394:	f3c3 530a 	ubfx	r3, r3, #20, #11
 8009398:	ebc3 5316 	rsb	r3, r3, r6, lsr #20
 800939c:	2b10      	cmp	r3, #16
 800939e:	ea4f 5226 	mov.w	r2, r6, asr #20
 80093a2:	dc02      	bgt.n	80093aa <__ieee754_rem_pio2+0x10a>
 80093a4:	ed84 6b00 	vstr	d6, [r4]
 80093a8:	e01a      	b.n	80093e0 <__ieee754_rem_pio2+0x140>
 80093aa:	ed9f 3b4d 	vldr	d3, [pc, #308]	@ 80094e0 <__ieee754_rem_pio2+0x240>
 80093ae:	eeb0 6b40 	vmov.f64	d6, d0
 80093b2:	eea4 6b03 	vfma.f64	d6, d4, d3
 80093b6:	ee30 7b46 	vsub.f64	d7, d0, d6
 80093ba:	eea4 7b03 	vfma.f64	d7, d4, d3
 80093be:	ed9f 3b4a 	vldr	d3, [pc, #296]	@ 80094e8 <__ieee754_rem_pio2+0x248>
 80093c2:	ee95 7b03 	vfnms.f64	d7, d5, d3
 80093c6:	ee36 3b47 	vsub.f64	d3, d6, d7
 80093ca:	ee13 3a90 	vmov	r3, s7
 80093ce:	f3c3 530a 	ubfx	r3, r3, #20, #11
 80093d2:	1ad3      	subs	r3, r2, r3
 80093d4:	2b31      	cmp	r3, #49	@ 0x31
 80093d6:	dc17      	bgt.n	8009408 <__ieee754_rem_pio2+0x168>
 80093d8:	eeb0 0b46 	vmov.f64	d0, d6
 80093dc:	ed84 3b00 	vstr	d3, [r4]
 80093e0:	ed94 6b00 	vldr	d6, [r4]
 80093e4:	2d00      	cmp	r5, #0
 80093e6:	ee30 0b46 	vsub.f64	d0, d0, d6
 80093ea:	ee30 0b47 	vsub.f64	d0, d0, d7
 80093ee:	ed84 0b02 	vstr	d0, [r4, #8]
 80093f2:	da85      	bge.n	8009300 <__ieee754_rem_pio2+0x60>
 80093f4:	eeb1 6b46 	vneg.f64	d6, d6
 80093f8:	eeb1 0b40 	vneg.f64	d0, d0
 80093fc:	ed84 6b00 	vstr	d6, [r4]
 8009400:	ed84 0b02 	vstr	d0, [r4, #8]
 8009404:	4240      	negs	r0, r0
 8009406:	e77b      	b.n	8009300 <__ieee754_rem_pio2+0x60>
 8009408:	ed9f 7b3b 	vldr	d7, [pc, #236]	@ 80094f8 <__ieee754_rem_pio2+0x258>
 800940c:	eeb0 0b46 	vmov.f64	d0, d6
 8009410:	eea4 0b07 	vfma.f64	d0, d4, d7
 8009414:	ee36 6b40 	vsub.f64	d6, d6, d0
 8009418:	eea4 6b07 	vfma.f64	d6, d4, d7
 800941c:	ed9f 4b38 	vldr	d4, [pc, #224]	@ 8009500 <__ieee754_rem_pio2+0x260>
 8009420:	eeb0 7b46 	vmov.f64	d7, d6
 8009424:	ee95 7b04 	vfnms.f64	d7, d5, d4
 8009428:	ee30 6b47 	vsub.f64	d6, d0, d7
 800942c:	e7ba      	b.n	80093a4 <__ieee754_rem_pio2+0x104>
 800942e:	4b3c      	ldr	r3, [pc, #240]	@ (8009520 <__ieee754_rem_pio2+0x280>)
 8009430:	429e      	cmp	r6, r3
 8009432:	d906      	bls.n	8009442 <__ieee754_rem_pio2+0x1a2>
 8009434:	ee30 7b40 	vsub.f64	d7, d0, d0
 8009438:	ed80 7b02 	vstr	d7, [r0, #8]
 800943c:	ed80 7b00 	vstr	d7, [r0]
 8009440:	e740      	b.n	80092c4 <__ieee754_rem_pio2+0x24>
 8009442:	ee10 3a10 	vmov	r3, s0
 8009446:	1532      	asrs	r2, r6, #20
 8009448:	f2a2 4216 	subw	r2, r2, #1046	@ 0x416
 800944c:	4618      	mov	r0, r3
 800944e:	eba6 5102 	sub.w	r1, r6, r2, lsl #20
 8009452:	ec41 0b17 	vmov	d7, r0, r1
 8009456:	eebd 6bc7 	vcvt.s32.f64	s12, d7
 800945a:	ed9f 5b2b 	vldr	d5, [pc, #172]	@ 8009508 <__ieee754_rem_pio2+0x268>
 800945e:	eeb8 6bc6 	vcvt.f64.s32	d6, s12
 8009462:	ee37 7b46 	vsub.f64	d7, d7, d6
 8009466:	ed8d 6b02 	vstr	d6, [sp, #8]
 800946a:	ee27 7b05 	vmul.f64	d7, d7, d5
 800946e:	eebd 6bc7 	vcvt.s32.f64	s12, d7
 8009472:	a808      	add	r0, sp, #32
 8009474:	eeb8 6bc6 	vcvt.f64.s32	d6, s12
 8009478:	ee37 7b46 	vsub.f64	d7, d7, d6
 800947c:	ed8d 6b04 	vstr	d6, [sp, #16]
 8009480:	ee27 7b05 	vmul.f64	d7, d7, d5
 8009484:	ed8d 7b06 	vstr	d7, [sp, #24]
 8009488:	2103      	movs	r1, #3
 800948a:	ed30 7b02 	vldmdb	r0!, {d7}
 800948e:	eeb5 7b40 	vcmp.f64	d7, #0.0
 8009492:	eef1 fa10 	vmrs	APSR_nzcv, fpscr
 8009496:	460b      	mov	r3, r1
 8009498:	f101 31ff 	add.w	r1, r1, #4294967295	@ 0xffffffff
 800949c:	d0f5      	beq.n	800948a <__ieee754_rem_pio2+0x1ea>
 800949e:	4921      	ldr	r1, [pc, #132]	@ (8009524 <__ieee754_rem_pio2+0x284>)
 80094a0:	9101      	str	r1, [sp, #4]
 80094a2:	2102      	movs	r1, #2
 80094a4:	9100      	str	r1, [sp, #0]
 80094a6:	a802      	add	r0, sp, #8
 80094a8:	4621      	mov	r1, r4
 80094aa:	f000 f83d 	bl	8009528 <__kernel_rem_pio2>
 80094ae:	2d00      	cmp	r5, #0
 80094b0:	f6bf af26 	bge.w	8009300 <__ieee754_rem_pio2+0x60>
 80094b4:	ed94 7b00 	vldr	d7, [r4]
 80094b8:	eeb1 7b47 	vneg.f64	d7, d7
 80094bc:	ed84 7b00 	vstr	d7, [r4]
 80094c0:	ed94 7b02 	vldr	d7, [r4, #8]
 80094c4:	eeb1 7b47 	vneg.f64	d7, d7
 80094c8:	ed84 7b02 	vstr	d7, [r4, #8]
 80094cc:	e79a      	b.n	8009404 <__ieee754_rem_pio2+0x164>
 80094ce:	bf00      	nop
 80094d0:	54400000 	.word	0x54400000
 80094d4:	3ff921fb 	.word	0x3ff921fb
 80094d8:	1a626331 	.word	0x1a626331
 80094dc:	3dd0b461 	.word	0x3dd0b461
 80094e0:	1a600000 	.word	0x1a600000
 80094e4:	3dd0b461 	.word	0x3dd0b461
 80094e8:	2e037073 	.word	0x2e037073
 80094ec:	3ba3198a 	.word	0x3ba3198a
 80094f0:	6dc9c883 	.word	0x6dc9c883
 80094f4:	3fe45f30 	.word	0x3fe45f30
 80094f8:	2e000000 	.word	0x2e000000
 80094fc:	3ba3198a 	.word	0x3ba3198a
 8009500:	252049c1 	.word	0x252049c1
 8009504:	397b839a 	.word	0x397b839a
 8009508:	00000000 	.word	0x00000000
 800950c:	41700000 	.word	0x41700000
 8009510:	3fe921fb 	.word	0x3fe921fb
 8009514:	4002d97b 	.word	0x4002d97b
 8009518:	413921fb 	.word	0x413921fb
 800951c:	0800de00 	.word	0x0800de00
 8009520:	7fefffff 	.word	0x7fefffff
 8009524:	0800de80 	.word	0x0800de80

08009528 <__kernel_rem_pio2>:
 8009528:	e92d 4ff0 	stmdb	sp!, {r4, r5, r6, r7, r8, r9, sl, fp, lr}
 800952c:	ed2d 8b06 	vpush	{d8-d10}
 8009530:	f5ad 7d13 	sub.w	sp, sp, #588	@ 0x24c
 8009534:	469b      	mov	fp, r3
 8009536:	9001      	str	r0, [sp, #4]
 8009538:	4bbb      	ldr	r3, [pc, #748]	@ (8009828 <__kernel_rem_pio2+0x300>)
 800953a:	98a2      	ldr	r0, [sp, #648]	@ 0x288
 800953c:	f8dd 828c 	ldr.w	r8, [sp, #652]	@ 0x28c
 8009540:	f853 9020 	ldr.w	r9, [r3, r0, lsl #2]
 8009544:	f112 0f14 	cmn.w	r2, #20
 8009548:	bfa8      	it	ge
 800954a:	1ed3      	subge	r3, r2, #3
 800954c:	f10b 3aff 	add.w	sl, fp, #4294967295	@ 0xffffffff
 8009550:	bfb8      	it	lt
 8009552:	2300      	movlt	r3, #0
 8009554:	f06f 0517 	mvn.w	r5, #23
 8009558:	ed9f 6bad 	vldr	d6, [pc, #692]	@ 8009810 <__kernel_rem_pio2+0x2e8>
 800955c:	bfa4      	itt	ge
 800955e:	2018      	movge	r0, #24
 8009560:	fb93 f3f0 	sdivge	r3, r3, r0
 8009564:	fb03 5505 	mla	r5, r3, r5, r5
 8009568:	eba3 040a 	sub.w	r4, r3, sl
 800956c:	4415      	add	r5, r2
 800956e:	460f      	mov	r7, r1
 8009570:	eb09 060a 	add.w	r6, r9, sl
 8009574:	a81a      	add	r0, sp, #104	@ 0x68
 8009576:	eb08 0c84 	add.w	ip, r8, r4, lsl #2
 800957a:	2200      	movs	r2, #0
 800957c:	42b2      	cmp	r2, r6
 800957e:	dd0e      	ble.n	800959e <__kernel_rem_pio2+0x76>
 8009580:	aa1a      	add	r2, sp, #104	@ 0x68
 8009582:	eb02 02cb 	add.w	r2, r2, fp, lsl #3
 8009586:	f50d 7ed4 	add.w	lr, sp, #424	@ 0x1a8
 800958a:	2600      	movs	r6, #0
 800958c:	454e      	cmp	r6, r9
 800958e:	dc25      	bgt.n	80095dc <__kernel_rem_pio2+0xb4>
 8009590:	ed9f 7b9f 	vldr	d7, [pc, #636]	@ 8009810 <__kernel_rem_pio2+0x2e8>
 8009594:	f8dd c004 	ldr.w	ip, [sp, #4]
 8009598:	4614      	mov	r4, r2
 800959a:	2000      	movs	r0, #0
 800959c:	e015      	b.n	80095ca <__kernel_rem_pio2+0xa2>
 800959e:	42d4      	cmn	r4, r2
 80095a0:	d409      	bmi.n	80095b6 <__kernel_rem_pio2+0x8e>
 80095a2:	f85c 1022 	ldr.w	r1, [ip, r2, lsl #2]
 80095a6:	ee07 1a90 	vmov	s15, r1
 80095aa:	eeb8 7be7 	vcvt.f64.s32	d7, s15
 80095ae:	eca0 7b02 	vstmia	r0!, {d7}
 80095b2:	3201      	adds	r2, #1
 80095b4:	e7e2      	b.n	800957c <__kernel_rem_pio2+0x54>
 80095b6:	eeb0 7b46 	vmov.f64	d7, d6
 80095ba:	e7f8      	b.n	80095ae <__kernel_rem_pio2+0x86>
 80095bc:	ecbc 5b02 	vldmia	ip!, {d5}
 80095c0:	ed94 6b00 	vldr	d6, [r4]
 80095c4:	3001      	adds	r0, #1
 80095c6:	eea5 7b06 	vfma.f64	d7, d5, d6
 80095ca:	4550      	cmp	r0, sl
 80095cc:	f1a4 0408 	sub.w	r4, r4, #8
 80095d0:	ddf4      	ble.n	80095bc <__kernel_rem_pio2+0x94>
 80095d2:	ecae 7b02 	vstmia	lr!, {d7}
 80095d6:	3601      	adds	r6, #1
 80095d8:	3208      	adds	r2, #8
 80095da:	e7d7      	b.n	800958c <__kernel_rem_pio2+0x64>
 80095dc:	aa06      	add	r2, sp, #24
 80095de:	ed9f 9b8e 	vldr	d9, [pc, #568]	@ 8009818 <__kernel_rem_pio2+0x2f0>
 80095e2:	ed9f ab8f 	vldr	d10, [pc, #572]	@ 8009820 <__kernel_rem_pio2+0x2f8>
 80095e6:	eb02 0289 	add.w	r2, r2, r9, lsl #2
 80095ea:	eb08 0383 	add.w	r3, r8, r3, lsl #2
 80095ee:	9203      	str	r2, [sp, #12]
 80095f0:	9302      	str	r3, [sp, #8]
 80095f2:	464c      	mov	r4, r9
 80095f4:	00e3      	lsls	r3, r4, #3
 80095f6:	9304      	str	r3, [sp, #16]
 80095f8:	ab92      	add	r3, sp, #584	@ 0x248
 80095fa:	eb03 03c4 	add.w	r3, r3, r4, lsl #3
 80095fe:	ed13 0b28 	vldr	d0, [r3, #-160]	@ 0xffffff60
 8009602:	aa6a      	add	r2, sp, #424	@ 0x1a8
 8009604:	ab06      	add	r3, sp, #24
 8009606:	eb02 02c4 	add.w	r2, r2, r4, lsl #3
 800960a:	461e      	mov	r6, r3
 800960c:	4620      	mov	r0, r4
 800960e:	2800      	cmp	r0, #0
 8009610:	f1a2 0208 	sub.w	r2, r2, #8
 8009614:	dc4a      	bgt.n	80096ac <__kernel_rem_pio2+0x184>
 8009616:	4628      	mov	r0, r5
 8009618:	9305      	str	r3, [sp, #20]
 800961a:	f000 fac1 	bl	8009ba0 <scalbn>
 800961e:	eeb0 8b40 	vmov.f64	d8, d0
 8009622:	eeb4 0b00 	vmov.f64	d0, #64	@ 0x3e000000  0.125
 8009626:	ee28 0b00 	vmul.f64	d0, d8, d0
 800962a:	f000 fb39 	bl	8009ca0 <floor>
 800962e:	eeb2 7b00 	vmov.f64	d7, #32	@ 0x41000000  8.0
 8009632:	eea0 8b47 	vfms.f64	d8, d0, d7
 8009636:	eefd 7bc8 	vcvt.s32.f64	s15, d8
 800963a:	2d00      	cmp	r5, #0
 800963c:	ee17 8a90 	vmov	r8, s15
 8009640:	9b05      	ldr	r3, [sp, #20]
 8009642:	eeb8 7be7 	vcvt.f64.s32	d7, s15
 8009646:	ee38 8b47 	vsub.f64	d8, d8, d7
 800964a:	dd41      	ble.n	80096d0 <__kernel_rem_pio2+0x1a8>
 800964c:	1e60      	subs	r0, r4, #1
 800964e:	aa06      	add	r2, sp, #24
 8009650:	f1c5 0c18 	rsb	ip, r5, #24
 8009654:	f852 6020 	ldr.w	r6, [r2, r0, lsl #2]
 8009658:	fa46 f20c 	asr.w	r2, r6, ip
 800965c:	4490      	add	r8, r2
 800965e:	fa02 f20c 	lsl.w	r2, r2, ip
 8009662:	1ab6      	subs	r6, r6, r2
 8009664:	aa06      	add	r2, sp, #24
 8009666:	f842 6020 	str.w	r6, [r2, r0, lsl #2]
 800966a:	f1c5 0217 	rsb	r2, r5, #23
 800966e:	4116      	asrs	r6, r2
 8009670:	2e00      	cmp	r6, #0
 8009672:	dd3c      	ble.n	80096ee <__kernel_rem_pio2+0x1c6>
 8009674:	f04f 0c00 	mov.w	ip, #0
 8009678:	f108 0801 	add.w	r8, r8, #1
 800967c:	4660      	mov	r0, ip
 800967e:	f06f 4e7f 	mvn.w	lr, #4278190080	@ 0xff000000
 8009682:	4564      	cmp	r4, ip
 8009684:	dc66      	bgt.n	8009754 <__kernel_rem_pio2+0x22c>
 8009686:	2d00      	cmp	r5, #0
 8009688:	dd03      	ble.n	8009692 <__kernel_rem_pio2+0x16a>
 800968a:	2d01      	cmp	r5, #1
 800968c:	d072      	beq.n	8009774 <__kernel_rem_pio2+0x24c>
 800968e:	2d02      	cmp	r5, #2
 8009690:	d07a      	beq.n	8009788 <__kernel_rem_pio2+0x260>
 8009692:	2e02      	cmp	r6, #2
 8009694:	d12b      	bne.n	80096ee <__kernel_rem_pio2+0x1c6>
 8009696:	eeb7 0b00 	vmov.f64	d0, #112	@ 0x3f800000  1.0
 800969a:	ee30 8b48 	vsub.f64	d8, d0, d8
 800969e:	b330      	cbz	r0, 80096ee <__kernel_rem_pio2+0x1c6>
 80096a0:	4628      	mov	r0, r5
 80096a2:	f000 fa7d 	bl	8009ba0 <scalbn>
 80096a6:	ee38 8b40 	vsub.f64	d8, d8, d0
 80096aa:	e020      	b.n	80096ee <__kernel_rem_pio2+0x1c6>
 80096ac:	ee20 7b09 	vmul.f64	d7, d0, d9
 80096b0:	eebd 7bc7 	vcvt.s32.f64	s14, d7
 80096b4:	3801      	subs	r0, #1
 80096b6:	eeb8 7bc7 	vcvt.f64.s32	d7, s14
 80096ba:	eea7 0b4a 	vfms.f64	d0, d7, d10
 80096be:	eebd 0bc0 	vcvt.s32.f64	s0, d0
 80096c2:	eca6 0a01 	vstmia	r6!, {s0}
 80096c6:	ed92 0b00 	vldr	d0, [r2]
 80096ca:	ee37 0b00 	vadd.f64	d0, d7, d0
 80096ce:	e79e      	b.n	800960e <__kernel_rem_pio2+0xe6>
 80096d0:	d105      	bne.n	80096de <__kernel_rem_pio2+0x1b6>
 80096d2:	1e62      	subs	r2, r4, #1
 80096d4:	a906      	add	r1, sp, #24
 80096d6:	f851 6022 	ldr.w	r6, [r1, r2, lsl #2]
 80096da:	15f6      	asrs	r6, r6, #23
 80096dc:	e7c8      	b.n	8009670 <__kernel_rem_pio2+0x148>
 80096de:	eeb6 7b00 	vmov.f64	d7, #96	@ 0x3f000000  0.5
 80096e2:	eeb4 8bc7 	vcmpe.f64	d8, d7
 80096e6:	eef1 fa10 	vmrs	APSR_nzcv, fpscr
 80096ea:	da31      	bge.n	8009750 <__kernel_rem_pio2+0x228>
 80096ec:	2600      	movs	r6, #0
 80096ee:	eeb5 8b40 	vcmp.f64	d8, #0.0
 80096f2:	eef1 fa10 	vmrs	APSR_nzcv, fpscr
 80096f6:	f040 809b 	bne.w	8009830 <__kernel_rem_pio2+0x308>
 80096fa:	1e62      	subs	r2, r4, #1
 80096fc:	2000      	movs	r0, #0
 80096fe:	454a      	cmp	r2, r9
 8009700:	da49      	bge.n	8009796 <__kernel_rem_pio2+0x26e>
 8009702:	2800      	cmp	r0, #0
 8009704:	d062      	beq.n	80097cc <__kernel_rem_pio2+0x2a4>
 8009706:	3c01      	subs	r4, #1
 8009708:	ab06      	add	r3, sp, #24
 800970a:	3d18      	subs	r5, #24
 800970c:	f853 3024 	ldr.w	r3, [r3, r4, lsl #2]
 8009710:	2b00      	cmp	r3, #0
 8009712:	d0f8      	beq.n	8009706 <__kernel_rem_pio2+0x1de>
 8009714:	eeb7 0b00 	vmov.f64	d0, #112	@ 0x3f800000  1.0
 8009718:	4628      	mov	r0, r5
 800971a:	f000 fa41 	bl	8009ba0 <scalbn>
 800971e:	ed9f 6b3e 	vldr	d6, [pc, #248]	@ 8009818 <__kernel_rem_pio2+0x2f0>
 8009722:	1c62      	adds	r2, r4, #1
 8009724:	a96a      	add	r1, sp, #424	@ 0x1a8
 8009726:	00d3      	lsls	r3, r2, #3
 8009728:	eb01 01c2 	add.w	r1, r1, r2, lsl #3
 800972c:	4622      	mov	r2, r4
 800972e:	2a00      	cmp	r2, #0
 8009730:	f280 80a8 	bge.w	8009884 <__kernel_rem_pio2+0x35c>
 8009734:	4622      	mov	r2, r4
 8009736:	2a00      	cmp	r2, #0
 8009738:	f2c0 80c6 	blt.w	80098c8 <__kernel_rem_pio2+0x3a0>
 800973c:	a96a      	add	r1, sp, #424	@ 0x1a8
 800973e:	eb01 05c2 	add.w	r5, r1, r2, lsl #3
 8009742:	ed9f 7b33 	vldr	d7, [pc, #204]	@ 8009810 <__kernel_rem_pio2+0x2e8>
 8009746:	f8df c0e4 	ldr.w	ip, [pc, #228]	@ 800982c <__kernel_rem_pio2+0x304>
 800974a:	2000      	movs	r0, #0
 800974c:	1aa1      	subs	r1, r4, r2
 800974e:	e0b0      	b.n	80098b2 <__kernel_rem_pio2+0x38a>
 8009750:	2602      	movs	r6, #2
 8009752:	e78f      	b.n	8009674 <__kernel_rem_pio2+0x14c>
 8009754:	f853 2b04 	ldr.w	r2, [r3], #4
 8009758:	b948      	cbnz	r0, 800976e <__kernel_rem_pio2+0x246>
 800975a:	b122      	cbz	r2, 8009766 <__kernel_rem_pio2+0x23e>
 800975c:	f1c2 7280 	rsb	r2, r2, #16777216	@ 0x1000000
 8009760:	f843 2c04 	str.w	r2, [r3, #-4]
 8009764:	2201      	movs	r2, #1
 8009766:	f10c 0c01 	add.w	ip, ip, #1
 800976a:	4610      	mov	r0, r2
 800976c:	e789      	b.n	8009682 <__kernel_rem_pio2+0x15a>
 800976e:	ebae 0202 	sub.w	r2, lr, r2
 8009772:	e7f5      	b.n	8009760 <__kernel_rem_pio2+0x238>
 8009774:	1e62      	subs	r2, r4, #1
 8009776:	ab06      	add	r3, sp, #24
 8009778:	f853 3022 	ldr.w	r3, [r3, r2, lsl #2]
 800977c:	f3c3 0316 	ubfx	r3, r3, #0, #23
 8009780:	a906      	add	r1, sp, #24
 8009782:	f841 3022 	str.w	r3, [r1, r2, lsl #2]
 8009786:	e784      	b.n	8009692 <__kernel_rem_pio2+0x16a>
 8009788:	1e62      	subs	r2, r4, #1
 800978a:	ab06      	add	r3, sp, #24
 800978c:	f853 3022 	ldr.w	r3, [r3, r2, lsl #2]
 8009790:	f3c3 0315 	ubfx	r3, r3, #0, #22
 8009794:	e7f4      	b.n	8009780 <__kernel_rem_pio2+0x258>
 8009796:	ab06      	add	r3, sp, #24
 8009798:	f853 3022 	ldr.w	r3, [r3, r2, lsl #2]
 800979c:	3a01      	subs	r2, #1
 800979e:	4318      	orrs	r0, r3
 80097a0:	e7ad      	b.n	80096fe <__kernel_rem_pio2+0x1d6>
 80097a2:	3301      	adds	r3, #1
 80097a4:	f852 0d04 	ldr.w	r0, [r2, #-4]!
 80097a8:	2800      	cmp	r0, #0
 80097aa:	d0fa      	beq.n	80097a2 <__kernel_rem_pio2+0x27a>
 80097ac:	9a04      	ldr	r2, [sp, #16]
 80097ae:	f502 7212 	add.w	r2, r2, #584	@ 0x248
 80097b2:	446a      	add	r2, sp
 80097b4:	eb04 000b 	add.w	r0, r4, fp
 80097b8:	a91a      	add	r1, sp, #104	@ 0x68
 80097ba:	1c66      	adds	r6, r4, #1
 80097bc:	3a98      	subs	r2, #152	@ 0x98
 80097be:	eb01 00c0 	add.w	r0, r1, r0, lsl #3
 80097c2:	4423      	add	r3, r4
 80097c4:	42b3      	cmp	r3, r6
 80097c6:	da04      	bge.n	80097d2 <__kernel_rem_pio2+0x2aa>
 80097c8:	461c      	mov	r4, r3
 80097ca:	e713      	b.n	80095f4 <__kernel_rem_pio2+0xcc>
 80097cc:	9a03      	ldr	r2, [sp, #12]
 80097ce:	2301      	movs	r3, #1
 80097d0:	e7e8      	b.n	80097a4 <__kernel_rem_pio2+0x27c>
 80097d2:	9902      	ldr	r1, [sp, #8]
 80097d4:	f8dd c004 	ldr.w	ip, [sp, #4]
 80097d8:	f851 1026 	ldr.w	r1, [r1, r6, lsl #2]
 80097dc:	9104      	str	r1, [sp, #16]
 80097de:	ee07 1a90 	vmov	s15, r1
 80097e2:	eeb8 7be7 	vcvt.f64.s32	d7, s15
 80097e6:	2400      	movs	r4, #0
 80097e8:	eca0 7b02 	vstmia	r0!, {d7}
 80097ec:	ed9f 7b08 	vldr	d7, [pc, #32]	@ 8009810 <__kernel_rem_pio2+0x2e8>
 80097f0:	4686      	mov	lr, r0
 80097f2:	4554      	cmp	r4, sl
 80097f4:	dd03      	ble.n	80097fe <__kernel_rem_pio2+0x2d6>
 80097f6:	eca2 7b02 	vstmia	r2!, {d7}
 80097fa:	3601      	adds	r6, #1
 80097fc:	e7e2      	b.n	80097c4 <__kernel_rem_pio2+0x29c>
 80097fe:	ecbc 5b02 	vldmia	ip!, {d5}
 8009802:	ed3e 6b02 	vldmdb	lr!, {d6}
 8009806:	3401      	adds	r4, #1
 8009808:	eea5 7b06 	vfma.f64	d7, d5, d6
 800980c:	e7f1      	b.n	80097f2 <__kernel_rem_pio2+0x2ca>
 800980e:	bf00      	nop
	...
 800981c:	3e700000 	.word	0x3e700000
 8009820:	00000000 	.word	0x00000000
 8009824:	41700000 	.word	0x41700000
 8009828:	0800dfc8 	.word	0x0800dfc8
 800982c:	0800df88 	.word	0x0800df88
 8009830:	4268      	negs	r0, r5
 8009832:	eeb0 0b48 	vmov.f64	d0, d8
 8009836:	f000 f9b3 	bl	8009ba0 <scalbn>
 800983a:	ed9f 6b73 	vldr	d6, [pc, #460]	@ 8009a08 <__kernel_rem_pio2+0x4e0>
 800983e:	eeb4 0bc6 	vcmpe.f64	d0, d6
 8009842:	eef1 fa10 	vmrs	APSR_nzcv, fpscr
 8009846:	db17      	blt.n	8009878 <__kernel_rem_pio2+0x350>
 8009848:	ed9f 7b71 	vldr	d7, [pc, #452]	@ 8009a10 <__kernel_rem_pio2+0x4e8>
 800984c:	ee20 7b07 	vmul.f64	d7, d0, d7
 8009850:	eebd 7bc7 	vcvt.s32.f64	s14, d7
 8009854:	aa06      	add	r2, sp, #24
 8009856:	eeb8 5bc7 	vcvt.f64.s32	d5, s14
 800985a:	eea5 0b46 	vfms.f64	d0, d5, d6
 800985e:	eebd 0bc0 	vcvt.s32.f64	s0, d0
 8009862:	3518      	adds	r5, #24
 8009864:	ee10 3a10 	vmov	r3, s0
 8009868:	f842 3024 	str.w	r3, [r2, r4, lsl #2]
 800986c:	ee17 3a10 	vmov	r3, s14
 8009870:	3401      	adds	r4, #1
 8009872:	f842 3024 	str.w	r3, [r2, r4, lsl #2]
 8009876:	e74d      	b.n	8009714 <__kernel_rem_pio2+0x1ec>
 8009878:	eebd 0bc0 	vcvt.s32.f64	s0, d0
 800987c:	aa06      	add	r2, sp, #24
 800987e:	ee10 3a10 	vmov	r3, s0
 8009882:	e7f6      	b.n	8009872 <__kernel_rem_pio2+0x34a>
 8009884:	a806      	add	r0, sp, #24
 8009886:	f850 0022 	ldr.w	r0, [r0, r2, lsl #2]
 800988a:	9001      	str	r0, [sp, #4]
 800988c:	ee07 0a90 	vmov	s15, r0
 8009890:	3a01      	subs	r2, #1
 8009892:	eeb8 7be7 	vcvt.f64.s32	d7, s15
 8009896:	ee27 7b00 	vmul.f64	d7, d7, d0
 800989a:	ee20 0b06 	vmul.f64	d0, d0, d6
 800989e:	ed21 7b02 	vstmdb	r1!, {d7}
 80098a2:	e744      	b.n	800972e <__kernel_rem_pio2+0x206>
 80098a4:	ecbc 5b02 	vldmia	ip!, {d5}
 80098a8:	ecb5 6b02 	vldmia	r5!, {d6}
 80098ac:	3001      	adds	r0, #1
 80098ae:	eea5 7b06 	vfma.f64	d7, d5, d6
 80098b2:	4548      	cmp	r0, r9
 80098b4:	dc01      	bgt.n	80098ba <__kernel_rem_pio2+0x392>
 80098b6:	4281      	cmp	r1, r0
 80098b8:	daf4      	bge.n	80098a4 <__kernel_rem_pio2+0x37c>
 80098ba:	a842      	add	r0, sp, #264	@ 0x108
 80098bc:	eb00 01c1 	add.w	r1, r0, r1, lsl #3
 80098c0:	ed81 7b00 	vstr	d7, [r1]
 80098c4:	3a01      	subs	r2, #1
 80098c6:	e736      	b.n	8009736 <__kernel_rem_pio2+0x20e>
 80098c8:	9aa2      	ldr	r2, [sp, #648]	@ 0x288
 80098ca:	2a02      	cmp	r2, #2
 80098cc:	dc0a      	bgt.n	80098e4 <__kernel_rem_pio2+0x3bc>
 80098ce:	2a00      	cmp	r2, #0
 80098d0:	dc2d      	bgt.n	800992e <__kernel_rem_pio2+0x406>
 80098d2:	d046      	beq.n	8009962 <__kernel_rem_pio2+0x43a>
 80098d4:	f008 0007 	and.w	r0, r8, #7
 80098d8:	f50d 7d13 	add.w	sp, sp, #588	@ 0x24c
 80098dc:	ecbd 8b06 	vpop	{d8-d10}
 80098e0:	e8bd 8ff0 	ldmia.w	sp!, {r4, r5, r6, r7, r8, r9, sl, fp, pc}
 80098e4:	9aa2      	ldr	r2, [sp, #648]	@ 0x288
 80098e6:	2a03      	cmp	r2, #3
 80098e8:	d1f4      	bne.n	80098d4 <__kernel_rem_pio2+0x3ac>
 80098ea:	a942      	add	r1, sp, #264	@ 0x108
 80098ec:	f1a3 0208 	sub.w	r2, r3, #8
 80098f0:	440a      	add	r2, r1
 80098f2:	4611      	mov	r1, r2
 80098f4:	4620      	mov	r0, r4
 80098f6:	2800      	cmp	r0, #0
 80098f8:	f1a1 0108 	sub.w	r1, r1, #8
 80098fc:	dc52      	bgt.n	80099a4 <__kernel_rem_pio2+0x47c>
 80098fe:	4621      	mov	r1, r4
 8009900:	2901      	cmp	r1, #1
 8009902:	f1a2 0208 	sub.w	r2, r2, #8
 8009906:	dc5d      	bgt.n	80099c4 <__kernel_rem_pio2+0x49c>
 8009908:	ed9f 7b43 	vldr	d7, [pc, #268]	@ 8009a18 <__kernel_rem_pio2+0x4f0>
 800990c:	aa42      	add	r2, sp, #264	@ 0x108
 800990e:	4413      	add	r3, r2
 8009910:	2c01      	cmp	r4, #1
 8009912:	dc67      	bgt.n	80099e4 <__kernel_rem_pio2+0x4bc>
 8009914:	ed9d 5b42 	vldr	d5, [sp, #264]	@ 0x108
 8009918:	ed9d 6b44 	vldr	d6, [sp, #272]	@ 0x110
 800991c:	2e00      	cmp	r6, #0
 800991e:	d167      	bne.n	80099f0 <__kernel_rem_pio2+0x4c8>
 8009920:	ed87 5b00 	vstr	d5, [r7]
 8009924:	ed87 6b02 	vstr	d6, [r7, #8]
 8009928:	ed87 7b04 	vstr	d7, [r7, #16]
 800992c:	e7d2      	b.n	80098d4 <__kernel_rem_pio2+0x3ac>
 800992e:	ed9f 6b3a 	vldr	d6, [pc, #232]	@ 8009a18 <__kernel_rem_pio2+0x4f0>
 8009932:	aa42      	add	r2, sp, #264	@ 0x108
 8009934:	4413      	add	r3, r2
 8009936:	4622      	mov	r2, r4
 8009938:	2a00      	cmp	r2, #0
 800993a:	da24      	bge.n	8009986 <__kernel_rem_pio2+0x45e>
 800993c:	b34e      	cbz	r6, 8009992 <__kernel_rem_pio2+0x46a>
 800993e:	eeb1 7b46 	vneg.f64	d7, d6
 8009942:	ed87 7b00 	vstr	d7, [r7]
 8009946:	ed9d 7b42 	vldr	d7, [sp, #264]	@ 0x108
 800994a:	aa44      	add	r2, sp, #272	@ 0x110
 800994c:	2301      	movs	r3, #1
 800994e:	ee37 7b46 	vsub.f64	d7, d7, d6
 8009952:	429c      	cmp	r4, r3
 8009954:	da20      	bge.n	8009998 <__kernel_rem_pio2+0x470>
 8009956:	b10e      	cbz	r6, 800995c <__kernel_rem_pio2+0x434>
 8009958:	eeb1 7b47 	vneg.f64	d7, d7
 800995c:	ed87 7b02 	vstr	d7, [r7, #8]
 8009960:	e7b8      	b.n	80098d4 <__kernel_rem_pio2+0x3ac>
 8009962:	ed9f 7b2d 	vldr	d7, [pc, #180]	@ 8009a18 <__kernel_rem_pio2+0x4f0>
 8009966:	aa42      	add	r2, sp, #264	@ 0x108
 8009968:	4413      	add	r3, r2
 800996a:	2c00      	cmp	r4, #0
 800996c:	da05      	bge.n	800997a <__kernel_rem_pio2+0x452>
 800996e:	b10e      	cbz	r6, 8009974 <__kernel_rem_pio2+0x44c>
 8009970:	eeb1 7b47 	vneg.f64	d7, d7
 8009974:	ed87 7b00 	vstr	d7, [r7]
 8009978:	e7ac      	b.n	80098d4 <__kernel_rem_pio2+0x3ac>
 800997a:	ed33 6b02 	vldmdb	r3!, {d6}
 800997e:	3c01      	subs	r4, #1
 8009980:	ee37 7b06 	vadd.f64	d7, d7, d6
 8009984:	e7f1      	b.n	800996a <__kernel_rem_pio2+0x442>
 8009986:	ed33 7b02 	vldmdb	r3!, {d7}
 800998a:	3a01      	subs	r2, #1
 800998c:	ee36 6b07 	vadd.f64	d6, d6, d7
 8009990:	e7d2      	b.n	8009938 <__kernel_rem_pio2+0x410>
 8009992:	eeb0 7b46 	vmov.f64	d7, d6
 8009996:	e7d4      	b.n	8009942 <__kernel_rem_pio2+0x41a>
 8009998:	ecb2 6b02 	vldmia	r2!, {d6}
 800999c:	3301      	adds	r3, #1
 800999e:	ee37 7b06 	vadd.f64	d7, d7, d6
 80099a2:	e7d6      	b.n	8009952 <__kernel_rem_pio2+0x42a>
 80099a4:	ed91 7b00 	vldr	d7, [r1]
 80099a8:	ed91 5b02 	vldr	d5, [r1, #8]
 80099ac:	3801      	subs	r0, #1
 80099ae:	ee37 6b05 	vadd.f64	d6, d7, d5
 80099b2:	ee37 7b46 	vsub.f64	d7, d7, d6
 80099b6:	ed81 6b00 	vstr	d6, [r1]
 80099ba:	ee37 7b05 	vadd.f64	d7, d7, d5
 80099be:	ed81 7b02 	vstr	d7, [r1, #8]
 80099c2:	e798      	b.n	80098f6 <__kernel_rem_pio2+0x3ce>
 80099c4:	ed92 7b00 	vldr	d7, [r2]
 80099c8:	ed92 5b02 	vldr	d5, [r2, #8]
 80099cc:	3901      	subs	r1, #1
 80099ce:	ee37 6b05 	vadd.f64	d6, d7, d5
 80099d2:	ee37 7b46 	vsub.f64	d7, d7, d6
 80099d6:	ed82 6b00 	vstr	d6, [r2]
 80099da:	ee37 7b05 	vadd.f64	d7, d7, d5
 80099de:	ed82 7b02 	vstr	d7, [r2, #8]
 80099e2:	e78d      	b.n	8009900 <__kernel_rem_pio2+0x3d8>
 80099e4:	ed33 6b02 	vldmdb	r3!, {d6}
 80099e8:	3c01      	subs	r4, #1
 80099ea:	ee37 7b06 	vadd.f64	d7, d7, d6
 80099ee:	e78f      	b.n	8009910 <__kernel_rem_pio2+0x3e8>
 80099f0:	eeb1 5b45 	vneg.f64	d5, d5
 80099f4:	eeb1 6b46 	vneg.f64	d6, d6
 80099f8:	ed87 5b00 	vstr	d5, [r7]
 80099fc:	eeb1 7b47 	vneg.f64	d7, d7
 8009a00:	ed87 6b02 	vstr	d6, [r7, #8]
 8009a04:	e790      	b.n	8009928 <__kernel_rem_pio2+0x400>
 8009a06:	bf00      	nop
 8009a08:	00000000 	.word	0x00000000
 8009a0c:	41700000 	.word	0x41700000
 8009a10:	00000000 	.word	0x00000000
 8009a14:	3e700000 	.word	0x3e700000
	...

08009a20 <__kernel_cos>:
 8009a20:	eeb0 5b40 	vmov.f64	d5, d0
 8009a24:	ee15 1a90 	vmov	r1, s11
 8009a28:	eeb7 0b00 	vmov.f64	d0, #112	@ 0x3f800000  1.0
 8009a2c:	f021 4100 	bic.w	r1, r1, #2147483648	@ 0x80000000
 8009a30:	f1b1 5f79 	cmp.w	r1, #1044381696	@ 0x3e400000
 8009a34:	d204      	bcs.n	8009a40 <__kernel_cos+0x20>
 8009a36:	eefd 7bc5 	vcvt.s32.f64	s15, d5
 8009a3a:	ee17 3a90 	vmov	r3, s15
 8009a3e:	b343      	cbz	r3, 8009a92 <__kernel_cos+0x72>
 8009a40:	ee25 6b05 	vmul.f64	d6, d5, d5
 8009a44:	ee21 1b45 	vnmul.f64	d1, d1, d5
 8009a48:	ed9f 7b1b 	vldr	d7, [pc, #108]	@ 8009ab8 <__kernel_cos+0x98>
 8009a4c:	ed9f 4b1c 	vldr	d4, [pc, #112]	@ 8009ac0 <__kernel_cos+0xa0>
 8009a50:	eea6 4b07 	vfma.f64	d4, d6, d7
 8009a54:	ed9f 7b1c 	vldr	d7, [pc, #112]	@ 8009ac8 <__kernel_cos+0xa8>
 8009a58:	eea4 7b06 	vfma.f64	d7, d4, d6
 8009a5c:	ed9f 4b1c 	vldr	d4, [pc, #112]	@ 8009ad0 <__kernel_cos+0xb0>
 8009a60:	eea7 4b06 	vfma.f64	d4, d7, d6
 8009a64:	ed9f 7b1c 	vldr	d7, [pc, #112]	@ 8009ad8 <__kernel_cos+0xb8>
 8009a68:	4b1f      	ldr	r3, [pc, #124]	@ (8009ae8 <__kernel_cos+0xc8>)
 8009a6a:	eea4 7b06 	vfma.f64	d7, d4, d6
 8009a6e:	ed9f 4b1c 	vldr	d4, [pc, #112]	@ 8009ae0 <__kernel_cos+0xc0>
 8009a72:	4299      	cmp	r1, r3
 8009a74:	eea7 4b06 	vfma.f64	d4, d7, d6
 8009a78:	eeb6 7b00 	vmov.f64	d7, #96	@ 0x3f000000  0.5
 8009a7c:	ee24 4b06 	vmul.f64	d4, d4, d6
 8009a80:	ee26 7b07 	vmul.f64	d7, d6, d7
 8009a84:	eea6 1b04 	vfma.f64	d1, d6, d4
 8009a88:	d804      	bhi.n	8009a94 <__kernel_cos+0x74>
 8009a8a:	ee37 7b41 	vsub.f64	d7, d7, d1
 8009a8e:	ee30 0b47 	vsub.f64	d0, d0, d7
 8009a92:	4770      	bx	lr
 8009a94:	4b15      	ldr	r3, [pc, #84]	@ (8009aec <__kernel_cos+0xcc>)
 8009a96:	4299      	cmp	r1, r3
 8009a98:	d809      	bhi.n	8009aae <__kernel_cos+0x8e>
 8009a9a:	2200      	movs	r2, #0
 8009a9c:	f5a1 1300 	sub.w	r3, r1, #2097152	@ 0x200000
 8009aa0:	ec43 2b16 	vmov	d6, r2, r3
 8009aa4:	ee30 0b46 	vsub.f64	d0, d0, d6
 8009aa8:	ee37 7b46 	vsub.f64	d7, d7, d6
 8009aac:	e7ed      	b.n	8009a8a <__kernel_cos+0x6a>
 8009aae:	eeb5 6b02 	vmov.f64	d6, #82	@ 0x3e900000  0.2812500
 8009ab2:	e7f7      	b.n	8009aa4 <__kernel_cos+0x84>
 8009ab4:	f3af 8000 	nop.w
 8009ab8:	be8838d4 	.word	0xbe8838d4
 8009abc:	bda8fae9 	.word	0xbda8fae9
 8009ac0:	bdb4b1c4 	.word	0xbdb4b1c4
 8009ac4:	3e21ee9e 	.word	0x3e21ee9e
 8009ac8:	809c52ad 	.word	0x809c52ad
 8009acc:	be927e4f 	.word	0xbe927e4f
 8009ad0:	19cb1590 	.word	0x19cb1590
 8009ad4:	3efa01a0 	.word	0x3efa01a0
 8009ad8:	16c15177 	.word	0x16c15177
 8009adc:	bf56c16c 	.word	0xbf56c16c
 8009ae0:	5555554c 	.word	0x5555554c
 8009ae4:	3fa55555 	.word	0x3fa55555
 8009ae8:	3fd33332 	.word	0x3fd33332
 8009aec:	3fe90000 	.word	0x3fe90000

08009af0 <__kernel_sin>:
 8009af0:	ee10 3a90 	vmov	r3, s1
 8009af4:	f023 4300 	bic.w	r3, r3, #2147483648	@ 0x80000000
 8009af8:	f1b3 5f79 	cmp.w	r3, #1044381696	@ 0x3e400000
 8009afc:	d204      	bcs.n	8009b08 <__kernel_sin+0x18>
 8009afe:	eefd 7bc0 	vcvt.s32.f64	s15, d0
 8009b02:	ee17 3a90 	vmov	r3, s15
 8009b06:	b35b      	cbz	r3, 8009b60 <__kernel_sin+0x70>
 8009b08:	ee20 6b00 	vmul.f64	d6, d0, d0
 8009b0c:	ee20 5b06 	vmul.f64	d5, d0, d6
 8009b10:	ed9f 7b15 	vldr	d7, [pc, #84]	@ 8009b68 <__kernel_sin+0x78>
 8009b14:	ed9f 4b16 	vldr	d4, [pc, #88]	@ 8009b70 <__kernel_sin+0x80>
 8009b18:	eea6 4b07 	vfma.f64	d4, d6, d7
 8009b1c:	ed9f 7b16 	vldr	d7, [pc, #88]	@ 8009b78 <__kernel_sin+0x88>
 8009b20:	eea4 7b06 	vfma.f64	d7, d4, d6
 8009b24:	ed9f 4b16 	vldr	d4, [pc, #88]	@ 8009b80 <__kernel_sin+0x90>
 8009b28:	eea7 4b06 	vfma.f64	d4, d7, d6
 8009b2c:	ed9f 7b16 	vldr	d7, [pc, #88]	@ 8009b88 <__kernel_sin+0x98>
 8009b30:	eea4 7b06 	vfma.f64	d7, d4, d6
 8009b34:	b930      	cbnz	r0, 8009b44 <__kernel_sin+0x54>
 8009b36:	ed9f 4b16 	vldr	d4, [pc, #88]	@ 8009b90 <__kernel_sin+0xa0>
 8009b3a:	eea6 4b07 	vfma.f64	d4, d6, d7
 8009b3e:	eea4 0b05 	vfma.f64	d0, d4, d5
 8009b42:	4770      	bx	lr
 8009b44:	ee27 7b45 	vnmul.f64	d7, d7, d5
 8009b48:	eeb6 4b00 	vmov.f64	d4, #96	@ 0x3f000000  0.5
 8009b4c:	eea1 7b04 	vfma.f64	d7, d1, d4
 8009b50:	ee97 1b06 	vfnms.f64	d1, d7, d6
 8009b54:	ed9f 7b10 	vldr	d7, [pc, #64]	@ 8009b98 <__kernel_sin+0xa8>
 8009b58:	eea5 1b07 	vfma.f64	d1, d5, d7
 8009b5c:	ee30 0b41 	vsub.f64	d0, d0, d1
 8009b60:	4770      	bx	lr
 8009b62:	bf00      	nop
 8009b64:	f3af 8000 	nop.w
 8009b68:	5acfd57c 	.word	0x5acfd57c
 8009b6c:	3de5d93a 	.word	0x3de5d93a
 8009b70:	8a2b9ceb 	.word	0x8a2b9ceb
 8009b74:	be5ae5e6 	.word	0xbe5ae5e6
 8009b78:	57b1fe7d 	.word	0x57b1fe7d
 8009b7c:	3ec71de3 	.word	0x3ec71de3
 8009b80:	19c161d5 	.word	0x19c161d5
 8009b84:	bf2a01a0 	.word	0xbf2a01a0
 8009b88:	1110f8a6 	.word	0x1110f8a6
 8009b8c:	3f811111 	.word	0x3f811111
 8009b90:	55555549 	.word	0x55555549
 8009b94:	bfc55555 	.word	0xbfc55555
 8009b98:	55555549 	.word	0x55555549
 8009b9c:	3fc55555 	.word	0x3fc55555

08009ba0 <scalbn>:
 8009ba0:	ee10 1a90 	vmov	r1, s1
 8009ba4:	f3c1 530a 	ubfx	r3, r1, #20, #11
 8009ba8:	b98b      	cbnz	r3, 8009bce <scalbn+0x2e>
 8009baa:	ee10 3a10 	vmov	r3, s0
 8009bae:	f021 4100 	bic.w	r1, r1, #2147483648	@ 0x80000000
 8009bb2:	4319      	orrs	r1, r3
 8009bb4:	d00a      	beq.n	8009bcc <scalbn+0x2c>
 8009bb6:	ed9f 7b2c 	vldr	d7, [pc, #176]	@ 8009c68 <scalbn+0xc8>
 8009bba:	4b37      	ldr	r3, [pc, #220]	@ (8009c98 <scalbn+0xf8>)
 8009bbc:	ee20 0b07 	vmul.f64	d0, d0, d7
 8009bc0:	4298      	cmp	r0, r3
 8009bc2:	da0b      	bge.n	8009bdc <scalbn+0x3c>
 8009bc4:	ed9f 7b2a 	vldr	d7, [pc, #168]	@ 8009c70 <scalbn+0xd0>
 8009bc8:	ee20 0b07 	vmul.f64	d0, d0, d7
 8009bcc:	4770      	bx	lr
 8009bce:	f240 72ff 	movw	r2, #2047	@ 0x7ff
 8009bd2:	4293      	cmp	r3, r2
 8009bd4:	d107      	bne.n	8009be6 <scalbn+0x46>
 8009bd6:	ee30 0b00 	vadd.f64	d0, d0, d0
 8009bda:	4770      	bx	lr
 8009bdc:	ee10 1a90 	vmov	r1, s1
 8009be0:	f3c1 530a 	ubfx	r3, r1, #20, #11
 8009be4:	3b36      	subs	r3, #54	@ 0x36
 8009be6:	f24c 3250 	movw	r2, #50000	@ 0xc350
 8009bea:	4290      	cmp	r0, r2
 8009bec:	dd0d      	ble.n	8009c0a <scalbn+0x6a>
 8009bee:	ed9f 7b22 	vldr	d7, [pc, #136]	@ 8009c78 <scalbn+0xd8>
 8009bf2:	ee10 3a90 	vmov	r3, s1
 8009bf6:	eeb0 6b47 	vmov.f64	d6, d7
 8009bfa:	ed9f 5b21 	vldr	d5, [pc, #132]	@ 8009c80 <scalbn+0xe0>
 8009bfe:	2b00      	cmp	r3, #0
 8009c00:	fe27 7b05 	vselge.f64	d7, d7, d5
 8009c04:	ee27 0b06 	vmul.f64	d0, d7, d6
 8009c08:	4770      	bx	lr
 8009c0a:	4418      	add	r0, r3
 8009c0c:	f240 73fe 	movw	r3, #2046	@ 0x7fe
 8009c10:	4298      	cmp	r0, r3
 8009c12:	dcec      	bgt.n	8009bee <scalbn+0x4e>
 8009c14:	2800      	cmp	r0, #0
 8009c16:	dd0a      	ble.n	8009c2e <scalbn+0x8e>
 8009c18:	f021 41ff 	bic.w	r1, r1, #2139095040	@ 0x7f800000
 8009c1c:	ec53 2b10 	vmov	r2, r3, d0
 8009c20:	f421 01e0 	bic.w	r1, r1, #7340032	@ 0x700000
 8009c24:	ea41 5300 	orr.w	r3, r1, r0, lsl #20
 8009c28:	ec43 2b10 	vmov	d0, r2, r3
 8009c2c:	4770      	bx	lr
 8009c2e:	f110 0f35 	cmn.w	r0, #53	@ 0x35
 8009c32:	da09      	bge.n	8009c48 <scalbn+0xa8>
 8009c34:	ed9f 7b0e 	vldr	d7, [pc, #56]	@ 8009c70 <scalbn+0xd0>
 8009c38:	ee10 3a90 	vmov	r3, s1
 8009c3c:	eeb0 6b47 	vmov.f64	d6, d7
 8009c40:	ed9f 5b11 	vldr	d5, [pc, #68]	@ 8009c88 <scalbn+0xe8>
 8009c44:	2b00      	cmp	r3, #0
 8009c46:	e7db      	b.n	8009c00 <scalbn+0x60>
 8009c48:	f021 41ff 	bic.w	r1, r1, #2139095040	@ 0x7f800000
 8009c4c:	ec53 2b10 	vmov	r2, r3, d0
 8009c50:	3036      	adds	r0, #54	@ 0x36
 8009c52:	f421 01e0 	bic.w	r1, r1, #7340032	@ 0x700000
 8009c56:	ea41 5300 	orr.w	r3, r1, r0, lsl #20
 8009c5a:	ed9f 7b0d 	vldr	d7, [pc, #52]	@ 8009c90 <scalbn+0xf0>
 8009c5e:	ec43 2b10 	vmov	d0, r2, r3
 8009c62:	e7b1      	b.n	8009bc8 <scalbn+0x28>
 8009c64:	f3af 8000 	nop.w
 8009c68:	00000000 	.word	0x00000000
 8009c6c:	43500000 	.word	0x43500000
 8009c70:	c2f8f359 	.word	0xc2f8f359
 8009c74:	01a56e1f 	.word	0x01a56e1f
 8009c78:	8800759c 	.word	0x8800759c
 8009c7c:	7e37e43c 	.word	0x7e37e43c
 8009c80:	8800759c 	.word	0x8800759c
 8009c84:	fe37e43c 	.word	0xfe37e43c
 8009c88:	c2f8f359 	.word	0xc2f8f359
 8009c8c:	81a56e1f 	.word	0x81a56e1f
 8009c90:	00000000 	.word	0x00000000
 8009c94:	3c900000 	.word	0x3c900000
 8009c98:	ffff3cb0 	.word	0xffff3cb0
 8009c9c:	00000000 	.word	0x00000000

08009ca0 <floor>:
 8009ca0:	ee10 3a90 	vmov	r3, s1
 8009ca4:	f3c3 500a 	ubfx	r0, r3, #20, #11
 8009ca8:	ee10 2a10 	vmov	r2, s0
 8009cac:	f2a0 31ff 	subw	r1, r0, #1023	@ 0x3ff
 8009cb0:	2913      	cmp	r1, #19
 8009cb2:	b530      	push	{r4, r5, lr}
 8009cb4:	4615      	mov	r5, r2
 8009cb6:	dc33      	bgt.n	8009d20 <floor+0x80>
 8009cb8:	2900      	cmp	r1, #0
 8009cba:	da18      	bge.n	8009cee <floor+0x4e>
 8009cbc:	ed9f 7b30 	vldr	d7, [pc, #192]	@ 8009d80 <floor+0xe0>
 8009cc0:	ee30 0b07 	vadd.f64	d0, d0, d7
 8009cc4:	eeb5 0bc0 	vcmpe.f64	d0, #0.0
 8009cc8:	eef1 fa10 	vmrs	APSR_nzcv, fpscr
 8009ccc:	dd0a      	ble.n	8009ce4 <floor+0x44>
 8009cce:	2b00      	cmp	r3, #0
 8009cd0:	da50      	bge.n	8009d74 <floor+0xd4>
 8009cd2:	f023 4300 	bic.w	r3, r3, #2147483648	@ 0x80000000
 8009cd6:	4313      	orrs	r3, r2
 8009cd8:	2200      	movs	r2, #0
 8009cda:	4293      	cmp	r3, r2
 8009cdc:	4b2a      	ldr	r3, [pc, #168]	@ (8009d88 <floor+0xe8>)
 8009cde:	bf08      	it	eq
 8009ce0:	f04f 4300 	moveq.w	r3, #2147483648	@ 0x80000000
 8009ce4:	4619      	mov	r1, r3
 8009ce6:	4610      	mov	r0, r2
 8009ce8:	ec41 0b10 	vmov	d0, r0, r1
 8009cec:	e01f      	b.n	8009d2e <floor+0x8e>
 8009cee:	4827      	ldr	r0, [pc, #156]	@ (8009d8c <floor+0xec>)
 8009cf0:	4108      	asrs	r0, r1
 8009cf2:	ea03 0400 	and.w	r4, r3, r0
 8009cf6:	4314      	orrs	r4, r2
 8009cf8:	d019      	beq.n	8009d2e <floor+0x8e>
 8009cfa:	ed9f 7b21 	vldr	d7, [pc, #132]	@ 8009d80 <floor+0xe0>
 8009cfe:	ee30 0b07 	vadd.f64	d0, d0, d7
 8009d02:	eeb5 0bc0 	vcmpe.f64	d0, #0.0
 8009d06:	eef1 fa10 	vmrs	APSR_nzcv, fpscr
 8009d0a:	ddeb      	ble.n	8009ce4 <floor+0x44>
 8009d0c:	2b00      	cmp	r3, #0
 8009d0e:	bfbe      	ittt	lt
 8009d10:	f44f 1280 	movlt.w	r2, #1048576	@ 0x100000
 8009d14:	410a      	asrlt	r2, r1
 8009d16:	189b      	addlt	r3, r3, r2
 8009d18:	ea23 0300 	bic.w	r3, r3, r0
 8009d1c:	2200      	movs	r2, #0
 8009d1e:	e7e1      	b.n	8009ce4 <floor+0x44>
 8009d20:	2933      	cmp	r1, #51	@ 0x33
 8009d22:	dd05      	ble.n	8009d30 <floor+0x90>
 8009d24:	f5b1 6f80 	cmp.w	r1, #1024	@ 0x400
 8009d28:	d101      	bne.n	8009d2e <floor+0x8e>
 8009d2a:	ee30 0b00 	vadd.f64	d0, d0, d0
 8009d2e:	bd30      	pop	{r4, r5, pc}
 8009d30:	f2a0 4413 	subw	r4, r0, #1043	@ 0x413
 8009d34:	f04f 30ff 	mov.w	r0, #4294967295	@ 0xffffffff
 8009d38:	40e0      	lsrs	r0, r4
 8009d3a:	4210      	tst	r0, r2
 8009d3c:	d0f7      	beq.n	8009d2e <floor+0x8e>
 8009d3e:	ed9f 7b10 	vldr	d7, [pc, #64]	@ 8009d80 <floor+0xe0>
 8009d42:	ee30 0b07 	vadd.f64	d0, d0, d7
 8009d46:	eeb5 0bc0 	vcmpe.f64	d0, #0.0
 8009d4a:	eef1 fa10 	vmrs	APSR_nzcv, fpscr
 8009d4e:	ddc9      	ble.n	8009ce4 <floor+0x44>
 8009d50:	2b00      	cmp	r3, #0
 8009d52:	da02      	bge.n	8009d5a <floor+0xba>
 8009d54:	2914      	cmp	r1, #20
 8009d56:	d103      	bne.n	8009d60 <floor+0xc0>
 8009d58:	3301      	adds	r3, #1
 8009d5a:	ea22 0200 	bic.w	r2, r2, r0
 8009d5e:	e7c1      	b.n	8009ce4 <floor+0x44>
 8009d60:	2401      	movs	r4, #1
 8009d62:	f1c1 0134 	rsb	r1, r1, #52	@ 0x34
 8009d66:	fa04 f101 	lsl.w	r1, r4, r1
 8009d6a:	440a      	add	r2, r1
 8009d6c:	42aa      	cmp	r2, r5
 8009d6e:	bf38      	it	cc
 8009d70:	191b      	addcc	r3, r3, r4
 8009d72:	e7f2      	b.n	8009d5a <floor+0xba>
 8009d74:	2200      	movs	r2, #0
 8009d76:	4613      	mov	r3, r2
 8009d78:	e7b4      	b.n	8009ce4 <floor+0x44>
 8009d7a:	bf00      	nop
 8009d7c:	f3af 8000 	nop.w
 8009d80:	8800759c 	.word	0x8800759c
 8009d84:	7e37e43c 	.word	0x7e37e43c
 8009d88:	bff00000 	.word	0xbff00000
 8009d8c:	000fffff 	.word	0x000fffff

08009d90 <__assert_func>:
 8009d90:	b51f      	push	{r0, r1, r2, r3, r4, lr}
 8009d92:	4614      	mov	r4, r2
 8009d94:	461a      	mov	r2, r3
 8009d96:	4b09      	ldr	r3, [pc, #36]	@ (8009dbc <__assert_func+0x2c>)
 8009d98:	681b      	ldr	r3, [r3, #0]
 8009d9a:	4605      	mov	r5, r0
 8009d9c:	68d8      	ldr	r0, [r3, #12]
 8009d9e:	b954      	cbnz	r4, 8009db6 <__assert_func+0x26>
 8009da0:	4b07      	ldr	r3, [pc, #28]	@ (8009dc0 <__assert_func+0x30>)
 8009da2:	461c      	mov	r4, r3
 8009da4:	e9cd 3401 	strd	r3, r4, [sp, #4]
 8009da8:	9100      	str	r1, [sp, #0]
 8009daa:	462b      	mov	r3, r5
 8009dac:	4905      	ldr	r1, [pc, #20]	@ (8009dc4 <__assert_func+0x34>)
 8009dae:	f000 f98f 	bl	800a0d0 <fiprintf>
 8009db2:	f000 fa10 	bl	800a1d6 <abort>
 8009db6:	4b04      	ldr	r3, [pc, #16]	@ (8009dc8 <__assert_func+0x38>)
 8009db8:	e7f4      	b.n	8009da4 <__assert_func+0x14>
 8009dba:	bf00      	nop
 8009dbc:	2400001c 	.word	0x2400001c
 8009dc0:	0800b278 	.word	0x0800b278
 8009dc4:	0800dfe5 	.word	0x0800dfe5
 8009dc8:	0800dfd8 	.word	0x0800dfd8

08009dcc <malloc>:
 8009dcc:	4b02      	ldr	r3, [pc, #8]	@ (8009dd8 <malloc+0xc>)
 8009dce:	4601      	mov	r1, r0
 8009dd0:	6818      	ldr	r0, [r3, #0]
 8009dd2:	f000 b82d 	b.w	8009e30 <_malloc_r>
 8009dd6:	bf00      	nop
 8009dd8:	2400001c 	.word	0x2400001c

08009ddc <free>:
 8009ddc:	4b02      	ldr	r3, [pc, #8]	@ (8009de8 <free+0xc>)
 8009dde:	4601      	mov	r1, r0
 8009de0:	6818      	ldr	r0, [r3, #0]
 8009de2:	f000 b9ff 	b.w	800a1e4 <_free_r>
 8009de6:	bf00      	nop
 8009de8:	2400001c 	.word	0x2400001c

08009dec <sbrk_aligned>:
 8009dec:	b570      	push	{r4, r5, r6, lr}
 8009dee:	4e0f      	ldr	r6, [pc, #60]	@ (8009e2c <sbrk_aligned+0x40>)
 8009df0:	460c      	mov	r4, r1
 8009df2:	6831      	ldr	r1, [r6, #0]
 8009df4:	4605      	mov	r5, r0
 8009df6:	b911      	cbnz	r1, 8009dfe <sbrk_aligned+0x12>
 8009df8:	f000 f9a2 	bl	800a140 <_sbrk_r>
 8009dfc:	6030      	str	r0, [r6, #0]
 8009dfe:	4621      	mov	r1, r4
 8009e00:	4628      	mov	r0, r5
 8009e02:	f000 f99d 	bl	800a140 <_sbrk_r>
 8009e06:	1c43      	adds	r3, r0, #1
 8009e08:	d103      	bne.n	8009e12 <sbrk_aligned+0x26>
 8009e0a:	f04f 34ff 	mov.w	r4, #4294967295	@ 0xffffffff
 8009e0e:	4620      	mov	r0, r4
 8009e10:	bd70      	pop	{r4, r5, r6, pc}
 8009e12:	1cc4      	adds	r4, r0, #3
 8009e14:	f024 0403 	bic.w	r4, r4, #3
 8009e18:	42a0      	cmp	r0, r4
 8009e1a:	d0f8      	beq.n	8009e0e <sbrk_aligned+0x22>
 8009e1c:	1a21      	subs	r1, r4, r0
 8009e1e:	4628      	mov	r0, r5
 8009e20:	f000 f98e 	bl	800a140 <_sbrk_r>
 8009e24:	3001      	adds	r0, #1
 8009e26:	d1f2      	bne.n	8009e0e <sbrk_aligned+0x22>
 8009e28:	e7ef      	b.n	8009e0a <sbrk_aligned+0x1e>
 8009e2a:	bf00      	nop
 8009e2c:	24000254 	.word	0x24000254

08009e30 <_malloc_r>:
 8009e30:	e92d 43f8 	stmdb	sp!, {r3, r4, r5, r6, r7, r8, r9, lr}
 8009e34:	1ccd      	adds	r5, r1, #3
 8009e36:	f025 0503 	bic.w	r5, r5, #3
 8009e3a:	3508      	adds	r5, #8
 8009e3c:	2d0c      	cmp	r5, #12
 8009e3e:	bf38      	it	cc
 8009e40:	250c      	movcc	r5, #12
 8009e42:	2d00      	cmp	r5, #0
 8009e44:	4606      	mov	r6, r0
 8009e46:	db01      	blt.n	8009e4c <_malloc_r+0x1c>
 8009e48:	42a9      	cmp	r1, r5
 8009e4a:	d904      	bls.n	8009e56 <_malloc_r+0x26>
 8009e4c:	230c      	movs	r3, #12
 8009e4e:	6033      	str	r3, [r6, #0]
 8009e50:	2000      	movs	r0, #0
 8009e52:	e8bd 83f8 	ldmia.w	sp!, {r3, r4, r5, r6, r7, r8, r9, pc}
 8009e56:	f8df 80d4 	ldr.w	r8, [pc, #212]	@ 8009f2c <_malloc_r+0xfc>
 8009e5a:	f000 f869 	bl	8009f30 <__malloc_lock>
 8009e5e:	f8d8 3000 	ldr.w	r3, [r8]
 8009e62:	461c      	mov	r4, r3
 8009e64:	bb44      	cbnz	r4, 8009eb8 <_malloc_r+0x88>
 8009e66:	4629      	mov	r1, r5
 8009e68:	4630      	mov	r0, r6
 8009e6a:	f7ff ffbf 	bl	8009dec <sbrk_aligned>
 8009e6e:	1c43      	adds	r3, r0, #1
 8009e70:	4604      	mov	r4, r0
 8009e72:	d158      	bne.n	8009f26 <_malloc_r+0xf6>
 8009e74:	f8d8 4000 	ldr.w	r4, [r8]
 8009e78:	4627      	mov	r7, r4
 8009e7a:	2f00      	cmp	r7, #0
 8009e7c:	d143      	bne.n	8009f06 <_malloc_r+0xd6>
 8009e7e:	2c00      	cmp	r4, #0
 8009e80:	d04b      	beq.n	8009f1a <_malloc_r+0xea>
 8009e82:	6823      	ldr	r3, [r4, #0]
 8009e84:	4639      	mov	r1, r7
 8009e86:	4630      	mov	r0, r6
 8009e88:	eb04 0903 	add.w	r9, r4, r3
 8009e8c:	f000 f958 	bl	800a140 <_sbrk_r>
 8009e90:	4581      	cmp	r9, r0
 8009e92:	d142      	bne.n	8009f1a <_malloc_r+0xea>
 8009e94:	6821      	ldr	r1, [r4, #0]
 8009e96:	1a6d      	subs	r5, r5, r1
 8009e98:	4629      	mov	r1, r5
 8009e9a:	4630      	mov	r0, r6
 8009e9c:	f7ff ffa6 	bl	8009dec <sbrk_aligned>
 8009ea0:	3001      	adds	r0, #1
 8009ea2:	d03a      	beq.n	8009f1a <_malloc_r+0xea>
 8009ea4:	6823      	ldr	r3, [r4, #0]
 8009ea6:	442b      	add	r3, r5
 8009ea8:	6023      	str	r3, [r4, #0]
 8009eaa:	f8d8 3000 	ldr.w	r3, [r8]
 8009eae:	685a      	ldr	r2, [r3, #4]
 8009eb0:	bb62      	cbnz	r2, 8009f0c <_malloc_r+0xdc>
 8009eb2:	f8c8 7000 	str.w	r7, [r8]
 8009eb6:	e00f      	b.n	8009ed8 <_malloc_r+0xa8>
 8009eb8:	6822      	ldr	r2, [r4, #0]
 8009eba:	1b52      	subs	r2, r2, r5
 8009ebc:	d420      	bmi.n	8009f00 <_malloc_r+0xd0>
 8009ebe:	2a0b      	cmp	r2, #11
 8009ec0:	d917      	bls.n	8009ef2 <_malloc_r+0xc2>
 8009ec2:	1961      	adds	r1, r4, r5
 8009ec4:	42a3      	cmp	r3, r4
 8009ec6:	6025      	str	r5, [r4, #0]
 8009ec8:	bf18      	it	ne
 8009eca:	6059      	strne	r1, [r3, #4]
 8009ecc:	6863      	ldr	r3, [r4, #4]
 8009ece:	bf08      	it	eq
 8009ed0:	f8c8 1000 	streq.w	r1, [r8]
 8009ed4:	5162      	str	r2, [r4, r5]
 8009ed6:	604b      	str	r3, [r1, #4]
 8009ed8:	4630      	mov	r0, r6
 8009eda:	f000 f82f 	bl	8009f3c <__malloc_unlock>
 8009ede:	f104 000b 	add.w	r0, r4, #11
 8009ee2:	1d23      	adds	r3, r4, #4
 8009ee4:	f020 0007 	bic.w	r0, r0, #7
 8009ee8:	1ac2      	subs	r2, r0, r3
 8009eea:	bf1c      	itt	ne
 8009eec:	1a1b      	subne	r3, r3, r0
 8009eee:	50a3      	strne	r3, [r4, r2]
 8009ef0:	e7af      	b.n	8009e52 <_malloc_r+0x22>
 8009ef2:	6862      	ldr	r2, [r4, #4]
 8009ef4:	42a3      	cmp	r3, r4
 8009ef6:	bf0c      	ite	eq
 8009ef8:	f8c8 2000 	streq.w	r2, [r8]
 8009efc:	605a      	strne	r2, [r3, #4]
 8009efe:	e7eb      	b.n	8009ed8 <_malloc_r+0xa8>
 8009f00:	4623      	mov	r3, r4
 8009f02:	6864      	ldr	r4, [r4, #4]
 8009f04:	e7ae      	b.n	8009e64 <_malloc_r+0x34>
 8009f06:	463c      	mov	r4, r7
 8009f08:	687f      	ldr	r7, [r7, #4]
 8009f0a:	e7b6      	b.n	8009e7a <_malloc_r+0x4a>
 8009f0c:	461a      	mov	r2, r3
 8009f0e:	685b      	ldr	r3, [r3, #4]
 8009f10:	42a3      	cmp	r3, r4
 8009f12:	d1fb      	bne.n	8009f0c <_malloc_r+0xdc>
 8009f14:	2300      	movs	r3, #0
 8009f16:	6053      	str	r3, [r2, #4]
 8009f18:	e7de      	b.n	8009ed8 <_malloc_r+0xa8>
 8009f1a:	230c      	movs	r3, #12
 8009f1c:	6033      	str	r3, [r6, #0]
 8009f1e:	4630      	mov	r0, r6
 8009f20:	f000 f80c 	bl	8009f3c <__malloc_unlock>
 8009f24:	e794      	b.n	8009e50 <_malloc_r+0x20>
 8009f26:	6005      	str	r5, [r0, #0]
 8009f28:	e7d6      	b.n	8009ed8 <_malloc_r+0xa8>
 8009f2a:	bf00      	nop
 8009f2c:	24000258 	.word	0x24000258

08009f30 <__malloc_lock>:
 8009f30:	4801      	ldr	r0, [pc, #4]	@ (8009f38 <__malloc_lock+0x8>)
 8009f32:	f000 b940 	b.w	800a1b6 <__retarget_lock_acquire_recursive>
 8009f36:	bf00      	nop
 8009f38:	24000398 	.word	0x24000398

08009f3c <__malloc_unlock>:
 8009f3c:	4801      	ldr	r0, [pc, #4]	@ (8009f44 <__malloc_unlock+0x8>)
 8009f3e:	f000 b93b 	b.w	800a1b8 <__retarget_lock_release_recursive>
 8009f42:	bf00      	nop
 8009f44:	24000398 	.word	0x24000398

08009f48 <siprintf>:
 8009f48:	b40e      	push	{r1, r2, r3}
 8009f4a:	b500      	push	{lr}
 8009f4c:	b09c      	sub	sp, #112	@ 0x70
 8009f4e:	ab1d      	add	r3, sp, #116	@ 0x74
 8009f50:	9002      	str	r0, [sp, #8]
 8009f52:	9006      	str	r0, [sp, #24]
 8009f54:	f06f 4100 	mvn.w	r1, #2147483648	@ 0x80000000
 8009f58:	4809      	ldr	r0, [pc, #36]	@ (8009f80 <siprintf+0x38>)
 8009f5a:	9107      	str	r1, [sp, #28]
 8009f5c:	9104      	str	r1, [sp, #16]
 8009f5e:	4909      	ldr	r1, [pc, #36]	@ (8009f84 <siprintf+0x3c>)
 8009f60:	f853 2b04 	ldr.w	r2, [r3], #4
 8009f64:	9105      	str	r1, [sp, #20]
 8009f66:	6800      	ldr	r0, [r0, #0]
 8009f68:	9301      	str	r3, [sp, #4]
 8009f6a:	a902      	add	r1, sp, #8
 8009f6c:	f000 f9e0 	bl	800a330 <_svfiprintf_r>
 8009f70:	9b02      	ldr	r3, [sp, #8]
 8009f72:	2200      	movs	r2, #0
 8009f74:	701a      	strb	r2, [r3, #0]
 8009f76:	b01c      	add	sp, #112	@ 0x70
 8009f78:	f85d eb04 	ldr.w	lr, [sp], #4
 8009f7c:	b003      	add	sp, #12
 8009f7e:	4770      	bx	lr
 8009f80:	2400001c 	.word	0x2400001c
 8009f84:	ffff0208 	.word	0xffff0208

08009f88 <std>:
 8009f88:	2300      	movs	r3, #0
 8009f8a:	b510      	push	{r4, lr}
 8009f8c:	4604      	mov	r4, r0
 8009f8e:	e9c0 3300 	strd	r3, r3, [r0]
 8009f92:	e9c0 3304 	strd	r3, r3, [r0, #16]
 8009f96:	6083      	str	r3, [r0, #8]
 8009f98:	8181      	strh	r1, [r0, #12]
 8009f9a:	6643      	str	r3, [r0, #100]	@ 0x64
 8009f9c:	81c2      	strh	r2, [r0, #14]
 8009f9e:	6183      	str	r3, [r0, #24]
 8009fa0:	4619      	mov	r1, r3
 8009fa2:	2208      	movs	r2, #8
 8009fa4:	305c      	adds	r0, #92	@ 0x5c
 8009fa6:	f000 f8c3 	bl	800a130 <memset>
 8009faa:	4b0d      	ldr	r3, [pc, #52]	@ (8009fe0 <std+0x58>)
 8009fac:	6263      	str	r3, [r4, #36]	@ 0x24
 8009fae:	4b0d      	ldr	r3, [pc, #52]	@ (8009fe4 <std+0x5c>)
 8009fb0:	62a3      	str	r3, [r4, #40]	@ 0x28
 8009fb2:	4b0d      	ldr	r3, [pc, #52]	@ (8009fe8 <std+0x60>)
 8009fb4:	62e3      	str	r3, [r4, #44]	@ 0x2c
 8009fb6:	4b0d      	ldr	r3, [pc, #52]	@ (8009fec <std+0x64>)
 8009fb8:	6323      	str	r3, [r4, #48]	@ 0x30
 8009fba:	4b0d      	ldr	r3, [pc, #52]	@ (8009ff0 <std+0x68>)
 8009fbc:	6224      	str	r4, [r4, #32]
 8009fbe:	429c      	cmp	r4, r3
 8009fc0:	d006      	beq.n	8009fd0 <std+0x48>
 8009fc2:	f103 0268 	add.w	r2, r3, #104	@ 0x68
 8009fc6:	4294      	cmp	r4, r2
 8009fc8:	d002      	beq.n	8009fd0 <std+0x48>
 8009fca:	33d0      	adds	r3, #208	@ 0xd0
 8009fcc:	429c      	cmp	r4, r3
 8009fce:	d105      	bne.n	8009fdc <std+0x54>
 8009fd0:	f104 0058 	add.w	r0, r4, #88	@ 0x58
 8009fd4:	e8bd 4010 	ldmia.w	sp!, {r4, lr}
 8009fd8:	f000 b8ec 	b.w	800a1b4 <__retarget_lock_init_recursive>
 8009fdc:	bd10      	pop	{r4, pc}
 8009fde:	bf00      	nop
 8009fe0:	0800ac21 	.word	0x0800ac21
 8009fe4:	0800ac43 	.word	0x0800ac43
 8009fe8:	0800ac7b 	.word	0x0800ac7b
 8009fec:	0800ac9f 	.word	0x0800ac9f
 8009ff0:	2400025c 	.word	0x2400025c

08009ff4 <stdio_exit_handler>:
 8009ff4:	4a02      	ldr	r2, [pc, #8]	@ (800a000 <stdio_exit_handler+0xc>)
 8009ff6:	4903      	ldr	r1, [pc, #12]	@ (800a004 <stdio_exit_handler+0x10>)
 8009ff8:	4803      	ldr	r0, [pc, #12]	@ (800a008 <stdio_exit_handler+0x14>)
 8009ffa:	f000 b87b 	b.w	800a0f4 <_fwalk_sglue>
 8009ffe:	bf00      	nop
 800a000:	24000010 	.word	0x24000010
 800a004:	0800abd1 	.word	0x0800abd1
 800a008:	24000020 	.word	0x24000020

0800a00c <cleanup_stdio>:
 800a00c:	6841      	ldr	r1, [r0, #4]
 800a00e:	4b0c      	ldr	r3, [pc, #48]	@ (800a040 <cleanup_stdio+0x34>)
 800a010:	4299      	cmp	r1, r3
 800a012:	b510      	push	{r4, lr}
 800a014:	4604      	mov	r4, r0
 800a016:	d001      	beq.n	800a01c <cleanup_stdio+0x10>
 800a018:	f000 fdda 	bl	800abd0 <_fflush_r>
 800a01c:	68a1      	ldr	r1, [r4, #8]
 800a01e:	4b09      	ldr	r3, [pc, #36]	@ (800a044 <cleanup_stdio+0x38>)
 800a020:	4299      	cmp	r1, r3
 800a022:	d002      	beq.n	800a02a <cleanup_stdio+0x1e>
 800a024:	4620      	mov	r0, r4
 800a026:	f000 fdd3 	bl	800abd0 <_fflush_r>
 800a02a:	68e1      	ldr	r1, [r4, #12]
 800a02c:	4b06      	ldr	r3, [pc, #24]	@ (800a048 <cleanup_stdio+0x3c>)
 800a02e:	4299      	cmp	r1, r3
 800a030:	d004      	beq.n	800a03c <cleanup_stdio+0x30>
 800a032:	4620      	mov	r0, r4
 800a034:	e8bd 4010 	ldmia.w	sp!, {r4, lr}
 800a038:	f000 bdca 	b.w	800abd0 <_fflush_r>
 800a03c:	bd10      	pop	{r4, pc}
 800a03e:	bf00      	nop
 800a040:	2400025c 	.word	0x2400025c
 800a044:	240002c4 	.word	0x240002c4
 800a048:	2400032c 	.word	0x2400032c

0800a04c <global_stdio_init.part.0>:
 800a04c:	b510      	push	{r4, lr}
 800a04e:	4b0b      	ldr	r3, [pc, #44]	@ (800a07c <global_stdio_init.part.0+0x30>)
 800a050:	4c0b      	ldr	r4, [pc, #44]	@ (800a080 <global_stdio_init.part.0+0x34>)
 800a052:	4a0c      	ldr	r2, [pc, #48]	@ (800a084 <global_stdio_init.part.0+0x38>)
 800a054:	601a      	str	r2, [r3, #0]
 800a056:	4620      	mov	r0, r4
 800a058:	2200      	movs	r2, #0
 800a05a:	2104      	movs	r1, #4
 800a05c:	f7ff ff94 	bl	8009f88 <std>
 800a060:	f104 0068 	add.w	r0, r4, #104	@ 0x68
 800a064:	2201      	movs	r2, #1
 800a066:	2109      	movs	r1, #9
 800a068:	f7ff ff8e 	bl	8009f88 <std>
 800a06c:	f104 00d0 	add.w	r0, r4, #208	@ 0xd0
 800a070:	2202      	movs	r2, #2
 800a072:	e8bd 4010 	ldmia.w	sp!, {r4, lr}
 800a076:	2112      	movs	r1, #18
 800a078:	f7ff bf86 	b.w	8009f88 <std>
 800a07c:	24000394 	.word	0x24000394
 800a080:	2400025c 	.word	0x2400025c
 800a084:	08009ff5 	.word	0x08009ff5

0800a088 <__sfp_lock_acquire>:
 800a088:	4801      	ldr	r0, [pc, #4]	@ (800a090 <__sfp_lock_acquire+0x8>)
 800a08a:	f000 b894 	b.w	800a1b6 <__retarget_lock_acquire_recursive>
 800a08e:	bf00      	nop
 800a090:	24000399 	.word	0x24000399

0800a094 <__sfp_lock_release>:
 800a094:	4801      	ldr	r0, [pc, #4]	@ (800a09c <__sfp_lock_release+0x8>)
 800a096:	f000 b88f 	b.w	800a1b8 <__retarget_lock_release_recursive>
 800a09a:	bf00      	nop
 800a09c:	24000399 	.word	0x24000399

0800a0a0 <__sinit>:
 800a0a0:	b510      	push	{r4, lr}
 800a0a2:	4604      	mov	r4, r0
 800a0a4:	f7ff fff0 	bl	800a088 <__sfp_lock_acquire>
 800a0a8:	6a23      	ldr	r3, [r4, #32]
 800a0aa:	b11b      	cbz	r3, 800a0b4 <__sinit+0x14>
 800a0ac:	e8bd 4010 	ldmia.w	sp!, {r4, lr}
 800a0b0:	f7ff bff0 	b.w	800a094 <__sfp_lock_release>
 800a0b4:	4b04      	ldr	r3, [pc, #16]	@ (800a0c8 <__sinit+0x28>)
 800a0b6:	6223      	str	r3, [r4, #32]
 800a0b8:	4b04      	ldr	r3, [pc, #16]	@ (800a0cc <__sinit+0x2c>)
 800a0ba:	681b      	ldr	r3, [r3, #0]
 800a0bc:	2b00      	cmp	r3, #0
 800a0be:	d1f5      	bne.n	800a0ac <__sinit+0xc>
 800a0c0:	f7ff ffc4 	bl	800a04c <global_stdio_init.part.0>
 800a0c4:	e7f2      	b.n	800a0ac <__sinit+0xc>
 800a0c6:	bf00      	nop
 800a0c8:	0800a00d 	.word	0x0800a00d
 800a0cc:	24000394 	.word	0x24000394

0800a0d0 <fiprintf>:
 800a0d0:	b40e      	push	{r1, r2, r3}
 800a0d2:	b503      	push	{r0, r1, lr}
 800a0d4:	4601      	mov	r1, r0
 800a0d6:	ab03      	add	r3, sp, #12
 800a0d8:	4805      	ldr	r0, [pc, #20]	@ (800a0f0 <fiprintf+0x20>)
 800a0da:	f853 2b04 	ldr.w	r2, [r3], #4
 800a0de:	6800      	ldr	r0, [r0, #0]
 800a0e0:	9301      	str	r3, [sp, #4]
 800a0e2:	f000 fa4b 	bl	800a57c <_vfiprintf_r>
 800a0e6:	b002      	add	sp, #8
 800a0e8:	f85d eb04 	ldr.w	lr, [sp], #4
 800a0ec:	b003      	add	sp, #12
 800a0ee:	4770      	bx	lr
 800a0f0:	2400001c 	.word	0x2400001c

0800a0f4 <_fwalk_sglue>:
 800a0f4:	e92d 43f8 	stmdb	sp!, {r3, r4, r5, r6, r7, r8, r9, lr}
 800a0f8:	4607      	mov	r7, r0
 800a0fa:	4688      	mov	r8, r1
 800a0fc:	4614      	mov	r4, r2
 800a0fe:	2600      	movs	r6, #0
 800a100:	e9d4 9501 	ldrd	r9, r5, [r4, #4]
 800a104:	f1b9 0901 	subs.w	r9, r9, #1
 800a108:	d505      	bpl.n	800a116 <_fwalk_sglue+0x22>
 800a10a:	6824      	ldr	r4, [r4, #0]
 800a10c:	2c00      	cmp	r4, #0
 800a10e:	d1f7      	bne.n	800a100 <_fwalk_sglue+0xc>
 800a110:	4630      	mov	r0, r6
 800a112:	e8bd 83f8 	ldmia.w	sp!, {r3, r4, r5, r6, r7, r8, r9, pc}
 800a116:	89ab      	ldrh	r3, [r5, #12]
 800a118:	2b01      	cmp	r3, #1
 800a11a:	d907      	bls.n	800a12c <_fwalk_sglue+0x38>
 800a11c:	f9b5 300e 	ldrsh.w	r3, [r5, #14]
 800a120:	3301      	adds	r3, #1
 800a122:	d003      	beq.n	800a12c <_fwalk_sglue+0x38>
 800a124:	4629      	mov	r1, r5
 800a126:	4638      	mov	r0, r7
 800a128:	47c0      	blx	r8
 800a12a:	4306      	orrs	r6, r0
 800a12c:	3568      	adds	r5, #104	@ 0x68
 800a12e:	e7e9      	b.n	800a104 <_fwalk_sglue+0x10>

0800a130 <memset>:
 800a130:	4402      	add	r2, r0
 800a132:	4603      	mov	r3, r0
 800a134:	4293      	cmp	r3, r2
 800a136:	d100      	bne.n	800a13a <memset+0xa>
 800a138:	4770      	bx	lr
 800a13a:	f803 1b01 	strb.w	r1, [r3], #1
 800a13e:	e7f9      	b.n	800a134 <memset+0x4>

0800a140 <_sbrk_r>:
 800a140:	b538      	push	{r3, r4, r5, lr}
 800a142:	4d06      	ldr	r5, [pc, #24]	@ (800a15c <_sbrk_r+0x1c>)
 800a144:	2300      	movs	r3, #0
 800a146:	4604      	mov	r4, r0
 800a148:	4608      	mov	r0, r1
 800a14a:	602b      	str	r3, [r5, #0]
 800a14c:	f7fb fe28 	bl	8005da0 <_sbrk>
 800a150:	1c43      	adds	r3, r0, #1
 800a152:	d102      	bne.n	800a15a <_sbrk_r+0x1a>
 800a154:	682b      	ldr	r3, [r5, #0]
 800a156:	b103      	cbz	r3, 800a15a <_sbrk_r+0x1a>
 800a158:	6023      	str	r3, [r4, #0]
 800a15a:	bd38      	pop	{r3, r4, r5, pc}
 800a15c:	2400039c 	.word	0x2400039c

0800a160 <__errno>:
 800a160:	4b01      	ldr	r3, [pc, #4]	@ (800a168 <__errno+0x8>)
 800a162:	6818      	ldr	r0, [r3, #0]
 800a164:	4770      	bx	lr
 800a166:	bf00      	nop
 800a168:	2400001c 	.word	0x2400001c

0800a16c <__libc_init_array>:
 800a16c:	b570      	push	{r4, r5, r6, lr}
 800a16e:	4d0d      	ldr	r5, [pc, #52]	@ (800a1a4 <__libc_init_array+0x38>)
 800a170:	4c0d      	ldr	r4, [pc, #52]	@ (800a1a8 <__libc_init_array+0x3c>)
 800a172:	1b64      	subs	r4, r4, r5
 800a174:	10a4      	asrs	r4, r4, #2
 800a176:	2600      	movs	r6, #0
 800a178:	42a6      	cmp	r6, r4
 800a17a:	d109      	bne.n	800a190 <__libc_init_array+0x24>
 800a17c:	4d0b      	ldr	r5, [pc, #44]	@ (800a1ac <__libc_init_array+0x40>)
 800a17e:	4c0c      	ldr	r4, [pc, #48]	@ (800a1b0 <__libc_init_array+0x44>)
 800a180:	f000 ff84 	bl	800b08c <_init>
 800a184:	1b64      	subs	r4, r4, r5
 800a186:	10a4      	asrs	r4, r4, #2
 800a188:	2600      	movs	r6, #0
 800a18a:	42a6      	cmp	r6, r4
 800a18c:	d105      	bne.n	800a19a <__libc_init_array+0x2e>
 800a18e:	bd70      	pop	{r4, r5, r6, pc}
 800a190:	f855 3b04 	ldr.w	r3, [r5], #4
 800a194:	4798      	blx	r3
 800a196:	3601      	adds	r6, #1
 800a198:	e7ee      	b.n	800a178 <__libc_init_array+0xc>
 800a19a:	f855 3b04 	ldr.w	r3, [r5], #4
 800a19e:	4798      	blx	r3
 800a1a0:	3601      	adds	r6, #1
 800a1a2:	e7f2      	b.n	800a18a <__libc_init_array+0x1e>
 800a1a4:	0800e050 	.word	0x0800e050
 800a1a8:	0800e050 	.word	0x0800e050
 800a1ac:	0800e050 	.word	0x0800e050
 800a1b0:	0800e054 	.word	0x0800e054

0800a1b4 <__retarget_lock_init_recursive>:
 800a1b4:	4770      	bx	lr

0800a1b6 <__retarget_lock_acquire_recursive>:
 800a1b6:	4770      	bx	lr

0800a1b8 <__retarget_lock_release_recursive>:
 800a1b8:	4770      	bx	lr

0800a1ba <memcpy>:
 800a1ba:	440a      	add	r2, r1
 800a1bc:	4291      	cmp	r1, r2
 800a1be:	f100 33ff 	add.w	r3, r0, #4294967295	@ 0xffffffff
 800a1c2:	d100      	bne.n	800a1c6 <memcpy+0xc>
 800a1c4:	4770      	bx	lr
 800a1c6:	b510      	push	{r4, lr}
 800a1c8:	f811 4b01 	ldrb.w	r4, [r1], #1
 800a1cc:	f803 4f01 	strb.w	r4, [r3, #1]!
 800a1d0:	4291      	cmp	r1, r2
 800a1d2:	d1f9      	bne.n	800a1c8 <memcpy+0xe>
 800a1d4:	bd10      	pop	{r4, pc}

0800a1d6 <abort>:
 800a1d6:	b508      	push	{r3, lr}
 800a1d8:	2006      	movs	r0, #6
 800a1da:	f000 ff0f 	bl	800affc <raise>
 800a1de:	2001      	movs	r0, #1
 800a1e0:	f7fb fdb0 	bl	8005d44 <_exit>

0800a1e4 <_free_r>:
 800a1e4:	b538      	push	{r3, r4, r5, lr}
 800a1e6:	4605      	mov	r5, r0
 800a1e8:	2900      	cmp	r1, #0
 800a1ea:	d041      	beq.n	800a270 <_free_r+0x8c>
 800a1ec:	f851 3c04 	ldr.w	r3, [r1, #-4]
 800a1f0:	1f0c      	subs	r4, r1, #4
 800a1f2:	2b00      	cmp	r3, #0
 800a1f4:	bfb8      	it	lt
 800a1f6:	18e4      	addlt	r4, r4, r3
 800a1f8:	f7ff fe9a 	bl	8009f30 <__malloc_lock>
 800a1fc:	4a1d      	ldr	r2, [pc, #116]	@ (800a274 <_free_r+0x90>)
 800a1fe:	6813      	ldr	r3, [r2, #0]
 800a200:	b933      	cbnz	r3, 800a210 <_free_r+0x2c>
 800a202:	6063      	str	r3, [r4, #4]
 800a204:	6014      	str	r4, [r2, #0]
 800a206:	4628      	mov	r0, r5
 800a208:	e8bd 4038 	ldmia.w	sp!, {r3, r4, r5, lr}
 800a20c:	f7ff be96 	b.w	8009f3c <__malloc_unlock>
 800a210:	42a3      	cmp	r3, r4
 800a212:	d908      	bls.n	800a226 <_free_r+0x42>
 800a214:	6820      	ldr	r0, [r4, #0]
 800a216:	1821      	adds	r1, r4, r0
 800a218:	428b      	cmp	r3, r1
 800a21a:	bf01      	itttt	eq
 800a21c:	6819      	ldreq	r1, [r3, #0]
 800a21e:	685b      	ldreq	r3, [r3, #4]
 800a220:	1809      	addeq	r1, r1, r0
 800a222:	6021      	streq	r1, [r4, #0]
 800a224:	e7ed      	b.n	800a202 <_free_r+0x1e>
 800a226:	461a      	mov	r2, r3
 800a228:	685b      	ldr	r3, [r3, #4]
 800a22a:	b10b      	cbz	r3, 800a230 <_free_r+0x4c>
 800a22c:	42a3      	cmp	r3, r4
 800a22e:	d9fa      	bls.n	800a226 <_free_r+0x42>
 800a230:	6811      	ldr	r1, [r2, #0]
 800a232:	1850      	adds	r0, r2, r1
 800a234:	42a0      	cmp	r0, r4
 800a236:	d10b      	bne.n	800a250 <_free_r+0x6c>
 800a238:	6820      	ldr	r0, [r4, #0]
 800a23a:	4401      	add	r1, r0
 800a23c:	1850      	adds	r0, r2, r1
 800a23e:	4283      	cmp	r3, r0
 800a240:	6011      	str	r1, [r2, #0]
 800a242:	d1e0      	bne.n	800a206 <_free_r+0x22>
 800a244:	6818      	ldr	r0, [r3, #0]
 800a246:	685b      	ldr	r3, [r3, #4]
 800a248:	6053      	str	r3, [r2, #4]
 800a24a:	4408      	add	r0, r1
 800a24c:	6010      	str	r0, [r2, #0]
 800a24e:	e7da      	b.n	800a206 <_free_r+0x22>
 800a250:	d902      	bls.n	800a258 <_free_r+0x74>
 800a252:	230c      	movs	r3, #12
 800a254:	602b      	str	r3, [r5, #0]
 800a256:	e7d6      	b.n	800a206 <_free_r+0x22>
 800a258:	6820      	ldr	r0, [r4, #0]
 800a25a:	1821      	adds	r1, r4, r0
 800a25c:	428b      	cmp	r3, r1
 800a25e:	bf04      	itt	eq
 800a260:	6819      	ldreq	r1, [r3, #0]
 800a262:	685b      	ldreq	r3, [r3, #4]
 800a264:	6063      	str	r3, [r4, #4]
 800a266:	bf04      	itt	eq
 800a268:	1809      	addeq	r1, r1, r0
 800a26a:	6021      	streq	r1, [r4, #0]
 800a26c:	6054      	str	r4, [r2, #4]
 800a26e:	e7ca      	b.n	800a206 <_free_r+0x22>
 800a270:	bd38      	pop	{r3, r4, r5, pc}
 800a272:	bf00      	nop
 800a274:	24000258 	.word	0x24000258

0800a278 <__ssputs_r>:
 800a278:	e92d 47f0 	stmdb	sp!, {r4, r5, r6, r7, r8, r9, sl, lr}
 800a27c:	688e      	ldr	r6, [r1, #8]
 800a27e:	461f      	mov	r7, r3
 800a280:	42be      	cmp	r6, r7
 800a282:	680b      	ldr	r3, [r1, #0]
 800a284:	4682      	mov	sl, r0
 800a286:	460c      	mov	r4, r1
 800a288:	4690      	mov	r8, r2
 800a28a:	d82d      	bhi.n	800a2e8 <__ssputs_r+0x70>
 800a28c:	f9b1 200c 	ldrsh.w	r2, [r1, #12]
 800a290:	f412 6f90 	tst.w	r2, #1152	@ 0x480
 800a294:	d026      	beq.n	800a2e4 <__ssputs_r+0x6c>
 800a296:	6965      	ldr	r5, [r4, #20]
 800a298:	6909      	ldr	r1, [r1, #16]
 800a29a:	eb05 0545 	add.w	r5, r5, r5, lsl #1
 800a29e:	eba3 0901 	sub.w	r9, r3, r1
 800a2a2:	eb05 75d5 	add.w	r5, r5, r5, lsr #31
 800a2a6:	1c7b      	adds	r3, r7, #1
 800a2a8:	444b      	add	r3, r9
 800a2aa:	106d      	asrs	r5, r5, #1
 800a2ac:	429d      	cmp	r5, r3
 800a2ae:	bf38      	it	cc
 800a2b0:	461d      	movcc	r5, r3
 800a2b2:	0553      	lsls	r3, r2, #21
 800a2b4:	d527      	bpl.n	800a306 <__ssputs_r+0x8e>
 800a2b6:	4629      	mov	r1, r5
 800a2b8:	f7ff fdba 	bl	8009e30 <_malloc_r>
 800a2bc:	4606      	mov	r6, r0
 800a2be:	b360      	cbz	r0, 800a31a <__ssputs_r+0xa2>
 800a2c0:	6921      	ldr	r1, [r4, #16]
 800a2c2:	464a      	mov	r2, r9
 800a2c4:	f7ff ff79 	bl	800a1ba <memcpy>
 800a2c8:	89a3      	ldrh	r3, [r4, #12]
 800a2ca:	f423 6390 	bic.w	r3, r3, #1152	@ 0x480
 800a2ce:	f043 0380 	orr.w	r3, r3, #128	@ 0x80
 800a2d2:	81a3      	strh	r3, [r4, #12]
 800a2d4:	6126      	str	r6, [r4, #16]
 800a2d6:	6165      	str	r5, [r4, #20]
 800a2d8:	444e      	add	r6, r9
 800a2da:	eba5 0509 	sub.w	r5, r5, r9
 800a2de:	6026      	str	r6, [r4, #0]
 800a2e0:	60a5      	str	r5, [r4, #8]
 800a2e2:	463e      	mov	r6, r7
 800a2e4:	42be      	cmp	r6, r7
 800a2e6:	d900      	bls.n	800a2ea <__ssputs_r+0x72>
 800a2e8:	463e      	mov	r6, r7
 800a2ea:	6820      	ldr	r0, [r4, #0]
 800a2ec:	4632      	mov	r2, r6
 800a2ee:	4641      	mov	r1, r8
 800a2f0:	f000 fdfe 	bl	800aef0 <memmove>
 800a2f4:	68a3      	ldr	r3, [r4, #8]
 800a2f6:	1b9b      	subs	r3, r3, r6
 800a2f8:	60a3      	str	r3, [r4, #8]
 800a2fa:	6823      	ldr	r3, [r4, #0]
 800a2fc:	4433      	add	r3, r6
 800a2fe:	6023      	str	r3, [r4, #0]
 800a300:	2000      	movs	r0, #0
 800a302:	e8bd 87f0 	ldmia.w	sp!, {r4, r5, r6, r7, r8, r9, sl, pc}
 800a306:	462a      	mov	r2, r5
 800a308:	f000 fccd 	bl	800aca6 <_realloc_r>
 800a30c:	4606      	mov	r6, r0
 800a30e:	2800      	cmp	r0, #0
 800a310:	d1e0      	bne.n	800a2d4 <__ssputs_r+0x5c>
 800a312:	6921      	ldr	r1, [r4, #16]
 800a314:	4650      	mov	r0, sl
 800a316:	f7ff ff65 	bl	800a1e4 <_free_r>
 800a31a:	230c      	movs	r3, #12
 800a31c:	f8ca 3000 	str.w	r3, [sl]
 800a320:	89a3      	ldrh	r3, [r4, #12]
 800a322:	f043 0340 	orr.w	r3, r3, #64	@ 0x40
 800a326:	81a3      	strh	r3, [r4, #12]
 800a328:	f04f 30ff 	mov.w	r0, #4294967295	@ 0xffffffff
 800a32c:	e7e9      	b.n	800a302 <__ssputs_r+0x8a>
	...

0800a330 <_svfiprintf_r>:
 800a330:	e92d 4ff0 	stmdb	sp!, {r4, r5, r6, r7, r8, r9, sl, fp, lr}
 800a334:	4698      	mov	r8, r3
 800a336:	898b      	ldrh	r3, [r1, #12]
 800a338:	061b      	lsls	r3, r3, #24
 800a33a:	b09d      	sub	sp, #116	@ 0x74
 800a33c:	4607      	mov	r7, r0
 800a33e:	460d      	mov	r5, r1
 800a340:	4614      	mov	r4, r2
 800a342:	d510      	bpl.n	800a366 <_svfiprintf_r+0x36>
 800a344:	690b      	ldr	r3, [r1, #16]
 800a346:	b973      	cbnz	r3, 800a366 <_svfiprintf_r+0x36>
 800a348:	2140      	movs	r1, #64	@ 0x40
 800a34a:	f7ff fd71 	bl	8009e30 <_malloc_r>
 800a34e:	6028      	str	r0, [r5, #0]
 800a350:	6128      	str	r0, [r5, #16]
 800a352:	b930      	cbnz	r0, 800a362 <_svfiprintf_r+0x32>
 800a354:	230c      	movs	r3, #12
 800a356:	603b      	str	r3, [r7, #0]
 800a358:	f04f 30ff 	mov.w	r0, #4294967295	@ 0xffffffff
 800a35c:	b01d      	add	sp, #116	@ 0x74
 800a35e:	e8bd 8ff0 	ldmia.w	sp!, {r4, r5, r6, r7, r8, r9, sl, fp, pc}
 800a362:	2340      	movs	r3, #64	@ 0x40
 800a364:	616b      	str	r3, [r5, #20]
 800a366:	2300      	movs	r3, #0
 800a368:	9309      	str	r3, [sp, #36]	@ 0x24
 800a36a:	2320      	movs	r3, #32
 800a36c:	f88d 3029 	strb.w	r3, [sp, #41]	@ 0x29
 800a370:	f8cd 800c 	str.w	r8, [sp, #12]
 800a374:	2330      	movs	r3, #48	@ 0x30
 800a376:	f8df 819c 	ldr.w	r8, [pc, #412]	@ 800a514 <_svfiprintf_r+0x1e4>
 800a37a:	f88d 302a 	strb.w	r3, [sp, #42]	@ 0x2a
 800a37e:	f04f 0901 	mov.w	r9, #1
 800a382:	4623      	mov	r3, r4
 800a384:	469a      	mov	sl, r3
 800a386:	f813 2b01 	ldrb.w	r2, [r3], #1
 800a38a:	b10a      	cbz	r2, 800a390 <_svfiprintf_r+0x60>
 800a38c:	2a25      	cmp	r2, #37	@ 0x25
 800a38e:	d1f9      	bne.n	800a384 <_svfiprintf_r+0x54>
 800a390:	ebba 0b04 	subs.w	fp, sl, r4
 800a394:	d00b      	beq.n	800a3ae <_svfiprintf_r+0x7e>
 800a396:	465b      	mov	r3, fp
 800a398:	4622      	mov	r2, r4
 800a39a:	4629      	mov	r1, r5
 800a39c:	4638      	mov	r0, r7
 800a39e:	f7ff ff6b 	bl	800a278 <__ssputs_r>
 800a3a2:	3001      	adds	r0, #1
 800a3a4:	f000 80a7 	beq.w	800a4f6 <_svfiprintf_r+0x1c6>
 800a3a8:	9a09      	ldr	r2, [sp, #36]	@ 0x24
 800a3aa:	445a      	add	r2, fp
 800a3ac:	9209      	str	r2, [sp, #36]	@ 0x24
 800a3ae:	f89a 3000 	ldrb.w	r3, [sl]
 800a3b2:	2b00      	cmp	r3, #0
 800a3b4:	f000 809f 	beq.w	800a4f6 <_svfiprintf_r+0x1c6>
 800a3b8:	2300      	movs	r3, #0
 800a3ba:	f04f 32ff 	mov.w	r2, #4294967295	@ 0xffffffff
 800a3be:	e9cd 2305 	strd	r2, r3, [sp, #20]
 800a3c2:	f10a 0a01 	add.w	sl, sl, #1
 800a3c6:	9304      	str	r3, [sp, #16]
 800a3c8:	9307      	str	r3, [sp, #28]
 800a3ca:	f88d 3053 	strb.w	r3, [sp, #83]	@ 0x53
 800a3ce:	931a      	str	r3, [sp, #104]	@ 0x68
 800a3d0:	4654      	mov	r4, sl
 800a3d2:	2205      	movs	r2, #5
 800a3d4:	f814 1b01 	ldrb.w	r1, [r4], #1
 800a3d8:	484e      	ldr	r0, [pc, #312]	@ (800a514 <_svfiprintf_r+0x1e4>)
 800a3da:	f7f5 ff81 	bl	80002e0 <memchr>
 800a3de:	9a04      	ldr	r2, [sp, #16]
 800a3e0:	b9d8      	cbnz	r0, 800a41a <_svfiprintf_r+0xea>
 800a3e2:	06d0      	lsls	r0, r2, #27
 800a3e4:	bf44      	itt	mi
 800a3e6:	2320      	movmi	r3, #32
 800a3e8:	f88d 3053 	strbmi.w	r3, [sp, #83]	@ 0x53
 800a3ec:	0711      	lsls	r1, r2, #28
 800a3ee:	bf44      	itt	mi
 800a3f0:	232b      	movmi	r3, #43	@ 0x2b
 800a3f2:	f88d 3053 	strbmi.w	r3, [sp, #83]	@ 0x53
 800a3f6:	f89a 3000 	ldrb.w	r3, [sl]
 800a3fa:	2b2a      	cmp	r3, #42	@ 0x2a
 800a3fc:	d015      	beq.n	800a42a <_svfiprintf_r+0xfa>
 800a3fe:	9a07      	ldr	r2, [sp, #28]
 800a400:	4654      	mov	r4, sl
 800a402:	2000      	movs	r0, #0
 800a404:	f04f 0c0a 	mov.w	ip, #10
 800a408:	4621      	mov	r1, r4
 800a40a:	f811 3b01 	ldrb.w	r3, [r1], #1
 800a40e:	3b30      	subs	r3, #48	@ 0x30
 800a410:	2b09      	cmp	r3, #9
 800a412:	d94b      	bls.n	800a4ac <_svfiprintf_r+0x17c>
 800a414:	b1b0      	cbz	r0, 800a444 <_svfiprintf_r+0x114>
 800a416:	9207      	str	r2, [sp, #28]
 800a418:	e014      	b.n	800a444 <_svfiprintf_r+0x114>
 800a41a:	eba0 0308 	sub.w	r3, r0, r8
 800a41e:	fa09 f303 	lsl.w	r3, r9, r3
 800a422:	4313      	orrs	r3, r2
 800a424:	9304      	str	r3, [sp, #16]
 800a426:	46a2      	mov	sl, r4
 800a428:	e7d2      	b.n	800a3d0 <_svfiprintf_r+0xa0>
 800a42a:	9b03      	ldr	r3, [sp, #12]
 800a42c:	1d19      	adds	r1, r3, #4
 800a42e:	681b      	ldr	r3, [r3, #0]
 800a430:	9103      	str	r1, [sp, #12]
 800a432:	2b00      	cmp	r3, #0
 800a434:	bfbb      	ittet	lt
 800a436:	425b      	neglt	r3, r3
 800a438:	f042 0202 	orrlt.w	r2, r2, #2
 800a43c:	9307      	strge	r3, [sp, #28]
 800a43e:	9307      	strlt	r3, [sp, #28]
 800a440:	bfb8      	it	lt
 800a442:	9204      	strlt	r2, [sp, #16]
 800a444:	7823      	ldrb	r3, [r4, #0]
 800a446:	2b2e      	cmp	r3, #46	@ 0x2e
 800a448:	d10a      	bne.n	800a460 <_svfiprintf_r+0x130>
 800a44a:	7863      	ldrb	r3, [r4, #1]
 800a44c:	2b2a      	cmp	r3, #42	@ 0x2a
 800a44e:	d132      	bne.n	800a4b6 <_svfiprintf_r+0x186>
 800a450:	9b03      	ldr	r3, [sp, #12]
 800a452:	1d1a      	adds	r2, r3, #4
 800a454:	681b      	ldr	r3, [r3, #0]
 800a456:	9203      	str	r2, [sp, #12]
 800a458:	ea43 73e3 	orr.w	r3, r3, r3, asr #31
 800a45c:	3402      	adds	r4, #2
 800a45e:	9305      	str	r3, [sp, #20]
 800a460:	f8df a0c0 	ldr.w	sl, [pc, #192]	@ 800a524 <_svfiprintf_r+0x1f4>
 800a464:	7821      	ldrb	r1, [r4, #0]
 800a466:	2203      	movs	r2, #3
 800a468:	4650      	mov	r0, sl
 800a46a:	f7f5 ff39 	bl	80002e0 <memchr>
 800a46e:	b138      	cbz	r0, 800a480 <_svfiprintf_r+0x150>
 800a470:	9b04      	ldr	r3, [sp, #16]
 800a472:	eba0 000a 	sub.w	r0, r0, sl
 800a476:	2240      	movs	r2, #64	@ 0x40
 800a478:	4082      	lsls	r2, r0
 800a47a:	4313      	orrs	r3, r2
 800a47c:	3401      	adds	r4, #1
 800a47e:	9304      	str	r3, [sp, #16]
 800a480:	f814 1b01 	ldrb.w	r1, [r4], #1
 800a484:	4824      	ldr	r0, [pc, #144]	@ (800a518 <_svfiprintf_r+0x1e8>)
 800a486:	f88d 1028 	strb.w	r1, [sp, #40]	@ 0x28
 800a48a:	2206      	movs	r2, #6
 800a48c:	f7f5 ff28 	bl	80002e0 <memchr>
 800a490:	2800      	cmp	r0, #0
 800a492:	d036      	beq.n	800a502 <_svfiprintf_r+0x1d2>
 800a494:	4b21      	ldr	r3, [pc, #132]	@ (800a51c <_svfiprintf_r+0x1ec>)
 800a496:	bb1b      	cbnz	r3, 800a4e0 <_svfiprintf_r+0x1b0>
 800a498:	9b03      	ldr	r3, [sp, #12]
 800a49a:	3307      	adds	r3, #7
 800a49c:	f023 0307 	bic.w	r3, r3, #7
 800a4a0:	3308      	adds	r3, #8
 800a4a2:	9303      	str	r3, [sp, #12]
 800a4a4:	9b09      	ldr	r3, [sp, #36]	@ 0x24
 800a4a6:	4433      	add	r3, r6
 800a4a8:	9309      	str	r3, [sp, #36]	@ 0x24
 800a4aa:	e76a      	b.n	800a382 <_svfiprintf_r+0x52>
 800a4ac:	fb0c 3202 	mla	r2, ip, r2, r3
 800a4b0:	460c      	mov	r4, r1
 800a4b2:	2001      	movs	r0, #1
 800a4b4:	e7a8      	b.n	800a408 <_svfiprintf_r+0xd8>
 800a4b6:	2300      	movs	r3, #0
 800a4b8:	3401      	adds	r4, #1
 800a4ba:	9305      	str	r3, [sp, #20]
 800a4bc:	4619      	mov	r1, r3
 800a4be:	f04f 0c0a 	mov.w	ip, #10
 800a4c2:	4620      	mov	r0, r4
 800a4c4:	f810 2b01 	ldrb.w	r2, [r0], #1
 800a4c8:	3a30      	subs	r2, #48	@ 0x30
 800a4ca:	2a09      	cmp	r2, #9
 800a4cc:	d903      	bls.n	800a4d6 <_svfiprintf_r+0x1a6>
 800a4ce:	2b00      	cmp	r3, #0
 800a4d0:	d0c6      	beq.n	800a460 <_svfiprintf_r+0x130>
 800a4d2:	9105      	str	r1, [sp, #20]
 800a4d4:	e7c4      	b.n	800a460 <_svfiprintf_r+0x130>
 800a4d6:	fb0c 2101 	mla	r1, ip, r1, r2
 800a4da:	4604      	mov	r4, r0
 800a4dc:	2301      	movs	r3, #1
 800a4de:	e7f0      	b.n	800a4c2 <_svfiprintf_r+0x192>
 800a4e0:	ab03      	add	r3, sp, #12
 800a4e2:	9300      	str	r3, [sp, #0]
 800a4e4:	462a      	mov	r2, r5
 800a4e6:	4b0e      	ldr	r3, [pc, #56]	@ (800a520 <_svfiprintf_r+0x1f0>)
 800a4e8:	a904      	add	r1, sp, #16
 800a4ea:	4638      	mov	r0, r7
 800a4ec:	f3af 8000 	nop.w
 800a4f0:	1c42      	adds	r2, r0, #1
 800a4f2:	4606      	mov	r6, r0
 800a4f4:	d1d6      	bne.n	800a4a4 <_svfiprintf_r+0x174>
 800a4f6:	89ab      	ldrh	r3, [r5, #12]
 800a4f8:	065b      	lsls	r3, r3, #25
 800a4fa:	f53f af2d 	bmi.w	800a358 <_svfiprintf_r+0x28>
 800a4fe:	9809      	ldr	r0, [sp, #36]	@ 0x24
 800a500:	e72c      	b.n	800a35c <_svfiprintf_r+0x2c>
 800a502:	ab03      	add	r3, sp, #12
 800a504:	9300      	str	r3, [sp, #0]
 800a506:	462a      	mov	r2, r5
 800a508:	4b05      	ldr	r3, [pc, #20]	@ (800a520 <_svfiprintf_r+0x1f0>)
 800a50a:	a904      	add	r1, sp, #16
 800a50c:	4638      	mov	r0, r7
 800a50e:	f000 f9bb 	bl	800a888 <_printf_i>
 800a512:	e7ed      	b.n	800a4f0 <_svfiprintf_r+0x1c0>
 800a514:	0800e014 	.word	0x0800e014
 800a518:	0800e01e 	.word	0x0800e01e
 800a51c:	00000000 	.word	0x00000000
 800a520:	0800a279 	.word	0x0800a279
 800a524:	0800e01a 	.word	0x0800e01a

0800a528 <__sfputc_r>:
 800a528:	6893      	ldr	r3, [r2, #8]
 800a52a:	3b01      	subs	r3, #1
 800a52c:	2b00      	cmp	r3, #0
 800a52e:	b410      	push	{r4}
 800a530:	6093      	str	r3, [r2, #8]
 800a532:	da08      	bge.n	800a546 <__sfputc_r+0x1e>
 800a534:	6994      	ldr	r4, [r2, #24]
 800a536:	42a3      	cmp	r3, r4
 800a538:	db01      	blt.n	800a53e <__sfputc_r+0x16>
 800a53a:	290a      	cmp	r1, #10
 800a53c:	d103      	bne.n	800a546 <__sfputc_r+0x1e>
 800a53e:	f85d 4b04 	ldr.w	r4, [sp], #4
 800a542:	f000 bbde 	b.w	800ad02 <__swbuf_r>
 800a546:	6813      	ldr	r3, [r2, #0]
 800a548:	1c58      	adds	r0, r3, #1
 800a54a:	6010      	str	r0, [r2, #0]
 800a54c:	7019      	strb	r1, [r3, #0]
 800a54e:	4608      	mov	r0, r1
 800a550:	f85d 4b04 	ldr.w	r4, [sp], #4
 800a554:	4770      	bx	lr

0800a556 <__sfputs_r>:
 800a556:	b5f8      	push	{r3, r4, r5, r6, r7, lr}
 800a558:	4606      	mov	r6, r0
 800a55a:	460f      	mov	r7, r1
 800a55c:	4614      	mov	r4, r2
 800a55e:	18d5      	adds	r5, r2, r3
 800a560:	42ac      	cmp	r4, r5
 800a562:	d101      	bne.n	800a568 <__sfputs_r+0x12>
 800a564:	2000      	movs	r0, #0
 800a566:	e007      	b.n	800a578 <__sfputs_r+0x22>
 800a568:	f814 1b01 	ldrb.w	r1, [r4], #1
 800a56c:	463a      	mov	r2, r7
 800a56e:	4630      	mov	r0, r6
 800a570:	f7ff ffda 	bl	800a528 <__sfputc_r>
 800a574:	1c43      	adds	r3, r0, #1
 800a576:	d1f3      	bne.n	800a560 <__sfputs_r+0xa>
 800a578:	bdf8      	pop	{r3, r4, r5, r6, r7, pc}
	...

0800a57c <_vfiprintf_r>:
 800a57c:	e92d 4ff0 	stmdb	sp!, {r4, r5, r6, r7, r8, r9, sl, fp, lr}
 800a580:	460d      	mov	r5, r1
 800a582:	b09d      	sub	sp, #116	@ 0x74
 800a584:	4614      	mov	r4, r2
 800a586:	4698      	mov	r8, r3
 800a588:	4606      	mov	r6, r0
 800a58a:	b118      	cbz	r0, 800a594 <_vfiprintf_r+0x18>
 800a58c:	6a03      	ldr	r3, [r0, #32]
 800a58e:	b90b      	cbnz	r3, 800a594 <_vfiprintf_r+0x18>
 800a590:	f7ff fd86 	bl	800a0a0 <__sinit>
 800a594:	6e6b      	ldr	r3, [r5, #100]	@ 0x64
 800a596:	07d9      	lsls	r1, r3, #31
 800a598:	d405      	bmi.n	800a5a6 <_vfiprintf_r+0x2a>
 800a59a:	89ab      	ldrh	r3, [r5, #12]
 800a59c:	059a      	lsls	r2, r3, #22
 800a59e:	d402      	bmi.n	800a5a6 <_vfiprintf_r+0x2a>
 800a5a0:	6da8      	ldr	r0, [r5, #88]	@ 0x58
 800a5a2:	f7ff fe08 	bl	800a1b6 <__retarget_lock_acquire_recursive>
 800a5a6:	89ab      	ldrh	r3, [r5, #12]
 800a5a8:	071b      	lsls	r3, r3, #28
 800a5aa:	d501      	bpl.n	800a5b0 <_vfiprintf_r+0x34>
 800a5ac:	692b      	ldr	r3, [r5, #16]
 800a5ae:	b99b      	cbnz	r3, 800a5d8 <_vfiprintf_r+0x5c>
 800a5b0:	4629      	mov	r1, r5
 800a5b2:	4630      	mov	r0, r6
 800a5b4:	f000 fbe4 	bl	800ad80 <__swsetup_r>
 800a5b8:	b170      	cbz	r0, 800a5d8 <_vfiprintf_r+0x5c>
 800a5ba:	6e6b      	ldr	r3, [r5, #100]	@ 0x64
 800a5bc:	07dc      	lsls	r4, r3, #31
 800a5be:	d504      	bpl.n	800a5ca <_vfiprintf_r+0x4e>
 800a5c0:	f04f 30ff 	mov.w	r0, #4294967295	@ 0xffffffff
 800a5c4:	b01d      	add	sp, #116	@ 0x74
 800a5c6:	e8bd 8ff0 	ldmia.w	sp!, {r4, r5, r6, r7, r8, r9, sl, fp, pc}
 800a5ca:	89ab      	ldrh	r3, [r5, #12]
 800a5cc:	0598      	lsls	r0, r3, #22
 800a5ce:	d4f7      	bmi.n	800a5c0 <_vfiprintf_r+0x44>
 800a5d0:	6da8      	ldr	r0, [r5, #88]	@ 0x58
 800a5d2:	f7ff fdf1 	bl	800a1b8 <__retarget_lock_release_recursive>
 800a5d6:	e7f3      	b.n	800a5c0 <_vfiprintf_r+0x44>
 800a5d8:	2300      	movs	r3, #0
 800a5da:	9309      	str	r3, [sp, #36]	@ 0x24
 800a5dc:	2320      	movs	r3, #32
 800a5de:	f88d 3029 	strb.w	r3, [sp, #41]	@ 0x29
 800a5e2:	f8cd 800c 	str.w	r8, [sp, #12]
 800a5e6:	2330      	movs	r3, #48	@ 0x30
 800a5e8:	f8df 81ac 	ldr.w	r8, [pc, #428]	@ 800a798 <_vfiprintf_r+0x21c>
 800a5ec:	f88d 302a 	strb.w	r3, [sp, #42]	@ 0x2a
 800a5f0:	f04f 0901 	mov.w	r9, #1
 800a5f4:	4623      	mov	r3, r4
 800a5f6:	469a      	mov	sl, r3
 800a5f8:	f813 2b01 	ldrb.w	r2, [r3], #1
 800a5fc:	b10a      	cbz	r2, 800a602 <_vfiprintf_r+0x86>
 800a5fe:	2a25      	cmp	r2, #37	@ 0x25
 800a600:	d1f9      	bne.n	800a5f6 <_vfiprintf_r+0x7a>
 800a602:	ebba 0b04 	subs.w	fp, sl, r4
 800a606:	d00b      	beq.n	800a620 <_vfiprintf_r+0xa4>
 800a608:	465b      	mov	r3, fp
 800a60a:	4622      	mov	r2, r4
 800a60c:	4629      	mov	r1, r5
 800a60e:	4630      	mov	r0, r6
 800a610:	f7ff ffa1 	bl	800a556 <__sfputs_r>
 800a614:	3001      	adds	r0, #1
 800a616:	f000 80a7 	beq.w	800a768 <_vfiprintf_r+0x1ec>
 800a61a:	9a09      	ldr	r2, [sp, #36]	@ 0x24
 800a61c:	445a      	add	r2, fp
 800a61e:	9209      	str	r2, [sp, #36]	@ 0x24
 800a620:	f89a 3000 	ldrb.w	r3, [sl]
 800a624:	2b00      	cmp	r3, #0
 800a626:	f000 809f 	beq.w	800a768 <_vfiprintf_r+0x1ec>
 800a62a:	2300      	movs	r3, #0
 800a62c:	f04f 32ff 	mov.w	r2, #4294967295	@ 0xffffffff
 800a630:	e9cd 2305 	strd	r2, r3, [sp, #20]
 800a634:	f10a 0a01 	add.w	sl, sl, #1
 800a638:	9304      	str	r3, [sp, #16]
 800a63a:	9307      	str	r3, [sp, #28]
 800a63c:	f88d 3053 	strb.w	r3, [sp, #83]	@ 0x53
 800a640:	931a      	str	r3, [sp, #104]	@ 0x68
 800a642:	4654      	mov	r4, sl
 800a644:	2205      	movs	r2, #5
 800a646:	f814 1b01 	ldrb.w	r1, [r4], #1
 800a64a:	4853      	ldr	r0, [pc, #332]	@ (800a798 <_vfiprintf_r+0x21c>)
 800a64c:	f7f5 fe48 	bl	80002e0 <memchr>
 800a650:	9a04      	ldr	r2, [sp, #16]
 800a652:	b9d8      	cbnz	r0, 800a68c <_vfiprintf_r+0x110>
 800a654:	06d1      	lsls	r1, r2, #27
 800a656:	bf44      	itt	mi
 800a658:	2320      	movmi	r3, #32
 800a65a:	f88d 3053 	strbmi.w	r3, [sp, #83]	@ 0x53
 800a65e:	0713      	lsls	r3, r2, #28
 800a660:	bf44      	itt	mi
 800a662:	232b      	movmi	r3, #43	@ 0x2b
 800a664:	f88d 3053 	strbmi.w	r3, [sp, #83]	@ 0x53
 800a668:	f89a 3000 	ldrb.w	r3, [sl]
 800a66c:	2b2a      	cmp	r3, #42	@ 0x2a
 800a66e:	d015      	beq.n	800a69c <_vfiprintf_r+0x120>
 800a670:	9a07      	ldr	r2, [sp, #28]
 800a672:	4654      	mov	r4, sl
 800a674:	2000      	movs	r0, #0
 800a676:	f04f 0c0a 	mov.w	ip, #10
 800a67a:	4621      	mov	r1, r4
 800a67c:	f811 3b01 	ldrb.w	r3, [r1], #1
 800a680:	3b30      	subs	r3, #48	@ 0x30
 800a682:	2b09      	cmp	r3, #9
 800a684:	d94b      	bls.n	800a71e <_vfiprintf_r+0x1a2>
 800a686:	b1b0      	cbz	r0, 800a6b6 <_vfiprintf_r+0x13a>
 800a688:	9207      	str	r2, [sp, #28]
 800a68a:	e014      	b.n	800a6b6 <_vfiprintf_r+0x13a>
 800a68c:	eba0 0308 	sub.w	r3, r0, r8
 800a690:	fa09 f303 	lsl.w	r3, r9, r3
 800a694:	4313      	orrs	r3, r2
 800a696:	9304      	str	r3, [sp, #16]
 800a698:	46a2      	mov	sl, r4
 800a69a:	e7d2      	b.n	800a642 <_vfiprintf_r+0xc6>
 800a69c:	9b03      	ldr	r3, [sp, #12]
 800a69e:	1d19      	adds	r1, r3, #4
 800a6a0:	681b      	ldr	r3, [r3, #0]
 800a6a2:	9103      	str	r1, [sp, #12]
 800a6a4:	2b00      	cmp	r3, #0
 800a6a6:	bfbb      	ittet	lt
 800a6a8:	425b      	neglt	r3, r3
 800a6aa:	f042 0202 	orrlt.w	r2, r2, #2
 800a6ae:	9307      	strge	r3, [sp, #28]
 800a6b0:	9307      	strlt	r3, [sp, #28]
 800a6b2:	bfb8      	it	lt
 800a6b4:	9204      	strlt	r2, [sp, #16]
 800a6b6:	7823      	ldrb	r3, [r4, #0]
 800a6b8:	2b2e      	cmp	r3, #46	@ 0x2e
 800a6ba:	d10a      	bne.n	800a6d2 <_vfiprintf_r+0x156>
 800a6bc:	7863      	ldrb	r3, [r4, #1]
 800a6be:	2b2a      	cmp	r3, #42	@ 0x2a
 800a6c0:	d132      	bne.n	800a728 <_vfiprintf_r+0x1ac>
 800a6c2:	9b03      	ldr	r3, [sp, #12]
 800a6c4:	1d1a      	adds	r2, r3, #4
 800a6c6:	681b      	ldr	r3, [r3, #0]
 800a6c8:	9203      	str	r2, [sp, #12]
 800a6ca:	ea43 73e3 	orr.w	r3, r3, r3, asr #31
 800a6ce:	3402      	adds	r4, #2
 800a6d0:	9305      	str	r3, [sp, #20]
 800a6d2:	f8df a0d4 	ldr.w	sl, [pc, #212]	@ 800a7a8 <_vfiprintf_r+0x22c>
 800a6d6:	7821      	ldrb	r1, [r4, #0]
 800a6d8:	2203      	movs	r2, #3
 800a6da:	4650      	mov	r0, sl
 800a6dc:	f7f5 fe00 	bl	80002e0 <memchr>
 800a6e0:	b138      	cbz	r0, 800a6f2 <_vfiprintf_r+0x176>
 800a6e2:	9b04      	ldr	r3, [sp, #16]
 800a6e4:	eba0 000a 	sub.w	r0, r0, sl
 800a6e8:	2240      	movs	r2, #64	@ 0x40
 800a6ea:	4082      	lsls	r2, r0
 800a6ec:	4313      	orrs	r3, r2
 800a6ee:	3401      	adds	r4, #1
 800a6f0:	9304      	str	r3, [sp, #16]
 800a6f2:	f814 1b01 	ldrb.w	r1, [r4], #1
 800a6f6:	4829      	ldr	r0, [pc, #164]	@ (800a79c <_vfiprintf_r+0x220>)
 800a6f8:	f88d 1028 	strb.w	r1, [sp, #40]	@ 0x28
 800a6fc:	2206      	movs	r2, #6
 800a6fe:	f7f5 fdef 	bl	80002e0 <memchr>
 800a702:	2800      	cmp	r0, #0
 800a704:	d03f      	beq.n	800a786 <_vfiprintf_r+0x20a>
 800a706:	4b26      	ldr	r3, [pc, #152]	@ (800a7a0 <_vfiprintf_r+0x224>)
 800a708:	bb1b      	cbnz	r3, 800a752 <_vfiprintf_r+0x1d6>
 800a70a:	9b03      	ldr	r3, [sp, #12]
 800a70c:	3307      	adds	r3, #7
 800a70e:	f023 0307 	bic.w	r3, r3, #7
 800a712:	3308      	adds	r3, #8
 800a714:	9303      	str	r3, [sp, #12]
 800a716:	9b09      	ldr	r3, [sp, #36]	@ 0x24
 800a718:	443b      	add	r3, r7
 800a71a:	9309      	str	r3, [sp, #36]	@ 0x24
 800a71c:	e76a      	b.n	800a5f4 <_vfiprintf_r+0x78>
 800a71e:	fb0c 3202 	mla	r2, ip, r2, r3
 800a722:	460c      	mov	r4, r1
 800a724:	2001      	movs	r0, #1
 800a726:	e7a8      	b.n	800a67a <_vfiprintf_r+0xfe>
 800a728:	2300      	movs	r3, #0
 800a72a:	3401      	adds	r4, #1
 800a72c:	9305      	str	r3, [sp, #20]
 800a72e:	4619      	mov	r1, r3
 800a730:	f04f 0c0a 	mov.w	ip, #10
 800a734:	4620      	mov	r0, r4
 800a736:	f810 2b01 	ldrb.w	r2, [r0], #1
 800a73a:	3a30      	subs	r2, #48	@ 0x30
 800a73c:	2a09      	cmp	r2, #9
 800a73e:	d903      	bls.n	800a748 <_vfiprintf_r+0x1cc>
 800a740:	2b00      	cmp	r3, #0
 800a742:	d0c6      	beq.n	800a6d2 <_vfiprintf_r+0x156>
 800a744:	9105      	str	r1, [sp, #20]
 800a746:	e7c4      	b.n	800a6d2 <_vfiprintf_r+0x156>
 800a748:	fb0c 2101 	mla	r1, ip, r1, r2
 800a74c:	4604      	mov	r4, r0
 800a74e:	2301      	movs	r3, #1
 800a750:	e7f0      	b.n	800a734 <_vfiprintf_r+0x1b8>
 800a752:	ab03      	add	r3, sp, #12
 800a754:	9300      	str	r3, [sp, #0]
 800a756:	462a      	mov	r2, r5
 800a758:	4b12      	ldr	r3, [pc, #72]	@ (800a7a4 <_vfiprintf_r+0x228>)
 800a75a:	a904      	add	r1, sp, #16
 800a75c:	4630      	mov	r0, r6
 800a75e:	f3af 8000 	nop.w
 800a762:	4607      	mov	r7, r0
 800a764:	1c78      	adds	r0, r7, #1
 800a766:	d1d6      	bne.n	800a716 <_vfiprintf_r+0x19a>
 800a768:	6e6b      	ldr	r3, [r5, #100]	@ 0x64
 800a76a:	07d9      	lsls	r1, r3, #31
 800a76c:	d405      	bmi.n	800a77a <_vfiprintf_r+0x1fe>
 800a76e:	89ab      	ldrh	r3, [r5, #12]
 800a770:	059a      	lsls	r2, r3, #22
 800a772:	d402      	bmi.n	800a77a <_vfiprintf_r+0x1fe>
 800a774:	6da8      	ldr	r0, [r5, #88]	@ 0x58
 800a776:	f7ff fd1f 	bl	800a1b8 <__retarget_lock_release_recursive>
 800a77a:	89ab      	ldrh	r3, [r5, #12]
 800a77c:	065b      	lsls	r3, r3, #25
 800a77e:	f53f af1f 	bmi.w	800a5c0 <_vfiprintf_r+0x44>
 800a782:	9809      	ldr	r0, [sp, #36]	@ 0x24
 800a784:	e71e      	b.n	800a5c4 <_vfiprintf_r+0x48>
 800a786:	ab03      	add	r3, sp, #12
 800a788:	9300      	str	r3, [sp, #0]
 800a78a:	462a      	mov	r2, r5
 800a78c:	4b05      	ldr	r3, [pc, #20]	@ (800a7a4 <_vfiprintf_r+0x228>)
 800a78e:	a904      	add	r1, sp, #16
 800a790:	4630      	mov	r0, r6
 800a792:	f000 f879 	bl	800a888 <_printf_i>
 800a796:	e7e4      	b.n	800a762 <_vfiprintf_r+0x1e6>
 800a798:	0800e014 	.word	0x0800e014
 800a79c:	0800e01e 	.word	0x0800e01e
 800a7a0:	00000000 	.word	0x00000000
 800a7a4:	0800a557 	.word	0x0800a557
 800a7a8:	0800e01a 	.word	0x0800e01a

0800a7ac <_printf_common>:
 800a7ac:	e92d 47f0 	stmdb	sp!, {r4, r5, r6, r7, r8, r9, sl, lr}
 800a7b0:	4616      	mov	r6, r2
 800a7b2:	4698      	mov	r8, r3
 800a7b4:	688a      	ldr	r2, [r1, #8]
 800a7b6:	690b      	ldr	r3, [r1, #16]
 800a7b8:	f8dd 9020 	ldr.w	r9, [sp, #32]
 800a7bc:	4293      	cmp	r3, r2
 800a7be:	bfb8      	it	lt
 800a7c0:	4613      	movlt	r3, r2
 800a7c2:	6033      	str	r3, [r6, #0]
 800a7c4:	f891 2043 	ldrb.w	r2, [r1, #67]	@ 0x43
 800a7c8:	4607      	mov	r7, r0
 800a7ca:	460c      	mov	r4, r1
 800a7cc:	b10a      	cbz	r2, 800a7d2 <_printf_common+0x26>
 800a7ce:	3301      	adds	r3, #1
 800a7d0:	6033      	str	r3, [r6, #0]
 800a7d2:	6823      	ldr	r3, [r4, #0]
 800a7d4:	0699      	lsls	r1, r3, #26
 800a7d6:	bf42      	ittt	mi
 800a7d8:	6833      	ldrmi	r3, [r6, #0]
 800a7da:	3302      	addmi	r3, #2
 800a7dc:	6033      	strmi	r3, [r6, #0]
 800a7de:	6825      	ldr	r5, [r4, #0]
 800a7e0:	f015 0506 	ands.w	r5, r5, #6
 800a7e4:	d106      	bne.n	800a7f4 <_printf_common+0x48>
 800a7e6:	f104 0a19 	add.w	sl, r4, #25
 800a7ea:	68e3      	ldr	r3, [r4, #12]
 800a7ec:	6832      	ldr	r2, [r6, #0]
 800a7ee:	1a9b      	subs	r3, r3, r2
 800a7f0:	42ab      	cmp	r3, r5
 800a7f2:	dc26      	bgt.n	800a842 <_printf_common+0x96>
 800a7f4:	f894 3043 	ldrb.w	r3, [r4, #67]	@ 0x43
 800a7f8:	6822      	ldr	r2, [r4, #0]
 800a7fa:	3b00      	subs	r3, #0
 800a7fc:	bf18      	it	ne
 800a7fe:	2301      	movne	r3, #1
 800a800:	0692      	lsls	r2, r2, #26
 800a802:	d42b      	bmi.n	800a85c <_printf_common+0xb0>
 800a804:	f104 0243 	add.w	r2, r4, #67	@ 0x43
 800a808:	4641      	mov	r1, r8
 800a80a:	4638      	mov	r0, r7
 800a80c:	47c8      	blx	r9
 800a80e:	3001      	adds	r0, #1
 800a810:	d01e      	beq.n	800a850 <_printf_common+0xa4>
 800a812:	6823      	ldr	r3, [r4, #0]
 800a814:	6922      	ldr	r2, [r4, #16]
 800a816:	f003 0306 	and.w	r3, r3, #6
 800a81a:	2b04      	cmp	r3, #4
 800a81c:	bf02      	ittt	eq
 800a81e:	68e5      	ldreq	r5, [r4, #12]
 800a820:	6833      	ldreq	r3, [r6, #0]
 800a822:	1aed      	subeq	r5, r5, r3
 800a824:	68a3      	ldr	r3, [r4, #8]
 800a826:	bf0c      	ite	eq
 800a828:	ea25 75e5 	biceq.w	r5, r5, r5, asr #31
 800a82c:	2500      	movne	r5, #0
 800a82e:	4293      	cmp	r3, r2
 800a830:	bfc4      	itt	gt
 800a832:	1a9b      	subgt	r3, r3, r2
 800a834:	18ed      	addgt	r5, r5, r3
 800a836:	2600      	movs	r6, #0
 800a838:	341a      	adds	r4, #26
 800a83a:	42b5      	cmp	r5, r6
 800a83c:	d11a      	bne.n	800a874 <_printf_common+0xc8>
 800a83e:	2000      	movs	r0, #0
 800a840:	e008      	b.n	800a854 <_printf_common+0xa8>
 800a842:	2301      	movs	r3, #1
 800a844:	4652      	mov	r2, sl
 800a846:	4641      	mov	r1, r8
 800a848:	4638      	mov	r0, r7
 800a84a:	47c8      	blx	r9
 800a84c:	3001      	adds	r0, #1
 800a84e:	d103      	bne.n	800a858 <_printf_common+0xac>
 800a850:	f04f 30ff 	mov.w	r0, #4294967295	@ 0xffffffff
 800a854:	e8bd 87f0 	ldmia.w	sp!, {r4, r5, r6, r7, r8, r9, sl, pc}
 800a858:	3501      	adds	r5, #1
 800a85a:	e7c6      	b.n	800a7ea <_printf_common+0x3e>
 800a85c:	18e1      	adds	r1, r4, r3
 800a85e:	1c5a      	adds	r2, r3, #1
 800a860:	2030      	movs	r0, #48	@ 0x30
 800a862:	f881 0043 	strb.w	r0, [r1, #67]	@ 0x43
 800a866:	4422      	add	r2, r4
 800a868:	f894 1045 	ldrb.w	r1, [r4, #69]	@ 0x45
 800a86c:	f882 1043 	strb.w	r1, [r2, #67]	@ 0x43
 800a870:	3302      	adds	r3, #2
 800a872:	e7c7      	b.n	800a804 <_printf_common+0x58>
 800a874:	2301      	movs	r3, #1
 800a876:	4622      	mov	r2, r4
 800a878:	4641      	mov	r1, r8
 800a87a:	4638      	mov	r0, r7
 800a87c:	47c8      	blx	r9
 800a87e:	3001      	adds	r0, #1
 800a880:	d0e6      	beq.n	800a850 <_printf_common+0xa4>
 800a882:	3601      	adds	r6, #1
 800a884:	e7d9      	b.n	800a83a <_printf_common+0x8e>
	...

0800a888 <_printf_i>:
 800a888:	e92d 47ff 	stmdb	sp!, {r0, r1, r2, r3, r4, r5, r6, r7, r8, r9, sl, lr}
 800a88c:	7e0f      	ldrb	r7, [r1, #24]
 800a88e:	9e0c      	ldr	r6, [sp, #48]	@ 0x30
 800a890:	2f78      	cmp	r7, #120	@ 0x78
 800a892:	4691      	mov	r9, r2
 800a894:	4680      	mov	r8, r0
 800a896:	460c      	mov	r4, r1
 800a898:	469a      	mov	sl, r3
 800a89a:	f101 0243 	add.w	r2, r1, #67	@ 0x43
 800a89e:	d807      	bhi.n	800a8b0 <_printf_i+0x28>
 800a8a0:	2f62      	cmp	r7, #98	@ 0x62
 800a8a2:	d80a      	bhi.n	800a8ba <_printf_i+0x32>
 800a8a4:	2f00      	cmp	r7, #0
 800a8a6:	f000 80d2 	beq.w	800aa4e <_printf_i+0x1c6>
 800a8aa:	2f58      	cmp	r7, #88	@ 0x58
 800a8ac:	f000 80b9 	beq.w	800aa22 <_printf_i+0x19a>
 800a8b0:	f104 0642 	add.w	r6, r4, #66	@ 0x42
 800a8b4:	f884 7042 	strb.w	r7, [r4, #66]	@ 0x42
 800a8b8:	e03a      	b.n	800a930 <_printf_i+0xa8>
 800a8ba:	f1a7 0363 	sub.w	r3, r7, #99	@ 0x63
 800a8be:	2b15      	cmp	r3, #21
 800a8c0:	d8f6      	bhi.n	800a8b0 <_printf_i+0x28>
 800a8c2:	a101      	add	r1, pc, #4	@ (adr r1, 800a8c8 <_printf_i+0x40>)
 800a8c4:	f851 f023 	ldr.w	pc, [r1, r3, lsl #2]
 800a8c8:	0800a921 	.word	0x0800a921
 800a8cc:	0800a935 	.word	0x0800a935
 800a8d0:	0800a8b1 	.word	0x0800a8b1
 800a8d4:	0800a8b1 	.word	0x0800a8b1
 800a8d8:	0800a8b1 	.word	0x0800a8b1
 800a8dc:	0800a8b1 	.word	0x0800a8b1
 800a8e0:	0800a935 	.word	0x0800a935
 800a8e4:	0800a8b1 	.word	0x0800a8b1
 800a8e8:	0800a8b1 	.word	0x0800a8b1
 800a8ec:	0800a8b1 	.word	0x0800a8b1
 800a8f0:	0800a8b1 	.word	0x0800a8b1
 800a8f4:	0800aa35 	.word	0x0800aa35
 800a8f8:	0800a95f 	.word	0x0800a95f
 800a8fc:	0800a9ef 	.word	0x0800a9ef
 800a900:	0800a8b1 	.word	0x0800a8b1
 800a904:	0800a8b1 	.word	0x0800a8b1
 800a908:	0800aa57 	.word	0x0800aa57
 800a90c:	0800a8b1 	.word	0x0800a8b1
 800a910:	0800a95f 	.word	0x0800a95f
 800a914:	0800a8b1 	.word	0x0800a8b1
 800a918:	0800a8b1 	.word	0x0800a8b1
 800a91c:	0800a9f7 	.word	0x0800a9f7
 800a920:	6833      	ldr	r3, [r6, #0]
 800a922:	1d1a      	adds	r2, r3, #4
 800a924:	681b      	ldr	r3, [r3, #0]
 800a926:	6032      	str	r2, [r6, #0]
 800a928:	f104 0642 	add.w	r6, r4, #66	@ 0x42
 800a92c:	f884 3042 	strb.w	r3, [r4, #66]	@ 0x42
 800a930:	2301      	movs	r3, #1
 800a932:	e09d      	b.n	800aa70 <_printf_i+0x1e8>
 800a934:	6833      	ldr	r3, [r6, #0]
 800a936:	6820      	ldr	r0, [r4, #0]
 800a938:	1d19      	adds	r1, r3, #4
 800a93a:	6031      	str	r1, [r6, #0]
 800a93c:	0606      	lsls	r6, r0, #24
 800a93e:	d501      	bpl.n	800a944 <_printf_i+0xbc>
 800a940:	681d      	ldr	r5, [r3, #0]
 800a942:	e003      	b.n	800a94c <_printf_i+0xc4>
 800a944:	0645      	lsls	r5, r0, #25
 800a946:	d5fb      	bpl.n	800a940 <_printf_i+0xb8>
 800a948:	f9b3 5000 	ldrsh.w	r5, [r3]
 800a94c:	2d00      	cmp	r5, #0
 800a94e:	da03      	bge.n	800a958 <_printf_i+0xd0>
 800a950:	232d      	movs	r3, #45	@ 0x2d
 800a952:	426d      	negs	r5, r5
 800a954:	f884 3043 	strb.w	r3, [r4, #67]	@ 0x43
 800a958:	4859      	ldr	r0, [pc, #356]	@ (800aac0 <_printf_i+0x238>)
 800a95a:	230a      	movs	r3, #10
 800a95c:	e011      	b.n	800a982 <_printf_i+0xfa>
 800a95e:	6821      	ldr	r1, [r4, #0]
 800a960:	6833      	ldr	r3, [r6, #0]
 800a962:	0608      	lsls	r0, r1, #24
 800a964:	f853 5b04 	ldr.w	r5, [r3], #4
 800a968:	d402      	bmi.n	800a970 <_printf_i+0xe8>
 800a96a:	0649      	lsls	r1, r1, #25
 800a96c:	bf48      	it	mi
 800a96e:	b2ad      	uxthmi	r5, r5
 800a970:	2f6f      	cmp	r7, #111	@ 0x6f
 800a972:	4853      	ldr	r0, [pc, #332]	@ (800aac0 <_printf_i+0x238>)
 800a974:	6033      	str	r3, [r6, #0]
 800a976:	bf14      	ite	ne
 800a978:	230a      	movne	r3, #10
 800a97a:	2308      	moveq	r3, #8
 800a97c:	2100      	movs	r1, #0
 800a97e:	f884 1043 	strb.w	r1, [r4, #67]	@ 0x43
 800a982:	6866      	ldr	r6, [r4, #4]
 800a984:	60a6      	str	r6, [r4, #8]
 800a986:	2e00      	cmp	r6, #0
 800a988:	bfa2      	ittt	ge
 800a98a:	6821      	ldrge	r1, [r4, #0]
 800a98c:	f021 0104 	bicge.w	r1, r1, #4
 800a990:	6021      	strge	r1, [r4, #0]
 800a992:	b90d      	cbnz	r5, 800a998 <_printf_i+0x110>
 800a994:	2e00      	cmp	r6, #0
 800a996:	d04b      	beq.n	800aa30 <_printf_i+0x1a8>
 800a998:	4616      	mov	r6, r2
 800a99a:	fbb5 f1f3 	udiv	r1, r5, r3
 800a99e:	fb03 5711 	mls	r7, r3, r1, r5
 800a9a2:	5dc7      	ldrb	r7, [r0, r7]
 800a9a4:	f806 7d01 	strb.w	r7, [r6, #-1]!
 800a9a8:	462f      	mov	r7, r5
 800a9aa:	42bb      	cmp	r3, r7
 800a9ac:	460d      	mov	r5, r1
 800a9ae:	d9f4      	bls.n	800a99a <_printf_i+0x112>
 800a9b0:	2b08      	cmp	r3, #8
 800a9b2:	d10b      	bne.n	800a9cc <_printf_i+0x144>
 800a9b4:	6823      	ldr	r3, [r4, #0]
 800a9b6:	07df      	lsls	r7, r3, #31
 800a9b8:	d508      	bpl.n	800a9cc <_printf_i+0x144>
 800a9ba:	6923      	ldr	r3, [r4, #16]
 800a9bc:	6861      	ldr	r1, [r4, #4]
 800a9be:	4299      	cmp	r1, r3
 800a9c0:	bfde      	ittt	le
 800a9c2:	2330      	movle	r3, #48	@ 0x30
 800a9c4:	f806 3c01 	strble.w	r3, [r6, #-1]
 800a9c8:	f106 36ff 	addle.w	r6, r6, #4294967295	@ 0xffffffff
 800a9cc:	1b92      	subs	r2, r2, r6
 800a9ce:	6122      	str	r2, [r4, #16]
 800a9d0:	f8cd a000 	str.w	sl, [sp]
 800a9d4:	464b      	mov	r3, r9
 800a9d6:	aa03      	add	r2, sp, #12
 800a9d8:	4621      	mov	r1, r4
 800a9da:	4640      	mov	r0, r8
 800a9dc:	f7ff fee6 	bl	800a7ac <_printf_common>
 800a9e0:	3001      	adds	r0, #1
 800a9e2:	d14a      	bne.n	800aa7a <_printf_i+0x1f2>
 800a9e4:	f04f 30ff 	mov.w	r0, #4294967295	@ 0xffffffff
 800a9e8:	b004      	add	sp, #16
 800a9ea:	e8bd 87f0 	ldmia.w	sp!, {r4, r5, r6, r7, r8, r9, sl, pc}
 800a9ee:	6823      	ldr	r3, [r4, #0]
 800a9f0:	f043 0320 	orr.w	r3, r3, #32
 800a9f4:	6023      	str	r3, [r4, #0]
 800a9f6:	4833      	ldr	r0, [pc, #204]	@ (800aac4 <_printf_i+0x23c>)
 800a9f8:	2778      	movs	r7, #120	@ 0x78
 800a9fa:	f884 7045 	strb.w	r7, [r4, #69]	@ 0x45
 800a9fe:	6823      	ldr	r3, [r4, #0]
 800aa00:	6831      	ldr	r1, [r6, #0]
 800aa02:	061f      	lsls	r7, r3, #24
 800aa04:	f851 5b04 	ldr.w	r5, [r1], #4
 800aa08:	d402      	bmi.n	800aa10 <_printf_i+0x188>
 800aa0a:	065f      	lsls	r7, r3, #25
 800aa0c:	bf48      	it	mi
 800aa0e:	b2ad      	uxthmi	r5, r5
 800aa10:	6031      	str	r1, [r6, #0]
 800aa12:	07d9      	lsls	r1, r3, #31
 800aa14:	bf44      	itt	mi
 800aa16:	f043 0320 	orrmi.w	r3, r3, #32
 800aa1a:	6023      	strmi	r3, [r4, #0]
 800aa1c:	b11d      	cbz	r5, 800aa26 <_printf_i+0x19e>
 800aa1e:	2310      	movs	r3, #16
 800aa20:	e7ac      	b.n	800a97c <_printf_i+0xf4>
 800aa22:	4827      	ldr	r0, [pc, #156]	@ (800aac0 <_printf_i+0x238>)
 800aa24:	e7e9      	b.n	800a9fa <_printf_i+0x172>
 800aa26:	6823      	ldr	r3, [r4, #0]
 800aa28:	f023 0320 	bic.w	r3, r3, #32
 800aa2c:	6023      	str	r3, [r4, #0]
 800aa2e:	e7f6      	b.n	800aa1e <_printf_i+0x196>
 800aa30:	4616      	mov	r6, r2
 800aa32:	e7bd      	b.n	800a9b0 <_printf_i+0x128>
 800aa34:	6833      	ldr	r3, [r6, #0]
 800aa36:	6825      	ldr	r5, [r4, #0]
 800aa38:	6961      	ldr	r1, [r4, #20]
 800aa3a:	1d18      	adds	r0, r3, #4
 800aa3c:	6030      	str	r0, [r6, #0]
 800aa3e:	062e      	lsls	r6, r5, #24
 800aa40:	681b      	ldr	r3, [r3, #0]
 800aa42:	d501      	bpl.n	800aa48 <_printf_i+0x1c0>
 800aa44:	6019      	str	r1, [r3, #0]
 800aa46:	e002      	b.n	800aa4e <_printf_i+0x1c6>
 800aa48:	0668      	lsls	r0, r5, #25
 800aa4a:	d5fb      	bpl.n	800aa44 <_printf_i+0x1bc>
 800aa4c:	8019      	strh	r1, [r3, #0]
 800aa4e:	2300      	movs	r3, #0
 800aa50:	6123      	str	r3, [r4, #16]
 800aa52:	4616      	mov	r6, r2
 800aa54:	e7bc      	b.n	800a9d0 <_printf_i+0x148>
 800aa56:	6833      	ldr	r3, [r6, #0]
 800aa58:	1d1a      	adds	r2, r3, #4
 800aa5a:	6032      	str	r2, [r6, #0]
 800aa5c:	681e      	ldr	r6, [r3, #0]
 800aa5e:	6862      	ldr	r2, [r4, #4]
 800aa60:	2100      	movs	r1, #0
 800aa62:	4630      	mov	r0, r6
 800aa64:	f7f5 fc3c 	bl	80002e0 <memchr>
 800aa68:	b108      	cbz	r0, 800aa6e <_printf_i+0x1e6>
 800aa6a:	1b80      	subs	r0, r0, r6
 800aa6c:	6060      	str	r0, [r4, #4]
 800aa6e:	6863      	ldr	r3, [r4, #4]
 800aa70:	6123      	str	r3, [r4, #16]
 800aa72:	2300      	movs	r3, #0
 800aa74:	f884 3043 	strb.w	r3, [r4, #67]	@ 0x43
 800aa78:	e7aa      	b.n	800a9d0 <_printf_i+0x148>
 800aa7a:	6923      	ldr	r3, [r4, #16]
 800aa7c:	4632      	mov	r2, r6
 800aa7e:	4649      	mov	r1, r9
 800aa80:	4640      	mov	r0, r8
 800aa82:	47d0      	blx	sl
 800aa84:	3001      	adds	r0, #1
 800aa86:	d0ad      	beq.n	800a9e4 <_printf_i+0x15c>
 800aa88:	6823      	ldr	r3, [r4, #0]
 800aa8a:	079b      	lsls	r3, r3, #30
 800aa8c:	d413      	bmi.n	800aab6 <_printf_i+0x22e>
 800aa8e:	68e0      	ldr	r0, [r4, #12]
 800aa90:	9b03      	ldr	r3, [sp, #12]
 800aa92:	4298      	cmp	r0, r3
 800aa94:	bfb8      	it	lt
 800aa96:	4618      	movlt	r0, r3
 800aa98:	e7a6      	b.n	800a9e8 <_printf_i+0x160>
 800aa9a:	2301      	movs	r3, #1
 800aa9c:	4632      	mov	r2, r6
 800aa9e:	4649      	mov	r1, r9
 800aaa0:	4640      	mov	r0, r8
 800aaa2:	47d0      	blx	sl
 800aaa4:	3001      	adds	r0, #1
 800aaa6:	d09d      	beq.n	800a9e4 <_printf_i+0x15c>
 800aaa8:	3501      	adds	r5, #1
 800aaaa:	68e3      	ldr	r3, [r4, #12]
 800aaac:	9903      	ldr	r1, [sp, #12]
 800aaae:	1a5b      	subs	r3, r3, r1
 800aab0:	42ab      	cmp	r3, r5
 800aab2:	dcf2      	bgt.n	800aa9a <_printf_i+0x212>
 800aab4:	e7eb      	b.n	800aa8e <_printf_i+0x206>
 800aab6:	2500      	movs	r5, #0
 800aab8:	f104 0619 	add.w	r6, r4, #25
 800aabc:	e7f5      	b.n	800aaaa <_printf_i+0x222>
 800aabe:	bf00      	nop
 800aac0:	0800e025 	.word	0x0800e025
 800aac4:	0800e036 	.word	0x0800e036

0800aac8 <__sflush_r>:
 800aac8:	f9b1 200c 	ldrsh.w	r2, [r1, #12]
 800aacc:	e92d 41f0 	stmdb	sp!, {r4, r5, r6, r7, r8, lr}
 800aad0:	0716      	lsls	r6, r2, #28
 800aad2:	4605      	mov	r5, r0
 800aad4:	460c      	mov	r4, r1
 800aad6:	d454      	bmi.n	800ab82 <__sflush_r+0xba>
 800aad8:	684b      	ldr	r3, [r1, #4]
 800aada:	2b00      	cmp	r3, #0
 800aadc:	dc02      	bgt.n	800aae4 <__sflush_r+0x1c>
 800aade:	6c0b      	ldr	r3, [r1, #64]	@ 0x40
 800aae0:	2b00      	cmp	r3, #0
 800aae2:	dd48      	ble.n	800ab76 <__sflush_r+0xae>
 800aae4:	6ae6      	ldr	r6, [r4, #44]	@ 0x2c
 800aae6:	2e00      	cmp	r6, #0
 800aae8:	d045      	beq.n	800ab76 <__sflush_r+0xae>
 800aaea:	2300      	movs	r3, #0
 800aaec:	f412 5280 	ands.w	r2, r2, #4096	@ 0x1000
 800aaf0:	682f      	ldr	r7, [r5, #0]
 800aaf2:	6a21      	ldr	r1, [r4, #32]
 800aaf4:	602b      	str	r3, [r5, #0]
 800aaf6:	d030      	beq.n	800ab5a <__sflush_r+0x92>
 800aaf8:	6d62      	ldr	r2, [r4, #84]	@ 0x54
 800aafa:	89a3      	ldrh	r3, [r4, #12]
 800aafc:	0759      	lsls	r1, r3, #29
 800aafe:	d505      	bpl.n	800ab0c <__sflush_r+0x44>
 800ab00:	6863      	ldr	r3, [r4, #4]
 800ab02:	1ad2      	subs	r2, r2, r3
 800ab04:	6b63      	ldr	r3, [r4, #52]	@ 0x34
 800ab06:	b10b      	cbz	r3, 800ab0c <__sflush_r+0x44>
 800ab08:	6c23      	ldr	r3, [r4, #64]	@ 0x40
 800ab0a:	1ad2      	subs	r2, r2, r3
 800ab0c:	2300      	movs	r3, #0
 800ab0e:	6ae6      	ldr	r6, [r4, #44]	@ 0x2c
 800ab10:	6a21      	ldr	r1, [r4, #32]
 800ab12:	4628      	mov	r0, r5
 800ab14:	47b0      	blx	r6
 800ab16:	1c43      	adds	r3, r0, #1
 800ab18:	89a3      	ldrh	r3, [r4, #12]
 800ab1a:	d106      	bne.n	800ab2a <__sflush_r+0x62>
 800ab1c:	6829      	ldr	r1, [r5, #0]
 800ab1e:	291d      	cmp	r1, #29
 800ab20:	d82b      	bhi.n	800ab7a <__sflush_r+0xb2>
 800ab22:	4a2a      	ldr	r2, [pc, #168]	@ (800abcc <__sflush_r+0x104>)
 800ab24:	410a      	asrs	r2, r1
 800ab26:	07d6      	lsls	r6, r2, #31
 800ab28:	d427      	bmi.n	800ab7a <__sflush_r+0xb2>
 800ab2a:	2200      	movs	r2, #0
 800ab2c:	6062      	str	r2, [r4, #4]
 800ab2e:	04d9      	lsls	r1, r3, #19
 800ab30:	6922      	ldr	r2, [r4, #16]
 800ab32:	6022      	str	r2, [r4, #0]
 800ab34:	d504      	bpl.n	800ab40 <__sflush_r+0x78>
 800ab36:	1c42      	adds	r2, r0, #1
 800ab38:	d101      	bne.n	800ab3e <__sflush_r+0x76>
 800ab3a:	682b      	ldr	r3, [r5, #0]
 800ab3c:	b903      	cbnz	r3, 800ab40 <__sflush_r+0x78>
 800ab3e:	6560      	str	r0, [r4, #84]	@ 0x54
 800ab40:	6b61      	ldr	r1, [r4, #52]	@ 0x34
 800ab42:	602f      	str	r7, [r5, #0]
 800ab44:	b1b9      	cbz	r1, 800ab76 <__sflush_r+0xae>
 800ab46:	f104 0344 	add.w	r3, r4, #68	@ 0x44
 800ab4a:	4299      	cmp	r1, r3
 800ab4c:	d002      	beq.n	800ab54 <__sflush_r+0x8c>
 800ab4e:	4628      	mov	r0, r5
 800ab50:	f7ff fb48 	bl	800a1e4 <_free_r>
 800ab54:	2300      	movs	r3, #0
 800ab56:	6363      	str	r3, [r4, #52]	@ 0x34
 800ab58:	e00d      	b.n	800ab76 <__sflush_r+0xae>
 800ab5a:	2301      	movs	r3, #1
 800ab5c:	4628      	mov	r0, r5
 800ab5e:	47b0      	blx	r6
 800ab60:	4602      	mov	r2, r0
 800ab62:	1c50      	adds	r0, r2, #1
 800ab64:	d1c9      	bne.n	800aafa <__sflush_r+0x32>
 800ab66:	682b      	ldr	r3, [r5, #0]
 800ab68:	2b00      	cmp	r3, #0
 800ab6a:	d0c6      	beq.n	800aafa <__sflush_r+0x32>
 800ab6c:	2b1d      	cmp	r3, #29
 800ab6e:	d001      	beq.n	800ab74 <__sflush_r+0xac>
 800ab70:	2b16      	cmp	r3, #22
 800ab72:	d11e      	bne.n	800abb2 <__sflush_r+0xea>
 800ab74:	602f      	str	r7, [r5, #0]
 800ab76:	2000      	movs	r0, #0
 800ab78:	e022      	b.n	800abc0 <__sflush_r+0xf8>
 800ab7a:	f043 0340 	orr.w	r3, r3, #64	@ 0x40
 800ab7e:	b21b      	sxth	r3, r3
 800ab80:	e01b      	b.n	800abba <__sflush_r+0xf2>
 800ab82:	690f      	ldr	r7, [r1, #16]
 800ab84:	2f00      	cmp	r7, #0
 800ab86:	d0f6      	beq.n	800ab76 <__sflush_r+0xae>
 800ab88:	0793      	lsls	r3, r2, #30
 800ab8a:	680e      	ldr	r6, [r1, #0]
 800ab8c:	bf08      	it	eq
 800ab8e:	694b      	ldreq	r3, [r1, #20]
 800ab90:	600f      	str	r7, [r1, #0]
 800ab92:	bf18      	it	ne
 800ab94:	2300      	movne	r3, #0
 800ab96:	eba6 0807 	sub.w	r8, r6, r7
 800ab9a:	608b      	str	r3, [r1, #8]
 800ab9c:	f1b8 0f00 	cmp.w	r8, #0
 800aba0:	dde9      	ble.n	800ab76 <__sflush_r+0xae>
 800aba2:	6a21      	ldr	r1, [r4, #32]
 800aba4:	6aa6      	ldr	r6, [r4, #40]	@ 0x28
 800aba6:	4643      	mov	r3, r8
 800aba8:	463a      	mov	r2, r7
 800abaa:	4628      	mov	r0, r5
 800abac:	47b0      	blx	r6
 800abae:	2800      	cmp	r0, #0
 800abb0:	dc08      	bgt.n	800abc4 <__sflush_r+0xfc>
 800abb2:	f9b4 300c 	ldrsh.w	r3, [r4, #12]
 800abb6:	f043 0340 	orr.w	r3, r3, #64	@ 0x40
 800abba:	81a3      	strh	r3, [r4, #12]
 800abbc:	f04f 30ff 	mov.w	r0, #4294967295	@ 0xffffffff
 800abc0:	e8bd 81f0 	ldmia.w	sp!, {r4, r5, r6, r7, r8, pc}
 800abc4:	4407      	add	r7, r0
 800abc6:	eba8 0800 	sub.w	r8, r8, r0
 800abca:	e7e7      	b.n	800ab9c <__sflush_r+0xd4>
 800abcc:	dfbffffe 	.word	0xdfbffffe

0800abd0 <_fflush_r>:
 800abd0:	b538      	push	{r3, r4, r5, lr}
 800abd2:	690b      	ldr	r3, [r1, #16]
 800abd4:	4605      	mov	r5, r0
 800abd6:	460c      	mov	r4, r1
 800abd8:	b913      	cbnz	r3, 800abe0 <_fflush_r+0x10>
 800abda:	2500      	movs	r5, #0
 800abdc:	4628      	mov	r0, r5
 800abde:	bd38      	pop	{r3, r4, r5, pc}
 800abe0:	b118      	cbz	r0, 800abea <_fflush_r+0x1a>
 800abe2:	6a03      	ldr	r3, [r0, #32]
 800abe4:	b90b      	cbnz	r3, 800abea <_fflush_r+0x1a>
 800abe6:	f7ff fa5b 	bl	800a0a0 <__sinit>
 800abea:	f9b4 300c 	ldrsh.w	r3, [r4, #12]
 800abee:	2b00      	cmp	r3, #0
 800abf0:	d0f3      	beq.n	800abda <_fflush_r+0xa>
 800abf2:	6e62      	ldr	r2, [r4, #100]	@ 0x64
 800abf4:	07d0      	lsls	r0, r2, #31
 800abf6:	d404      	bmi.n	800ac02 <_fflush_r+0x32>
 800abf8:	0599      	lsls	r1, r3, #22
 800abfa:	d402      	bmi.n	800ac02 <_fflush_r+0x32>
 800abfc:	6da0      	ldr	r0, [r4, #88]	@ 0x58
 800abfe:	f7ff fada 	bl	800a1b6 <__retarget_lock_acquire_recursive>
 800ac02:	4628      	mov	r0, r5
 800ac04:	4621      	mov	r1, r4
 800ac06:	f7ff ff5f 	bl	800aac8 <__sflush_r>
 800ac0a:	6e63      	ldr	r3, [r4, #100]	@ 0x64
 800ac0c:	07da      	lsls	r2, r3, #31
 800ac0e:	4605      	mov	r5, r0
 800ac10:	d4e4      	bmi.n	800abdc <_fflush_r+0xc>
 800ac12:	89a3      	ldrh	r3, [r4, #12]
 800ac14:	059b      	lsls	r3, r3, #22
 800ac16:	d4e1      	bmi.n	800abdc <_fflush_r+0xc>
 800ac18:	6da0      	ldr	r0, [r4, #88]	@ 0x58
 800ac1a:	f7ff facd 	bl	800a1b8 <__retarget_lock_release_recursive>
 800ac1e:	e7dd      	b.n	800abdc <_fflush_r+0xc>

0800ac20 <__sread>:
 800ac20:	b510      	push	{r4, lr}
 800ac22:	460c      	mov	r4, r1
 800ac24:	f9b1 100e 	ldrsh.w	r1, [r1, #14]
 800ac28:	f000 f9f0 	bl	800b00c <_read_r>
 800ac2c:	2800      	cmp	r0, #0
 800ac2e:	bfab      	itete	ge
 800ac30:	6d63      	ldrge	r3, [r4, #84]	@ 0x54
 800ac32:	89a3      	ldrhlt	r3, [r4, #12]
 800ac34:	181b      	addge	r3, r3, r0
 800ac36:	f423 5380 	biclt.w	r3, r3, #4096	@ 0x1000
 800ac3a:	bfac      	ite	ge
 800ac3c:	6563      	strge	r3, [r4, #84]	@ 0x54
 800ac3e:	81a3      	strhlt	r3, [r4, #12]
 800ac40:	bd10      	pop	{r4, pc}

0800ac42 <__swrite>:
 800ac42:	e92d 41f0 	stmdb	sp!, {r4, r5, r6, r7, r8, lr}
 800ac46:	461f      	mov	r7, r3
 800ac48:	898b      	ldrh	r3, [r1, #12]
 800ac4a:	05db      	lsls	r3, r3, #23
 800ac4c:	4605      	mov	r5, r0
 800ac4e:	460c      	mov	r4, r1
 800ac50:	4616      	mov	r6, r2
 800ac52:	d505      	bpl.n	800ac60 <__swrite+0x1e>
 800ac54:	f9b1 100e 	ldrsh.w	r1, [r1, #14]
 800ac58:	2302      	movs	r3, #2
 800ac5a:	2200      	movs	r2, #0
 800ac5c:	f000 f994 	bl	800af88 <_lseek_r>
 800ac60:	89a3      	ldrh	r3, [r4, #12]
 800ac62:	f9b4 100e 	ldrsh.w	r1, [r4, #14]
 800ac66:	f423 5380 	bic.w	r3, r3, #4096	@ 0x1000
 800ac6a:	81a3      	strh	r3, [r4, #12]
 800ac6c:	4632      	mov	r2, r6
 800ac6e:	463b      	mov	r3, r7
 800ac70:	4628      	mov	r0, r5
 800ac72:	e8bd 41f0 	ldmia.w	sp!, {r4, r5, r6, r7, r8, lr}
 800ac76:	f000 b9ef 	b.w	800b058 <_write_r>

0800ac7a <__sseek>:
 800ac7a:	b510      	push	{r4, lr}
 800ac7c:	460c      	mov	r4, r1
 800ac7e:	f9b1 100e 	ldrsh.w	r1, [r1, #14]
 800ac82:	f000 f981 	bl	800af88 <_lseek_r>
 800ac86:	1c43      	adds	r3, r0, #1
 800ac88:	89a3      	ldrh	r3, [r4, #12]
 800ac8a:	bf15      	itete	ne
 800ac8c:	6560      	strne	r0, [r4, #84]	@ 0x54
 800ac8e:	f423 5380 	biceq.w	r3, r3, #4096	@ 0x1000
 800ac92:	f443 5380 	orrne.w	r3, r3, #4096	@ 0x1000
 800ac96:	81a3      	strheq	r3, [r4, #12]
 800ac98:	bf18      	it	ne
 800ac9a:	81a3      	strhne	r3, [r4, #12]
 800ac9c:	bd10      	pop	{r4, pc}

0800ac9e <__sclose>:
 800ac9e:	f9b1 100e 	ldrsh.w	r1, [r1, #14]
 800aca2:	f000 b93f 	b.w	800af24 <_close_r>

0800aca6 <_realloc_r>:
 800aca6:	e92d 41f0 	stmdb	sp!, {r4, r5, r6, r7, r8, lr}
 800acaa:	4680      	mov	r8, r0
 800acac:	4615      	mov	r5, r2
 800acae:	460c      	mov	r4, r1
 800acb0:	b921      	cbnz	r1, 800acbc <_realloc_r+0x16>
 800acb2:	e8bd 41f0 	ldmia.w	sp!, {r4, r5, r6, r7, r8, lr}
 800acb6:	4611      	mov	r1, r2
 800acb8:	f7ff b8ba 	b.w	8009e30 <_malloc_r>
 800acbc:	b92a      	cbnz	r2, 800acca <_realloc_r+0x24>
 800acbe:	f7ff fa91 	bl	800a1e4 <_free_r>
 800acc2:	2400      	movs	r4, #0
 800acc4:	4620      	mov	r0, r4
 800acc6:	e8bd 81f0 	ldmia.w	sp!, {r4, r5, r6, r7, r8, pc}
 800acca:	f000 f9d7 	bl	800b07c <_malloc_usable_size_r>
 800acce:	4285      	cmp	r5, r0
 800acd0:	4606      	mov	r6, r0
 800acd2:	d802      	bhi.n	800acda <_realloc_r+0x34>
 800acd4:	ebb5 0f50 	cmp.w	r5, r0, lsr #1
 800acd8:	d8f4      	bhi.n	800acc4 <_realloc_r+0x1e>
 800acda:	4629      	mov	r1, r5
 800acdc:	4640      	mov	r0, r8
 800acde:	f7ff f8a7 	bl	8009e30 <_malloc_r>
 800ace2:	4607      	mov	r7, r0
 800ace4:	2800      	cmp	r0, #0
 800ace6:	d0ec      	beq.n	800acc2 <_realloc_r+0x1c>
 800ace8:	42b5      	cmp	r5, r6
 800acea:	462a      	mov	r2, r5
 800acec:	4621      	mov	r1, r4
 800acee:	bf28      	it	cs
 800acf0:	4632      	movcs	r2, r6
 800acf2:	f7ff fa62 	bl	800a1ba <memcpy>
 800acf6:	4621      	mov	r1, r4
 800acf8:	4640      	mov	r0, r8
 800acfa:	f7ff fa73 	bl	800a1e4 <_free_r>
 800acfe:	463c      	mov	r4, r7
 800ad00:	e7e0      	b.n	800acc4 <_realloc_r+0x1e>

0800ad02 <__swbuf_r>:
 800ad02:	b5f8      	push	{r3, r4, r5, r6, r7, lr}
 800ad04:	460e      	mov	r6, r1
 800ad06:	4614      	mov	r4, r2
 800ad08:	4605      	mov	r5, r0
 800ad0a:	b118      	cbz	r0, 800ad14 <__swbuf_r+0x12>
 800ad0c:	6a03      	ldr	r3, [r0, #32]
 800ad0e:	b90b      	cbnz	r3, 800ad14 <__swbuf_r+0x12>
 800ad10:	f7ff f9c6 	bl	800a0a0 <__sinit>
 800ad14:	69a3      	ldr	r3, [r4, #24]
 800ad16:	60a3      	str	r3, [r4, #8]
 800ad18:	89a3      	ldrh	r3, [r4, #12]
 800ad1a:	071a      	lsls	r2, r3, #28
 800ad1c:	d501      	bpl.n	800ad22 <__swbuf_r+0x20>
 800ad1e:	6923      	ldr	r3, [r4, #16]
 800ad20:	b943      	cbnz	r3, 800ad34 <__swbuf_r+0x32>
 800ad22:	4621      	mov	r1, r4
 800ad24:	4628      	mov	r0, r5
 800ad26:	f000 f82b 	bl	800ad80 <__swsetup_r>
 800ad2a:	b118      	cbz	r0, 800ad34 <__swbuf_r+0x32>
 800ad2c:	f04f 37ff 	mov.w	r7, #4294967295	@ 0xffffffff
 800ad30:	4638      	mov	r0, r7
 800ad32:	bdf8      	pop	{r3, r4, r5, r6, r7, pc}
 800ad34:	6823      	ldr	r3, [r4, #0]
 800ad36:	6922      	ldr	r2, [r4, #16]
 800ad38:	1a98      	subs	r0, r3, r2
 800ad3a:	6963      	ldr	r3, [r4, #20]
 800ad3c:	b2f6      	uxtb	r6, r6
 800ad3e:	4283      	cmp	r3, r0
 800ad40:	4637      	mov	r7, r6
 800ad42:	dc05      	bgt.n	800ad50 <__swbuf_r+0x4e>
 800ad44:	4621      	mov	r1, r4
 800ad46:	4628      	mov	r0, r5
 800ad48:	f7ff ff42 	bl	800abd0 <_fflush_r>
 800ad4c:	2800      	cmp	r0, #0
 800ad4e:	d1ed      	bne.n	800ad2c <__swbuf_r+0x2a>
 800ad50:	68a3      	ldr	r3, [r4, #8]
 800ad52:	3b01      	subs	r3, #1
 800ad54:	60a3      	str	r3, [r4, #8]
 800ad56:	6823      	ldr	r3, [r4, #0]
 800ad58:	1c5a      	adds	r2, r3, #1
 800ad5a:	6022      	str	r2, [r4, #0]
 800ad5c:	701e      	strb	r6, [r3, #0]
 800ad5e:	6962      	ldr	r2, [r4, #20]
 800ad60:	1c43      	adds	r3, r0, #1
 800ad62:	429a      	cmp	r2, r3
 800ad64:	d004      	beq.n	800ad70 <__swbuf_r+0x6e>
 800ad66:	89a3      	ldrh	r3, [r4, #12]
 800ad68:	07db      	lsls	r3, r3, #31
 800ad6a:	d5e1      	bpl.n	800ad30 <__swbuf_r+0x2e>
 800ad6c:	2e0a      	cmp	r6, #10
 800ad6e:	d1df      	bne.n	800ad30 <__swbuf_r+0x2e>
 800ad70:	4621      	mov	r1, r4
 800ad72:	4628      	mov	r0, r5
 800ad74:	f7ff ff2c 	bl	800abd0 <_fflush_r>
 800ad78:	2800      	cmp	r0, #0
 800ad7a:	d0d9      	beq.n	800ad30 <__swbuf_r+0x2e>
 800ad7c:	e7d6      	b.n	800ad2c <__swbuf_r+0x2a>
	...

0800ad80 <__swsetup_r>:
 800ad80:	b538      	push	{r3, r4, r5, lr}
 800ad82:	4b29      	ldr	r3, [pc, #164]	@ (800ae28 <__swsetup_r+0xa8>)
 800ad84:	4605      	mov	r5, r0
 800ad86:	6818      	ldr	r0, [r3, #0]
 800ad88:	460c      	mov	r4, r1
 800ad8a:	b118      	cbz	r0, 800ad94 <__swsetup_r+0x14>
 800ad8c:	6a03      	ldr	r3, [r0, #32]
 800ad8e:	b90b      	cbnz	r3, 800ad94 <__swsetup_r+0x14>
 800ad90:	f7ff f986 	bl	800a0a0 <__sinit>
 800ad94:	f9b4 300c 	ldrsh.w	r3, [r4, #12]
 800ad98:	0719      	lsls	r1, r3, #28
 800ad9a:	d422      	bmi.n	800ade2 <__swsetup_r+0x62>
 800ad9c:	06da      	lsls	r2, r3, #27
 800ad9e:	d407      	bmi.n	800adb0 <__swsetup_r+0x30>
 800ada0:	2209      	movs	r2, #9
 800ada2:	602a      	str	r2, [r5, #0]
 800ada4:	f043 0340 	orr.w	r3, r3, #64	@ 0x40
 800ada8:	81a3      	strh	r3, [r4, #12]
 800adaa:	f04f 30ff 	mov.w	r0, #4294967295	@ 0xffffffff
 800adae:	e033      	b.n	800ae18 <__swsetup_r+0x98>
 800adb0:	0758      	lsls	r0, r3, #29
 800adb2:	d512      	bpl.n	800adda <__swsetup_r+0x5a>
 800adb4:	6b61      	ldr	r1, [r4, #52]	@ 0x34
 800adb6:	b141      	cbz	r1, 800adca <__swsetup_r+0x4a>
 800adb8:	f104 0344 	add.w	r3, r4, #68	@ 0x44
 800adbc:	4299      	cmp	r1, r3
 800adbe:	d002      	beq.n	800adc6 <__swsetup_r+0x46>
 800adc0:	4628      	mov	r0, r5
 800adc2:	f7ff fa0f 	bl	800a1e4 <_free_r>
 800adc6:	2300      	movs	r3, #0
 800adc8:	6363      	str	r3, [r4, #52]	@ 0x34
 800adca:	89a3      	ldrh	r3, [r4, #12]
 800adcc:	f023 0324 	bic.w	r3, r3, #36	@ 0x24
 800add0:	81a3      	strh	r3, [r4, #12]
 800add2:	2300      	movs	r3, #0
 800add4:	6063      	str	r3, [r4, #4]
 800add6:	6923      	ldr	r3, [r4, #16]
 800add8:	6023      	str	r3, [r4, #0]
 800adda:	89a3      	ldrh	r3, [r4, #12]
 800addc:	f043 0308 	orr.w	r3, r3, #8
 800ade0:	81a3      	strh	r3, [r4, #12]
 800ade2:	6923      	ldr	r3, [r4, #16]
 800ade4:	b94b      	cbnz	r3, 800adfa <__swsetup_r+0x7a>
 800ade6:	89a3      	ldrh	r3, [r4, #12]
 800ade8:	f403 7320 	and.w	r3, r3, #640	@ 0x280
 800adec:	f5b3 7f00 	cmp.w	r3, #512	@ 0x200
 800adf0:	d003      	beq.n	800adfa <__swsetup_r+0x7a>
 800adf2:	4621      	mov	r1, r4
 800adf4:	4628      	mov	r0, r5
 800adf6:	f000 f83f 	bl	800ae78 <__smakebuf_r>
 800adfa:	f9b4 300c 	ldrsh.w	r3, [r4, #12]
 800adfe:	f013 0201 	ands.w	r2, r3, #1
 800ae02:	d00a      	beq.n	800ae1a <__swsetup_r+0x9a>
 800ae04:	2200      	movs	r2, #0
 800ae06:	60a2      	str	r2, [r4, #8]
 800ae08:	6962      	ldr	r2, [r4, #20]
 800ae0a:	4252      	negs	r2, r2
 800ae0c:	61a2      	str	r2, [r4, #24]
 800ae0e:	6922      	ldr	r2, [r4, #16]
 800ae10:	b942      	cbnz	r2, 800ae24 <__swsetup_r+0xa4>
 800ae12:	f013 0080 	ands.w	r0, r3, #128	@ 0x80
 800ae16:	d1c5      	bne.n	800ada4 <__swsetup_r+0x24>
 800ae18:	bd38      	pop	{r3, r4, r5, pc}
 800ae1a:	0799      	lsls	r1, r3, #30
 800ae1c:	bf58      	it	pl
 800ae1e:	6962      	ldrpl	r2, [r4, #20]
 800ae20:	60a2      	str	r2, [r4, #8]
 800ae22:	e7f4      	b.n	800ae0e <__swsetup_r+0x8e>
 800ae24:	2000      	movs	r0, #0
 800ae26:	e7f7      	b.n	800ae18 <__swsetup_r+0x98>
 800ae28:	2400001c 	.word	0x2400001c

0800ae2c <__swhatbuf_r>:
 800ae2c:	b570      	push	{r4, r5, r6, lr}
 800ae2e:	460c      	mov	r4, r1
 800ae30:	f9b1 100e 	ldrsh.w	r1, [r1, #14]
 800ae34:	2900      	cmp	r1, #0
 800ae36:	b096      	sub	sp, #88	@ 0x58
 800ae38:	4615      	mov	r5, r2
 800ae3a:	461e      	mov	r6, r3
 800ae3c:	da0d      	bge.n	800ae5a <__swhatbuf_r+0x2e>
 800ae3e:	89a3      	ldrh	r3, [r4, #12]
 800ae40:	f013 0f80 	tst.w	r3, #128	@ 0x80
 800ae44:	f04f 0100 	mov.w	r1, #0
 800ae48:	bf14      	ite	ne
 800ae4a:	2340      	movne	r3, #64	@ 0x40
 800ae4c:	f44f 6380 	moveq.w	r3, #1024	@ 0x400
 800ae50:	2000      	movs	r0, #0
 800ae52:	6031      	str	r1, [r6, #0]
 800ae54:	602b      	str	r3, [r5, #0]
 800ae56:	b016      	add	sp, #88	@ 0x58
 800ae58:	bd70      	pop	{r4, r5, r6, pc}
 800ae5a:	466a      	mov	r2, sp
 800ae5c:	f000 f872 	bl	800af44 <_fstat_r>
 800ae60:	2800      	cmp	r0, #0
 800ae62:	dbec      	blt.n	800ae3e <__swhatbuf_r+0x12>
 800ae64:	9901      	ldr	r1, [sp, #4]
 800ae66:	f401 4170 	and.w	r1, r1, #61440	@ 0xf000
 800ae6a:	f5a1 5300 	sub.w	r3, r1, #8192	@ 0x2000
 800ae6e:	4259      	negs	r1, r3
 800ae70:	4159      	adcs	r1, r3
 800ae72:	f44f 6380 	mov.w	r3, #1024	@ 0x400
 800ae76:	e7eb      	b.n	800ae50 <__swhatbuf_r+0x24>

0800ae78 <__smakebuf_r>:
 800ae78:	898b      	ldrh	r3, [r1, #12]
 800ae7a:	b5f7      	push	{r0, r1, r2, r4, r5, r6, r7, lr}
 800ae7c:	079d      	lsls	r5, r3, #30
 800ae7e:	4606      	mov	r6, r0
 800ae80:	460c      	mov	r4, r1
 800ae82:	d507      	bpl.n	800ae94 <__smakebuf_r+0x1c>
 800ae84:	f104 0347 	add.w	r3, r4, #71	@ 0x47
 800ae88:	6023      	str	r3, [r4, #0]
 800ae8a:	6123      	str	r3, [r4, #16]
 800ae8c:	2301      	movs	r3, #1
 800ae8e:	6163      	str	r3, [r4, #20]
 800ae90:	b003      	add	sp, #12
 800ae92:	bdf0      	pop	{r4, r5, r6, r7, pc}
 800ae94:	ab01      	add	r3, sp, #4
 800ae96:	466a      	mov	r2, sp
 800ae98:	f7ff ffc8 	bl	800ae2c <__swhatbuf_r>
 800ae9c:	9f00      	ldr	r7, [sp, #0]
 800ae9e:	4605      	mov	r5, r0
 800aea0:	4639      	mov	r1, r7
 800aea2:	4630      	mov	r0, r6
 800aea4:	f7fe ffc4 	bl	8009e30 <_malloc_r>
 800aea8:	b948      	cbnz	r0, 800aebe <__smakebuf_r+0x46>
 800aeaa:	f9b4 300c 	ldrsh.w	r3, [r4, #12]
 800aeae:	059a      	lsls	r2, r3, #22
 800aeb0:	d4ee      	bmi.n	800ae90 <__smakebuf_r+0x18>
 800aeb2:	f023 0303 	bic.w	r3, r3, #3
 800aeb6:	f043 0302 	orr.w	r3, r3, #2
 800aeba:	81a3      	strh	r3, [r4, #12]
 800aebc:	e7e2      	b.n	800ae84 <__smakebuf_r+0xc>
 800aebe:	89a3      	ldrh	r3, [r4, #12]
 800aec0:	6020      	str	r0, [r4, #0]
 800aec2:	f043 0380 	orr.w	r3, r3, #128	@ 0x80
 800aec6:	81a3      	strh	r3, [r4, #12]
 800aec8:	9b01      	ldr	r3, [sp, #4]
 800aeca:	e9c4 0704 	strd	r0, r7, [r4, #16]
 800aece:	b15b      	cbz	r3, 800aee8 <__smakebuf_r+0x70>
 800aed0:	f9b4 100e 	ldrsh.w	r1, [r4, #14]
 800aed4:	4630      	mov	r0, r6
 800aed6:	f000 f847 	bl	800af68 <_isatty_r>
 800aeda:	b128      	cbz	r0, 800aee8 <__smakebuf_r+0x70>
 800aedc:	89a3      	ldrh	r3, [r4, #12]
 800aede:	f023 0303 	bic.w	r3, r3, #3
 800aee2:	f043 0301 	orr.w	r3, r3, #1
 800aee6:	81a3      	strh	r3, [r4, #12]
 800aee8:	89a3      	ldrh	r3, [r4, #12]
 800aeea:	431d      	orrs	r5, r3
 800aeec:	81a5      	strh	r5, [r4, #12]
 800aeee:	e7cf      	b.n	800ae90 <__smakebuf_r+0x18>

0800aef0 <memmove>:
 800aef0:	4288      	cmp	r0, r1
 800aef2:	b510      	push	{r4, lr}
 800aef4:	eb01 0402 	add.w	r4, r1, r2
 800aef8:	d902      	bls.n	800af00 <memmove+0x10>
 800aefa:	4284      	cmp	r4, r0
 800aefc:	4623      	mov	r3, r4
 800aefe:	d807      	bhi.n	800af10 <memmove+0x20>
 800af00:	1e43      	subs	r3, r0, #1
 800af02:	42a1      	cmp	r1, r4
 800af04:	d008      	beq.n	800af18 <memmove+0x28>
 800af06:	f811 2b01 	ldrb.w	r2, [r1], #1
 800af0a:	f803 2f01 	strb.w	r2, [r3, #1]!
 800af0e:	e7f8      	b.n	800af02 <memmove+0x12>
 800af10:	4402      	add	r2, r0
 800af12:	4601      	mov	r1, r0
 800af14:	428a      	cmp	r2, r1
 800af16:	d100      	bne.n	800af1a <memmove+0x2a>
 800af18:	bd10      	pop	{r4, pc}
 800af1a:	f813 4d01 	ldrb.w	r4, [r3, #-1]!
 800af1e:	f802 4d01 	strb.w	r4, [r2, #-1]!
 800af22:	e7f7      	b.n	800af14 <memmove+0x24>

0800af24 <_close_r>:
 800af24:	b538      	push	{r3, r4, r5, lr}
 800af26:	4d06      	ldr	r5, [pc, #24]	@ (800af40 <_close_r+0x1c>)
 800af28:	2300      	movs	r3, #0
 800af2a:	4604      	mov	r4, r0
 800af2c:	4608      	mov	r0, r1
 800af2e:	602b      	str	r3, [r5, #0]
 800af30:	f7fa ff2a 	bl	8005d88 <_close>
 800af34:	1c43      	adds	r3, r0, #1
 800af36:	d102      	bne.n	800af3e <_close_r+0x1a>
 800af38:	682b      	ldr	r3, [r5, #0]
 800af3a:	b103      	cbz	r3, 800af3e <_close_r+0x1a>
 800af3c:	6023      	str	r3, [r4, #0]
 800af3e:	bd38      	pop	{r3, r4, r5, pc}
 800af40:	2400039c 	.word	0x2400039c

0800af44 <_fstat_r>:
 800af44:	b538      	push	{r3, r4, r5, lr}
 800af46:	4d07      	ldr	r5, [pc, #28]	@ (800af64 <_fstat_r+0x20>)
 800af48:	2300      	movs	r3, #0
 800af4a:	4604      	mov	r4, r0
 800af4c:	4608      	mov	r0, r1
 800af4e:	4611      	mov	r1, r2
 800af50:	602b      	str	r3, [r5, #0]
 800af52:	f7fa ff1c 	bl	8005d8e <_fstat>
 800af56:	1c43      	adds	r3, r0, #1
 800af58:	d102      	bne.n	800af60 <_fstat_r+0x1c>
 800af5a:	682b      	ldr	r3, [r5, #0]
 800af5c:	b103      	cbz	r3, 800af60 <_fstat_r+0x1c>
 800af5e:	6023      	str	r3, [r4, #0]
 800af60:	bd38      	pop	{r3, r4, r5, pc}
 800af62:	bf00      	nop
 800af64:	2400039c 	.word	0x2400039c

0800af68 <_isatty_r>:
 800af68:	b538      	push	{r3, r4, r5, lr}
 800af6a:	4d06      	ldr	r5, [pc, #24]	@ (800af84 <_isatty_r+0x1c>)
 800af6c:	2300      	movs	r3, #0
 800af6e:	4604      	mov	r4, r0
 800af70:	4608      	mov	r0, r1
 800af72:	602b      	str	r3, [r5, #0]
 800af74:	f7fa ff10 	bl	8005d98 <_isatty>
 800af78:	1c43      	adds	r3, r0, #1
 800af7a:	d102      	bne.n	800af82 <_isatty_r+0x1a>
 800af7c:	682b      	ldr	r3, [r5, #0]
 800af7e:	b103      	cbz	r3, 800af82 <_isatty_r+0x1a>
 800af80:	6023      	str	r3, [r4, #0]
 800af82:	bd38      	pop	{r3, r4, r5, pc}
 800af84:	2400039c 	.word	0x2400039c

0800af88 <_lseek_r>:
 800af88:	b538      	push	{r3, r4, r5, lr}
 800af8a:	4d07      	ldr	r5, [pc, #28]	@ (800afa8 <_lseek_r+0x20>)
 800af8c:	4604      	mov	r4, r0
 800af8e:	4608      	mov	r0, r1
 800af90:	4611      	mov	r1, r2
 800af92:	2200      	movs	r2, #0
 800af94:	602a      	str	r2, [r5, #0]
 800af96:	461a      	mov	r2, r3
 800af98:	f7fa ff00 	bl	8005d9c <_lseek>
 800af9c:	1c43      	adds	r3, r0, #1
 800af9e:	d102      	bne.n	800afa6 <_lseek_r+0x1e>
 800afa0:	682b      	ldr	r3, [r5, #0]
 800afa2:	b103      	cbz	r3, 800afa6 <_lseek_r+0x1e>
 800afa4:	6023      	str	r3, [r4, #0]
 800afa6:	bd38      	pop	{r3, r4, r5, pc}
 800afa8:	2400039c 	.word	0x2400039c

0800afac <_raise_r>:
 800afac:	291f      	cmp	r1, #31
 800afae:	b538      	push	{r3, r4, r5, lr}
 800afb0:	4605      	mov	r5, r0
 800afb2:	460c      	mov	r4, r1
 800afb4:	d904      	bls.n	800afc0 <_raise_r+0x14>
 800afb6:	2316      	movs	r3, #22
 800afb8:	6003      	str	r3, [r0, #0]
 800afba:	f04f 30ff 	mov.w	r0, #4294967295	@ 0xffffffff
 800afbe:	bd38      	pop	{r3, r4, r5, pc}
 800afc0:	6bc2      	ldr	r2, [r0, #60]	@ 0x3c
 800afc2:	b112      	cbz	r2, 800afca <_raise_r+0x1e>
 800afc4:	f852 3021 	ldr.w	r3, [r2, r1, lsl #2]
 800afc8:	b94b      	cbnz	r3, 800afde <_raise_r+0x32>
 800afca:	4628      	mov	r0, r5
 800afcc:	f000 f842 	bl	800b054 <_getpid_r>
 800afd0:	4622      	mov	r2, r4
 800afd2:	4601      	mov	r1, r0
 800afd4:	4628      	mov	r0, r5
 800afd6:	e8bd 4038 	ldmia.w	sp!, {r3, r4, r5, lr}
 800afda:	f000 b829 	b.w	800b030 <_kill_r>
 800afde:	2b01      	cmp	r3, #1
 800afe0:	d00a      	beq.n	800aff8 <_raise_r+0x4c>
 800afe2:	1c59      	adds	r1, r3, #1
 800afe4:	d103      	bne.n	800afee <_raise_r+0x42>
 800afe6:	2316      	movs	r3, #22
 800afe8:	6003      	str	r3, [r0, #0]
 800afea:	2001      	movs	r0, #1
 800afec:	e7e7      	b.n	800afbe <_raise_r+0x12>
 800afee:	2100      	movs	r1, #0
 800aff0:	f842 1024 	str.w	r1, [r2, r4, lsl #2]
 800aff4:	4620      	mov	r0, r4
 800aff6:	4798      	blx	r3
 800aff8:	2000      	movs	r0, #0
 800affa:	e7e0      	b.n	800afbe <_raise_r+0x12>

0800affc <raise>:
 800affc:	4b02      	ldr	r3, [pc, #8]	@ (800b008 <raise+0xc>)
 800affe:	4601      	mov	r1, r0
 800b000:	6818      	ldr	r0, [r3, #0]
 800b002:	f7ff bfd3 	b.w	800afac <_raise_r>
 800b006:	bf00      	nop
 800b008:	2400001c 	.word	0x2400001c

0800b00c <_read_r>:
 800b00c:	b538      	push	{r3, r4, r5, lr}
 800b00e:	4d07      	ldr	r5, [pc, #28]	@ (800b02c <_read_r+0x20>)
 800b010:	4604      	mov	r4, r0
 800b012:	4608      	mov	r0, r1
 800b014:	4611      	mov	r1, r2
 800b016:	2200      	movs	r2, #0
 800b018:	602a      	str	r2, [r5, #0]
 800b01a:	461a      	mov	r2, r3
 800b01c:	f7fa fe98 	bl	8005d50 <_read>
 800b020:	1c43      	adds	r3, r0, #1
 800b022:	d102      	bne.n	800b02a <_read_r+0x1e>
 800b024:	682b      	ldr	r3, [r5, #0]
 800b026:	b103      	cbz	r3, 800b02a <_read_r+0x1e>
 800b028:	6023      	str	r3, [r4, #0]
 800b02a:	bd38      	pop	{r3, r4, r5, pc}
 800b02c:	2400039c 	.word	0x2400039c

0800b030 <_kill_r>:
 800b030:	b538      	push	{r3, r4, r5, lr}
 800b032:	4d07      	ldr	r5, [pc, #28]	@ (800b050 <_kill_r+0x20>)
 800b034:	2300      	movs	r3, #0
 800b036:	4604      	mov	r4, r0
 800b038:	4608      	mov	r0, r1
 800b03a:	4611      	mov	r1, r2
 800b03c:	602b      	str	r3, [r5, #0]
 800b03e:	f7fa fe79 	bl	8005d34 <_kill>
 800b042:	1c43      	adds	r3, r0, #1
 800b044:	d102      	bne.n	800b04c <_kill_r+0x1c>
 800b046:	682b      	ldr	r3, [r5, #0]
 800b048:	b103      	cbz	r3, 800b04c <_kill_r+0x1c>
 800b04a:	6023      	str	r3, [r4, #0]
 800b04c:	bd38      	pop	{r3, r4, r5, pc}
 800b04e:	bf00      	nop
 800b050:	2400039c 	.word	0x2400039c

0800b054 <_getpid_r>:
 800b054:	f7fa be6c 	b.w	8005d30 <_getpid>

0800b058 <_write_r>:
 800b058:	b538      	push	{r3, r4, r5, lr}
 800b05a:	4d07      	ldr	r5, [pc, #28]	@ (800b078 <_write_r+0x20>)
 800b05c:	4604      	mov	r4, r0
 800b05e:	4608      	mov	r0, r1
 800b060:	4611      	mov	r1, r2
 800b062:	2200      	movs	r2, #0
 800b064:	602a      	str	r2, [r5, #0]
 800b066:	461a      	mov	r2, r3
 800b068:	f7fa fe80 	bl	8005d6c <_write>
 800b06c:	1c43      	adds	r3, r0, #1
 800b06e:	d102      	bne.n	800b076 <_write_r+0x1e>
 800b070:	682b      	ldr	r3, [r5, #0]
 800b072:	b103      	cbz	r3, 800b076 <_write_r+0x1e>
 800b074:	6023      	str	r3, [r4, #0]
 800b076:	bd38      	pop	{r3, r4, r5, pc}
 800b078:	2400039c 	.word	0x2400039c

0800b07c <_malloc_usable_size_r>:
 800b07c:	f851 3c04 	ldr.w	r3, [r1, #-4]
 800b080:	1f18      	subs	r0, r3, #4
 800b082:	2b00      	cmp	r3, #0
 800b084:	bfbc      	itt	lt
 800b086:	580b      	ldrlt	r3, [r1, r0]
 800b088:	18c0      	addlt	r0, r0, r3
 800b08a:	4770      	bx	lr

0800b08c <_init>:
 800b08c:	b5f8      	push	{r3, r4, r5, r6, r7, lr}
 800b08e:	bf00      	nop
 800b090:	bcf8      	pop	{r3, r4, r5, r6, r7}
 800b092:	bc08      	pop	{r3}
 800b094:	469e      	mov	lr, r3
 800b096:	4770      	bx	lr

0800b098 <_fini>:
 800b098:	b5f8      	push	{r3, r4, r5, r6, r7, lr}
 800b09a:	bf00      	nop
 800b09c:	bcf8      	pop	{r3, r4, r5, r6, r7}
 800b09e:	bc08      	pop	{r3}
 800b0a0:	469e      	mov	lr, r3
 800b0a2:	4770      	bx	lr
